
ExampleUSARTPWM.elf:     file format elf32-littlearm

Sections:
Idx Name          Size      VMA       LMA       File off  Algn
  0 .isr_vector   0000010c  08000000  08000000  00010000  2**0
                  CONTENTS, ALLOC, LOAD, READONLY, DATA
  1 .text         00007cd4  08000110  08000110  00010110  2**3
                  CONTENTS, ALLOC, LOAD, READONLY, CODE
  2 .rodata       00000488  08007de8  08007de8  00017de8  2**3
                  CONTENTS, ALLOC, LOAD, READONLY, DATA
  3 .ARM.extab    00000000  08008270  08008270  000201f4  2**0
                  CONTENTS
  4 .ARM          00000000  08008270  08008270  000201f4  2**0
                  CONTENTS
  5 .preinit_array 00000000  08008270  08008270  000201f4  2**0
                  CONTENTS, ALLOC, LOAD, DATA
  6 .init_array   00000004  08008270  08008270  00018270  2**2
                  CONTENTS, ALLOC, LOAD, DATA
  7 .fini_array   00000004  08008274  08008274  00018274  2**2
                  CONTENTS, ALLOC, LOAD, DATA
  8 .data         000001f4  20000000  08008278  00020000  2**3
                  CONTENTS, ALLOC, LOAD, DATA
  9 .bss          00000278  200001f8  0800846c  000201f8  2**3
                  ALLOC
 10 ._user_heap_stack 00000600  20000470  0800846c  00020470  2**0
                  ALLOC
 11 .ARM.attributes 00000029  00000000  00000000  000201f4  2**0
                  CONTENTS, READONLY
 12 .comment      0000007b  00000000  00000000  0002021d  2**0
                  CONTENTS, READONLY
 13 .debug_frame  000013a0  00000000  00000000  00020298  2**2
                  CONTENTS, READONLY, DEBUGGING

Disassembly of section .text:

08000110 <__do_global_dtors_aux>:
 8000110:	b510      	push	{r4, lr}
 8000112:	4c05      	ldr	r4, [pc, #20]	; (8000128 <__do_global_dtors_aux+0x18>)
 8000114:	7823      	ldrb	r3, [r4, #0]
 8000116:	b933      	cbnz	r3, 8000126 <__do_global_dtors_aux+0x16>
 8000118:	4b04      	ldr	r3, [pc, #16]	; (800012c <__do_global_dtors_aux+0x1c>)
 800011a:	b113      	cbz	r3, 8000122 <__do_global_dtors_aux+0x12>
 800011c:	4804      	ldr	r0, [pc, #16]	; (8000130 <__do_global_dtors_aux+0x20>)
 800011e:	f3af 8000 	nop.w
 8000122:	2301      	movs	r3, #1
 8000124:	7023      	strb	r3, [r4, #0]
 8000126:	bd10      	pop	{r4, pc}
 8000128:	200001f8 	.word	0x200001f8
 800012c:	00000000 	.word	0x00000000
 8000130:	08007dcc 	.word	0x08007dcc

08000134 <frame_dummy>:
 8000134:	b508      	push	{r3, lr}
 8000136:	4b03      	ldr	r3, [pc, #12]	; (8000144 <frame_dummy+0x10>)
 8000138:	b11b      	cbz	r3, 8000142 <frame_dummy+0xe>
 800013a:	4903      	ldr	r1, [pc, #12]	; (8000148 <frame_dummy+0x14>)
 800013c:	4803      	ldr	r0, [pc, #12]	; (800014c <frame_dummy+0x18>)
 800013e:	f3af 8000 	nop.w
 8000142:	bd08      	pop	{r3, pc}
 8000144:	00000000 	.word	0x00000000
 8000148:	200001fc 	.word	0x200001fc
 800014c:	08007dcc 	.word	0x08007dcc

08000150 <strlen>:
 8000150:	4603      	mov	r3, r0
 8000152:	f813 2b01 	ldrb.w	r2, [r3], #1
 8000156:	2a00      	cmp	r2, #0
 8000158:	d1fb      	bne.n	8000152 <strlen+0x2>
 800015a:	1a18      	subs	r0, r3, r0
 800015c:	3801      	subs	r0, #1
 800015e:	4770      	bx	lr

08000160 <__aeabi_drsub>:
 8000160:	f081 4100 	eor.w	r1, r1, #2147483648	; 0x80000000
 8000164:	e002      	b.n	800016c <__adddf3>
 8000166:	bf00      	nop

08000168 <__aeabi_dsub>:
 8000168:	f083 4300 	eor.w	r3, r3, #2147483648	; 0x80000000

0800016c <__adddf3>:
 800016c:	b530      	push	{r4, r5, lr}
 800016e:	ea4f 0441 	mov.w	r4, r1, lsl #1
 8000172:	ea4f 0543 	mov.w	r5, r3, lsl #1
 8000176:	ea94 0f05 	teq	r4, r5
 800017a:	bf08      	it	eq
 800017c:	ea90 0f02 	teqeq	r0, r2
 8000180:	bf1f      	itttt	ne
 8000182:	ea54 0c00 	orrsne.w	ip, r4, r0
 8000186:	ea55 0c02 	orrsne.w	ip, r5, r2
 800018a:	ea7f 5c64 	mvnsne.w	ip, r4, asr #21
 800018e:	ea7f 5c65 	mvnsne.w	ip, r5, asr #21
 8000192:	f000 80e2 	beq.w	800035a <__adddf3+0x1ee>
 8000196:	ea4f 5454 	mov.w	r4, r4, lsr #21
 800019a:	ebd4 5555 	rsbs	r5, r4, r5, lsr #21
 800019e:	bfb8      	it	lt
 80001a0:	426d      	neglt	r5, r5
 80001a2:	dd0c      	ble.n	80001be <__adddf3+0x52>
 80001a4:	442c      	add	r4, r5
 80001a6:	ea80 0202 	eor.w	r2, r0, r2
 80001aa:	ea81 0303 	eor.w	r3, r1, r3
 80001ae:	ea82 0000 	eor.w	r0, r2, r0
 80001b2:	ea83 0101 	eor.w	r1, r3, r1
 80001b6:	ea80 0202 	eor.w	r2, r0, r2
 80001ba:	ea81 0303 	eor.w	r3, r1, r3
 80001be:	2d36      	cmp	r5, #54	; 0x36
 80001c0:	bf88      	it	hi
 80001c2:	bd30      	pophi	{r4, r5, pc}
 80001c4:	f011 4f00 	tst.w	r1, #2147483648	; 0x80000000
 80001c8:	ea4f 3101 	mov.w	r1, r1, lsl #12
 80001cc:	f44f 1c80 	mov.w	ip, #1048576	; 0x100000
 80001d0:	ea4c 3111 	orr.w	r1, ip, r1, lsr #12
 80001d4:	d002      	beq.n	80001dc <__adddf3+0x70>
 80001d6:	4240      	negs	r0, r0
 80001d8:	eb61 0141 	sbc.w	r1, r1, r1, lsl #1
 80001dc:	f013 4f00 	tst.w	r3, #2147483648	; 0x80000000
 80001e0:	ea4f 3303 	mov.w	r3, r3, lsl #12
 80001e4:	ea4c 3313 	orr.w	r3, ip, r3, lsr #12
 80001e8:	d002      	beq.n	80001f0 <__adddf3+0x84>
 80001ea:	4252      	negs	r2, r2
 80001ec:	eb63 0343 	sbc.w	r3, r3, r3, lsl #1
 80001f0:	ea94 0f05 	teq	r4, r5
 80001f4:	f000 80a7 	beq.w	8000346 <__adddf3+0x1da>
 80001f8:	f1a4 0401 	sub.w	r4, r4, #1
 80001fc:	f1d5 0e20 	rsbs	lr, r5, #32
 8000200:	db0d      	blt.n	800021e <__adddf3+0xb2>
 8000202:	fa02 fc0e 	lsl.w	ip, r2, lr
 8000206:	fa22 f205 	lsr.w	r2, r2, r5
 800020a:	1880      	adds	r0, r0, r2
 800020c:	f141 0100 	adc.w	r1, r1, #0
 8000210:	fa03 f20e 	lsl.w	r2, r3, lr
 8000214:	1880      	adds	r0, r0, r2
 8000216:	fa43 f305 	asr.w	r3, r3, r5
 800021a:	4159      	adcs	r1, r3
 800021c:	e00e      	b.n	800023c <__adddf3+0xd0>
 800021e:	f1a5 0520 	sub.w	r5, r5, #32
 8000222:	f10e 0e20 	add.w	lr, lr, #32
 8000226:	2a01      	cmp	r2, #1
 8000228:	fa03 fc0e 	lsl.w	ip, r3, lr
 800022c:	bf28      	it	cs
 800022e:	f04c 0c02 	orrcs.w	ip, ip, #2
 8000232:	fa43 f305 	asr.w	r3, r3, r5
 8000236:	18c0      	adds	r0, r0, r3
 8000238:	eb51 71e3 	adcs.w	r1, r1, r3, asr #31
 800023c:	f001 4500 	and.w	r5, r1, #2147483648	; 0x80000000
 8000240:	d507      	bpl.n	8000252 <__adddf3+0xe6>
 8000242:	f04f 0e00 	mov.w	lr, #0
 8000246:	f1dc 0c00 	rsbs	ip, ip, #0
 800024a:	eb7e 0000 	sbcs.w	r0, lr, r0
 800024e:	eb6e 0101 	sbc.w	r1, lr, r1
 8000252:	f5b1 1f80 	cmp.w	r1, #1048576	; 0x100000
 8000256:	d31b      	bcc.n	8000290 <__adddf3+0x124>
 8000258:	f5b1 1f00 	cmp.w	r1, #2097152	; 0x200000
 800025c:	d30c      	bcc.n	8000278 <__adddf3+0x10c>
 800025e:	0849      	lsrs	r1, r1, #1
 8000260:	ea5f 0030 	movs.w	r0, r0, rrx
 8000264:	ea4f 0c3c 	mov.w	ip, ip, rrx
 8000268:	f104 0401 	add.w	r4, r4, #1
 800026c:	ea4f 5244 	mov.w	r2, r4, lsl #21
 8000270:	f512 0f80 	cmn.w	r2, #4194304	; 0x400000
 8000274:	f080 809a 	bcs.w	80003ac <__adddf3+0x240>
 8000278:	f1bc 4f00 	cmp.w	ip, #2147483648	; 0x80000000
 800027c:	bf08      	it	eq
 800027e:	ea5f 0c50 	movseq.w	ip, r0, lsr #1
 8000282:	f150 0000 	adcs.w	r0, r0, #0
 8000286:	eb41 5104 	adc.w	r1, r1, r4, lsl #20
 800028a:	ea41 0105 	orr.w	r1, r1, r5
 800028e:	bd30      	pop	{r4, r5, pc}
 8000290:	ea5f 0c4c 	movs.w	ip, ip, lsl #1
 8000294:	4140      	adcs	r0, r0
 8000296:	eb41 0101 	adc.w	r1, r1, r1
 800029a:	f411 1f80 	tst.w	r1, #1048576	; 0x100000
 800029e:	f1a4 0401 	sub.w	r4, r4, #1
 80002a2:	d1e9      	bne.n	8000278 <__adddf3+0x10c>
 80002a4:	f091 0f00 	teq	r1, #0
 80002a8:	bf04      	itt	eq
 80002aa:	4601      	moveq	r1, r0
 80002ac:	2000      	moveq	r0, #0
 80002ae:	fab1 f381 	clz	r3, r1
 80002b2:	bf08      	it	eq
 80002b4:	3320      	addeq	r3, #32
 80002b6:	f1a3 030b 	sub.w	r3, r3, #11
 80002ba:	f1b3 0220 	subs.w	r2, r3, #32
 80002be:	da0c      	bge.n	80002da <__adddf3+0x16e>
 80002c0:	320c      	adds	r2, #12
 80002c2:	dd08      	ble.n	80002d6 <__adddf3+0x16a>
 80002c4:	f102 0c14 	add.w	ip, r2, #20
 80002c8:	f1c2 020c 	rsb	r2, r2, #12
 80002cc:	fa01 f00c 	lsl.w	r0, r1, ip
 80002d0:	fa21 f102 	lsr.w	r1, r1, r2
 80002d4:	e00c      	b.n	80002f0 <__adddf3+0x184>
 80002d6:	f102 0214 	add.w	r2, r2, #20
 80002da:	bfd8      	it	le
 80002dc:	f1c2 0c20 	rsble	ip, r2, #32
 80002e0:	fa01 f102 	lsl.w	r1, r1, r2
 80002e4:	fa20 fc0c 	lsr.w	ip, r0, ip
 80002e8:	bfdc      	itt	le
 80002ea:	ea41 010c 	orrle.w	r1, r1, ip
 80002ee:	4090      	lslle	r0, r2
 80002f0:	1ae4      	subs	r4, r4, r3
 80002f2:	bfa2      	ittt	ge
 80002f4:	eb01 5104 	addge.w	r1, r1, r4, lsl #20
 80002f8:	4329      	orrge	r1, r5
 80002fa:	bd30      	popge	{r4, r5, pc}
 80002fc:	ea6f 0404 	mvn.w	r4, r4
 8000300:	3c1f      	subs	r4, #31
 8000302:	da1c      	bge.n	800033e <__adddf3+0x1d2>
 8000304:	340c      	adds	r4, #12
 8000306:	dc0e      	bgt.n	8000326 <__adddf3+0x1ba>
 8000308:	f104 0414 	add.w	r4, r4, #20
 800030c:	f1c4 0220 	rsb	r2, r4, #32
 8000310:	fa20 f004 	lsr.w	r0, r0, r4
 8000314:	fa01 f302 	lsl.w	r3, r1, r2
 8000318:	ea40 0003 	orr.w	r0, r0, r3
 800031c:	fa21 f304 	lsr.w	r3, r1, r4
 8000320:	ea45 0103 	orr.w	r1, r5, r3
 8000324:	bd30      	pop	{r4, r5, pc}
 8000326:	f1c4 040c 	rsb	r4, r4, #12
 800032a:	f1c4 0220 	rsb	r2, r4, #32
 800032e:	fa20 f002 	lsr.w	r0, r0, r2
 8000332:	fa01 f304 	lsl.w	r3, r1, r4
 8000336:	ea40 0003 	orr.w	r0, r0, r3
 800033a:	4629      	mov	r1, r5
 800033c:	bd30      	pop	{r4, r5, pc}
 800033e:	fa21 f004 	lsr.w	r0, r1, r4
 8000342:	4629      	mov	r1, r5
 8000344:	bd30      	pop	{r4, r5, pc}
 8000346:	f094 0f00 	teq	r4, #0
 800034a:	f483 1380 	eor.w	r3, r3, #1048576	; 0x100000
 800034e:	bf06      	itte	eq
 8000350:	f481 1180 	eoreq.w	r1, r1, #1048576	; 0x100000
 8000354:	3401      	addeq	r4, #1
 8000356:	3d01      	subne	r5, #1
 8000358:	e74e      	b.n	80001f8 <__adddf3+0x8c>
 800035a:	ea7f 5c64 	mvns.w	ip, r4, asr #21
 800035e:	bf18      	it	ne
 8000360:	ea7f 5c65 	mvnsne.w	ip, r5, asr #21
 8000364:	d029      	beq.n	80003ba <__adddf3+0x24e>
 8000366:	ea94 0f05 	teq	r4, r5
 800036a:	bf08      	it	eq
 800036c:	ea90 0f02 	teqeq	r0, r2
 8000370:	d005      	beq.n	800037e <__adddf3+0x212>
 8000372:	ea54 0c00 	orrs.w	ip, r4, r0
 8000376:	bf04      	itt	eq
 8000378:	4619      	moveq	r1, r3
 800037a:	4610      	moveq	r0, r2
 800037c:	bd30      	pop	{r4, r5, pc}
 800037e:	ea91 0f03 	teq	r1, r3
 8000382:	bf1e      	ittt	ne
 8000384:	2100      	movne	r1, #0
 8000386:	2000      	movne	r0, #0
 8000388:	bd30      	popne	{r4, r5, pc}
 800038a:	ea5f 5c54 	movs.w	ip, r4, lsr #21
 800038e:	d105      	bne.n	800039c <__adddf3+0x230>
 8000390:	0040      	lsls	r0, r0, #1
 8000392:	4149      	adcs	r1, r1
 8000394:	bf28      	it	cs
 8000396:	f041 4100 	orrcs.w	r1, r1, #2147483648	; 0x80000000
 800039a:	bd30      	pop	{r4, r5, pc}
 800039c:	f514 0480 	adds.w	r4, r4, #4194304	; 0x400000
 80003a0:	bf3c      	itt	cc
 80003a2:	f501 1180 	addcc.w	r1, r1, #1048576	; 0x100000
 80003a6:	bd30      	popcc	{r4, r5, pc}
 80003a8:	f001 4500 	and.w	r5, r1, #2147483648	; 0x80000000
 80003ac:	f045 41fe 	orr.w	r1, r5, #2130706432	; 0x7f000000
 80003b0:	f441 0170 	orr.w	r1, r1, #15728640	; 0xf00000
 80003b4:	f04f 0000 	mov.w	r0, #0
 80003b8:	bd30      	pop	{r4, r5, pc}
 80003ba:	ea7f 5c64 	mvns.w	ip, r4, asr #21
 80003be:	bf1a      	itte	ne
 80003c0:	4619      	movne	r1, r3
 80003c2:	4610      	movne	r0, r2
 80003c4:	ea7f 5c65 	mvnseq.w	ip, r5, asr #21
 80003c8:	bf1c      	itt	ne
 80003ca:	460b      	movne	r3, r1
 80003cc:	4602      	movne	r2, r0
 80003ce:	ea50 3401 	orrs.w	r4, r0, r1, lsl #12
 80003d2:	bf06      	itte	eq
 80003d4:	ea52 3503 	orrseq.w	r5, r2, r3, lsl #12
 80003d8:	ea91 0f03 	teqeq	r1, r3
 80003dc:	f441 2100 	orrne.w	r1, r1, #524288	; 0x80000
 80003e0:	bd30      	pop	{r4, r5, pc}
 80003e2:	bf00      	nop

080003e4 <__aeabi_ui2d>:
 80003e4:	f090 0f00 	teq	r0, #0
 80003e8:	bf04      	itt	eq
 80003ea:	2100      	moveq	r1, #0
 80003ec:	4770      	bxeq	lr
 80003ee:	b530      	push	{r4, r5, lr}
 80003f0:	f44f 6480 	mov.w	r4, #1024	; 0x400
 80003f4:	f104 0432 	add.w	r4, r4, #50	; 0x32
 80003f8:	f04f 0500 	mov.w	r5, #0
 80003fc:	f04f 0100 	mov.w	r1, #0
 8000400:	e750      	b.n	80002a4 <__adddf3+0x138>
 8000402:	bf00      	nop

08000404 <__aeabi_i2d>:
 8000404:	f090 0f00 	teq	r0, #0
 8000408:	bf04      	itt	eq
 800040a:	2100      	moveq	r1, #0
 800040c:	4770      	bxeq	lr
 800040e:	b530      	push	{r4, r5, lr}
 8000410:	f44f 6480 	mov.w	r4, #1024	; 0x400
 8000414:	f104 0432 	add.w	r4, r4, #50	; 0x32
 8000418:	f010 4500 	ands.w	r5, r0, #2147483648	; 0x80000000
 800041c:	bf48      	it	mi
 800041e:	4240      	negmi	r0, r0
 8000420:	f04f 0100 	mov.w	r1, #0
 8000424:	e73e      	b.n	80002a4 <__adddf3+0x138>
 8000426:	bf00      	nop

08000428 <__aeabi_f2d>:
 8000428:	0042      	lsls	r2, r0, #1
 800042a:	ea4f 01e2 	mov.w	r1, r2, asr #3
 800042e:	ea4f 0131 	mov.w	r1, r1, rrx
 8000432:	ea4f 7002 	mov.w	r0, r2, lsl #28
 8000436:	bf1f      	itttt	ne
 8000438:	f012 437f 	andsne.w	r3, r2, #4278190080	; 0xff000000
 800043c:	f093 4f7f 	teqne	r3, #4278190080	; 0xff000000
 8000440:	f081 5160 	eorne.w	r1, r1, #939524096	; 0x38000000
 8000444:	4770      	bxne	lr
 8000446:	f032 427f 	bics.w	r2, r2, #4278190080	; 0xff000000
 800044a:	bf08      	it	eq
 800044c:	4770      	bxeq	lr
 800044e:	f093 4f7f 	teq	r3, #4278190080	; 0xff000000
 8000452:	bf04      	itt	eq
 8000454:	f441 2100 	orreq.w	r1, r1, #524288	; 0x80000
 8000458:	4770      	bxeq	lr
 800045a:	b530      	push	{r4, r5, lr}
 800045c:	f44f 7460 	mov.w	r4, #896	; 0x380
 8000460:	f001 4500 	and.w	r5, r1, #2147483648	; 0x80000000
 8000464:	f021 4100 	bic.w	r1, r1, #2147483648	; 0x80000000
 8000468:	e71c      	b.n	80002a4 <__adddf3+0x138>
 800046a:	bf00      	nop

0800046c <__aeabi_ul2d>:
 800046c:	ea50 0201 	orrs.w	r2, r0, r1
 8000470:	bf08      	it	eq
 8000472:	4770      	bxeq	lr
 8000474:	b530      	push	{r4, r5, lr}
 8000476:	f04f 0500 	mov.w	r5, #0
 800047a:	e00a      	b.n	8000492 <__aeabi_l2d+0x16>

0800047c <__aeabi_l2d>:
 800047c:	ea50 0201 	orrs.w	r2, r0, r1
 8000480:	bf08      	it	eq
 8000482:	4770      	bxeq	lr
 8000484:	b530      	push	{r4, r5, lr}
 8000486:	f011 4500 	ands.w	r5, r1, #2147483648	; 0x80000000
 800048a:	d502      	bpl.n	8000492 <__aeabi_l2d+0x16>
 800048c:	4240      	negs	r0, r0
 800048e:	eb61 0141 	sbc.w	r1, r1, r1, lsl #1
 8000492:	f44f 6480 	mov.w	r4, #1024	; 0x400
 8000496:	f104 0432 	add.w	r4, r4, #50	; 0x32
 800049a:	ea5f 5c91 	movs.w	ip, r1, lsr #22
 800049e:	f43f aed8 	beq.w	8000252 <__adddf3+0xe6>
 80004a2:	f04f 0203 	mov.w	r2, #3
 80004a6:	ea5f 0cdc 	movs.w	ip, ip, lsr #3
 80004aa:	bf18      	it	ne
 80004ac:	3203      	addne	r2, #3
 80004ae:	ea5f 0cdc 	movs.w	ip, ip, lsr #3
 80004b2:	bf18      	it	ne
 80004b4:	3203      	addne	r2, #3
 80004b6:	eb02 02dc 	add.w	r2, r2, ip, lsr #3
 80004ba:	f1c2 0320 	rsb	r3, r2, #32
 80004be:	fa00 fc03 	lsl.w	ip, r0, r3
 80004c2:	fa20 f002 	lsr.w	r0, r0, r2
 80004c6:	fa01 fe03 	lsl.w	lr, r1, r3
 80004ca:	ea40 000e 	orr.w	r0, r0, lr
 80004ce:	fa21 f102 	lsr.w	r1, r1, r2
 80004d2:	4414      	add	r4, r2
 80004d4:	e6bd      	b.n	8000252 <__adddf3+0xe6>
 80004d6:	bf00      	nop

080004d8 <__aeabi_dmul>:
 80004d8:	b570      	push	{r4, r5, r6, lr}
 80004da:	f04f 0cff 	mov.w	ip, #255	; 0xff
 80004de:	f44c 6ce0 	orr.w	ip, ip, #1792	; 0x700
 80004e2:	ea1c 5411 	ands.w	r4, ip, r1, lsr #20
 80004e6:	bf1d      	ittte	ne
 80004e8:	ea1c 5513 	andsne.w	r5, ip, r3, lsr #20
 80004ec:	ea94 0f0c 	teqne	r4, ip
 80004f0:	ea95 0f0c 	teqne	r5, ip
 80004f4:	f000 f8de 	bleq	80006b4 <__aeabi_dmul+0x1dc>
 80004f8:	442c      	add	r4, r5
 80004fa:	ea81 0603 	eor.w	r6, r1, r3
 80004fe:	ea21 514c 	bic.w	r1, r1, ip, lsl #21
 8000502:	ea23 534c 	bic.w	r3, r3, ip, lsl #21
 8000506:	ea50 3501 	orrs.w	r5, r0, r1, lsl #12
 800050a:	bf18      	it	ne
 800050c:	ea52 3503 	orrsne.w	r5, r2, r3, lsl #12
 8000510:	f441 1180 	orr.w	r1, r1, #1048576	; 0x100000
 8000514:	f443 1380 	orr.w	r3, r3, #1048576	; 0x100000
 8000518:	d038      	beq.n	800058c <__aeabi_dmul+0xb4>
 800051a:	fba0 ce02 	umull	ip, lr, r0, r2
 800051e:	f04f 0500 	mov.w	r5, #0
 8000522:	fbe1 e502 	umlal	lr, r5, r1, r2
 8000526:	f006 4200 	and.w	r2, r6, #2147483648	; 0x80000000
 800052a:	fbe0 e503 	umlal	lr, r5, r0, r3
 800052e:	f04f 0600 	mov.w	r6, #0
 8000532:	fbe1 5603 	umlal	r5, r6, r1, r3
 8000536:	f09c 0f00 	teq	ip, #0
 800053a:	bf18      	it	ne
 800053c:	f04e 0e01 	orrne.w	lr, lr, #1
 8000540:	f1a4 04ff 	sub.w	r4, r4, #255	; 0xff
 8000544:	f5b6 7f00 	cmp.w	r6, #512	; 0x200
 8000548:	f564 7440 	sbc.w	r4, r4, #768	; 0x300
 800054c:	d204      	bcs.n	8000558 <__aeabi_dmul+0x80>
 800054e:	ea5f 0e4e 	movs.w	lr, lr, lsl #1
 8000552:	416d      	adcs	r5, r5
 8000554:	eb46 0606 	adc.w	r6, r6, r6
 8000558:	ea42 21c6 	orr.w	r1, r2, r6, lsl #11
 800055c:	ea41 5155 	orr.w	r1, r1, r5, lsr #21
 8000560:	ea4f 20c5 	mov.w	r0, r5, lsl #11
 8000564:	ea40 505e 	orr.w	r0, r0, lr, lsr #21
 8000568:	ea4f 2ece 	mov.w	lr, lr, lsl #11
 800056c:	f1b4 0cfd 	subs.w	ip, r4, #253	; 0xfd
 8000570:	bf88      	it	hi
 8000572:	f5bc 6fe0 	cmphi.w	ip, #1792	; 0x700
 8000576:	d81e      	bhi.n	80005b6 <__aeabi_dmul+0xde>
 8000578:	f1be 4f00 	cmp.w	lr, #2147483648	; 0x80000000
 800057c:	bf08      	it	eq
 800057e:	ea5f 0e50 	movseq.w	lr, r0, lsr #1
 8000582:	f150 0000 	adcs.w	r0, r0, #0
 8000586:	eb41 5104 	adc.w	r1, r1, r4, lsl #20
 800058a:	bd70      	pop	{r4, r5, r6, pc}
 800058c:	f006 4600 	and.w	r6, r6, #2147483648	; 0x80000000
 8000590:	ea46 0101 	orr.w	r1, r6, r1
 8000594:	ea40 0002 	orr.w	r0, r0, r2
 8000598:	ea81 0103 	eor.w	r1, r1, r3
 800059c:	ebb4 045c 	subs.w	r4, r4, ip, lsr #1
 80005a0:	bfc2      	ittt	gt
 80005a2:	ebd4 050c 	rsbsgt	r5, r4, ip
 80005a6:	ea41 5104 	orrgt.w	r1, r1, r4, lsl #20
 80005aa:	bd70      	popgt	{r4, r5, r6, pc}
 80005ac:	f441 1180 	orr.w	r1, r1, #1048576	; 0x100000
 80005b0:	f04f 0e00 	mov.w	lr, #0
 80005b4:	3c01      	subs	r4, #1
 80005b6:	f300 80ab 	bgt.w	8000710 <__aeabi_dmul+0x238>
 80005ba:	f114 0f36 	cmn.w	r4, #54	; 0x36
 80005be:	bfde      	ittt	le
 80005c0:	2000      	movle	r0, #0
 80005c2:	f001 4100 	andle.w	r1, r1, #2147483648	; 0x80000000
 80005c6:	bd70      	pople	{r4, r5, r6, pc}
 80005c8:	f1c4 0400 	rsb	r4, r4, #0
 80005cc:	3c20      	subs	r4, #32
 80005ce:	da35      	bge.n	800063c <__aeabi_dmul+0x164>
 80005d0:	340c      	adds	r4, #12
 80005d2:	dc1b      	bgt.n	800060c <__aeabi_dmul+0x134>
 80005d4:	f104 0414 	add.w	r4, r4, #20
 80005d8:	f1c4 0520 	rsb	r5, r4, #32
 80005dc:	fa00 f305 	lsl.w	r3, r0, r5
 80005e0:	fa20 f004 	lsr.w	r0, r0, r4
 80005e4:	fa01 f205 	lsl.w	r2, r1, r5
 80005e8:	ea40 0002 	orr.w	r0, r0, r2
 80005ec:	f001 4200 	and.w	r2, r1, #2147483648	; 0x80000000
 80005f0:	f021 4100 	bic.w	r1, r1, #2147483648	; 0x80000000
 80005f4:	eb10 70d3 	adds.w	r0, r0, r3, lsr #31
 80005f8:	fa21 f604 	lsr.w	r6, r1, r4
 80005fc:	eb42 0106 	adc.w	r1, r2, r6
 8000600:	ea5e 0e43 	orrs.w	lr, lr, r3, lsl #1
 8000604:	bf08      	it	eq
 8000606:	ea20 70d3 	biceq.w	r0, r0, r3, lsr #31
 800060a:	bd70      	pop	{r4, r5, r6, pc}
 800060c:	f1c4 040c 	rsb	r4, r4, #12
 8000610:	f1c4 0520 	rsb	r5, r4, #32
 8000614:	fa00 f304 	lsl.w	r3, r0, r4
 8000618:	fa20 f005 	lsr.w	r0, r0, r5
 800061c:	fa01 f204 	lsl.w	r2, r1, r4
 8000620:	ea40 0002 	orr.w	r0, r0, r2
 8000624:	f001 4100 	and.w	r1, r1, #2147483648	; 0x80000000
 8000628:	eb10 70d3 	adds.w	r0, r0, r3, lsr #31
 800062c:	f141 0100 	adc.w	r1, r1, #0
 8000630:	ea5e 0e43 	orrs.w	lr, lr, r3, lsl #1
 8000634:	bf08      	it	eq
 8000636:	ea20 70d3 	biceq.w	r0, r0, r3, lsr #31
 800063a:	bd70      	pop	{r4, r5, r6, pc}
 800063c:	f1c4 0520 	rsb	r5, r4, #32
 8000640:	fa00 f205 	lsl.w	r2, r0, r5
 8000644:	ea4e 0e02 	orr.w	lr, lr, r2
 8000648:	fa20 f304 	lsr.w	r3, r0, r4
 800064c:	fa01 f205 	lsl.w	r2, r1, r5
 8000650:	ea43 0302 	orr.w	r3, r3, r2
 8000654:	fa21 f004 	lsr.w	r0, r1, r4
 8000658:	f001 4100 	and.w	r1, r1, #2147483648	; 0x80000000
 800065c:	fa21 f204 	lsr.w	r2, r1, r4
 8000660:	ea20 0002 	bic.w	r0, r0, r2
 8000664:	eb00 70d3 	add.w	r0, r0, r3, lsr #31
 8000668:	ea5e 0e43 	orrs.w	lr, lr, r3, lsl #1
 800066c:	bf08      	it	eq
 800066e:	ea20 70d3 	biceq.w	r0, r0, r3, lsr #31
 8000672:	bd70      	pop	{r4, r5, r6, pc}
 8000674:	f094 0f00 	teq	r4, #0
 8000678:	d10f      	bne.n	800069a <__aeabi_dmul+0x1c2>
 800067a:	f001 4600 	and.w	r6, r1, #2147483648	; 0x80000000
 800067e:	0040      	lsls	r0, r0, #1
 8000680:	eb41 0101 	adc.w	r1, r1, r1
 8000684:	f411 1f80 	tst.w	r1, #1048576	; 0x100000
 8000688:	bf08      	it	eq
 800068a:	3c01      	subeq	r4, #1
 800068c:	d0f7      	beq.n	800067e <__aeabi_dmul+0x1a6>
 800068e:	ea41 0106 	orr.w	r1, r1, r6
 8000692:	f095 0f00 	teq	r5, #0
 8000696:	bf18      	it	ne
 8000698:	4770      	bxne	lr
 800069a:	f003 4600 	and.w	r6, r3, #2147483648	; 0x80000000
 800069e:	0052      	lsls	r2, r2, #1
 80006a0:	eb43 0303 	adc.w	r3, r3, r3
 80006a4:	f413 1f80 	tst.w	r3, #1048576	; 0x100000
 80006a8:	bf08      	it	eq
 80006aa:	3d01      	subeq	r5, #1
 80006ac:	d0f7      	beq.n	800069e <__aeabi_dmul+0x1c6>
 80006ae:	ea43 0306 	orr.w	r3, r3, r6
 80006b2:	4770      	bx	lr
 80006b4:	ea94 0f0c 	teq	r4, ip
 80006b8:	ea0c 5513 	and.w	r5, ip, r3, lsr #20
 80006bc:	bf18      	it	ne
 80006be:	ea95 0f0c 	teqne	r5, ip
 80006c2:	d00c      	beq.n	80006de <__aeabi_dmul+0x206>
 80006c4:	ea50 0641 	orrs.w	r6, r0, r1, lsl #1
 80006c8:	bf18      	it	ne
 80006ca:	ea52 0643 	orrsne.w	r6, r2, r3, lsl #1
 80006ce:	d1d1      	bne.n	8000674 <__aeabi_dmul+0x19c>
 80006d0:	ea81 0103 	eor.w	r1, r1, r3
 80006d4:	f001 4100 	and.w	r1, r1, #2147483648	; 0x80000000
 80006d8:	f04f 0000 	mov.w	r0, #0
 80006dc:	bd70      	pop	{r4, r5, r6, pc}
 80006de:	ea50 0641 	orrs.w	r6, r0, r1, lsl #1
 80006e2:	bf06      	itte	eq
 80006e4:	4610      	moveq	r0, r2
 80006e6:	4619      	moveq	r1, r3
 80006e8:	ea52 0643 	orrsne.w	r6, r2, r3, lsl #1
 80006ec:	d019      	beq.n	8000722 <__aeabi_dmul+0x24a>
 80006ee:	ea94 0f0c 	teq	r4, ip
 80006f2:	d102      	bne.n	80006fa <__aeabi_dmul+0x222>
 80006f4:	ea50 3601 	orrs.w	r6, r0, r1, lsl #12
 80006f8:	d113      	bne.n	8000722 <__aeabi_dmul+0x24a>
 80006fa:	ea95 0f0c 	teq	r5, ip
 80006fe:	d105      	bne.n	800070c <__aeabi_dmul+0x234>
 8000700:	ea52 3603 	orrs.w	r6, r2, r3, lsl #12
 8000704:	bf1c      	itt	ne
 8000706:	4610      	movne	r0, r2
 8000708:	4619      	movne	r1, r3
 800070a:	d10a      	bne.n	8000722 <__aeabi_dmul+0x24a>
 800070c:	ea81 0103 	eor.w	r1, r1, r3
 8000710:	f001 4100 	and.w	r1, r1, #2147483648	; 0x80000000
 8000714:	f041 41fe 	orr.w	r1, r1, #2130706432	; 0x7f000000
 8000718:	f441 0170 	orr.w	r1, r1, #15728640	; 0xf00000
 800071c:	f04f 0000 	mov.w	r0, #0
 8000720:	bd70      	pop	{r4, r5, r6, pc}
 8000722:	f041 41fe 	orr.w	r1, r1, #2130706432	; 0x7f000000
 8000726:	f441 0178 	orr.w	r1, r1, #16252928	; 0xf80000
 800072a:	bd70      	pop	{r4, r5, r6, pc}

0800072c <__aeabi_ddiv>:
 800072c:	b570      	push	{r4, r5, r6, lr}
 800072e:	f04f 0cff 	mov.w	ip, #255	; 0xff
 8000732:	f44c 6ce0 	orr.w	ip, ip, #1792	; 0x700
 8000736:	ea1c 5411 	ands.w	r4, ip, r1, lsr #20
 800073a:	bf1d      	ittte	ne
 800073c:	ea1c 5513 	andsne.w	r5, ip, r3, lsr #20
 8000740:	ea94 0f0c 	teqne	r4, ip
 8000744:	ea95 0f0c 	teqne	r5, ip
 8000748:	f000 f8a7 	bleq	800089a <__aeabi_ddiv+0x16e>
 800074c:	eba4 0405 	sub.w	r4, r4, r5
 8000750:	ea81 0e03 	eor.w	lr, r1, r3
 8000754:	ea52 3503 	orrs.w	r5, r2, r3, lsl #12
 8000758:	ea4f 3101 	mov.w	r1, r1, lsl #12
 800075c:	f000 8088 	beq.w	8000870 <__aeabi_ddiv+0x144>
 8000760:	ea4f 3303 	mov.w	r3, r3, lsl #12
 8000764:	f04f 5580 	mov.w	r5, #268435456	; 0x10000000
 8000768:	ea45 1313 	orr.w	r3, r5, r3, lsr #4
 800076c:	ea43 6312 	orr.w	r3, r3, r2, lsr #24
 8000770:	ea4f 2202 	mov.w	r2, r2, lsl #8
 8000774:	ea45 1511 	orr.w	r5, r5, r1, lsr #4
 8000778:	ea45 6510 	orr.w	r5, r5, r0, lsr #24
 800077c:	ea4f 2600 	mov.w	r6, r0, lsl #8
 8000780:	f00e 4100 	and.w	r1, lr, #2147483648	; 0x80000000
 8000784:	429d      	cmp	r5, r3
 8000786:	bf08      	it	eq
 8000788:	4296      	cmpeq	r6, r2
 800078a:	f144 04fd 	adc.w	r4, r4, #253	; 0xfd
 800078e:	f504 7440 	add.w	r4, r4, #768	; 0x300
 8000792:	d202      	bcs.n	800079a <__aeabi_ddiv+0x6e>
 8000794:	085b      	lsrs	r3, r3, #1
 8000796:	ea4f 0232 	mov.w	r2, r2, rrx
 800079a:	1ab6      	subs	r6, r6, r2
 800079c:	eb65 0503 	sbc.w	r5, r5, r3
 80007a0:	085b      	lsrs	r3, r3, #1
 80007a2:	ea4f 0232 	mov.w	r2, r2, rrx
 80007a6:	f44f 1080 	mov.w	r0, #1048576	; 0x100000
 80007aa:	f44f 2c00 	mov.w	ip, #524288	; 0x80000
 80007ae:	ebb6 0e02 	subs.w	lr, r6, r2
 80007b2:	eb75 0e03 	sbcs.w	lr, r5, r3
 80007b6:	bf22      	ittt	cs
 80007b8:	1ab6      	subcs	r6, r6, r2
 80007ba:	4675      	movcs	r5, lr
 80007bc:	ea40 000c 	orrcs.w	r0, r0, ip
 80007c0:	085b      	lsrs	r3, r3, #1
 80007c2:	ea4f 0232 	mov.w	r2, r2, rrx
 80007c6:	ebb6 0e02 	subs.w	lr, r6, r2
 80007ca:	eb75 0e03 	sbcs.w	lr, r5, r3
 80007ce:	bf22      	ittt	cs
 80007d0:	1ab6      	subcs	r6, r6, r2
 80007d2:	4675      	movcs	r5, lr
 80007d4:	ea40 005c 	orrcs.w	r0, r0, ip, lsr #1
 80007d8:	085b      	lsrs	r3, r3, #1
 80007da:	ea4f 0232 	mov.w	r2, r2, rrx
 80007de:	ebb6 0e02 	subs.w	lr, r6, r2
 80007e2:	eb75 0e03 	sbcs.w	lr, r5, r3
 80007e6:	bf22      	ittt	cs
 80007e8:	1ab6      	subcs	r6, r6, r2
 80007ea:	4675      	movcs	r5, lr
 80007ec:	ea40 009c 	orrcs.w	r0, r0, ip, lsr #2
 80007f0:	085b      	lsrs	r3, r3, #1
 80007f2:	ea4f 0232 	mov.w	r2, r2, rrx
 80007f6:	ebb6 0e02 	subs.w	lr, r6, r2
 80007fa:	eb75 0e03 	sbcs.w	lr, r5, r3
 80007fe:	bf22      	ittt	cs
 8000800:	1ab6      	subcs	r6, r6, r2
 8000802:	4675      	movcs	r5, lr
 8000804:	ea40 00dc 	orrcs.w	r0, r0, ip, lsr #3
 8000808:	ea55 0e06 	orrs.w	lr, r5, r6
 800080c:	d018      	beq.n	8000840 <__aeabi_ddiv+0x114>
 800080e:	ea4f 1505 	mov.w	r5, r5, lsl #4
 8000812:	ea45 7516 	orr.w	r5, r5, r6, lsr #28
 8000816:	ea4f 1606 	mov.w	r6, r6, lsl #4
 800081a:	ea4f 03c3 	mov.w	r3, r3, lsl #3
 800081e:	ea43 7352 	orr.w	r3, r3, r2, lsr #29
 8000822:	ea4f 02c2 	mov.w	r2, r2, lsl #3
 8000826:	ea5f 1c1c 	movs.w	ip, ip, lsr #4
 800082a:	d1c0      	bne.n	80007ae <__aeabi_ddiv+0x82>
 800082c:	f411 1f80 	tst.w	r1, #1048576	; 0x100000
 8000830:	d10b      	bne.n	800084a <__aeabi_ddiv+0x11e>
 8000832:	ea41 0100 	orr.w	r1, r1, r0
 8000836:	f04f 0000 	mov.w	r0, #0
 800083a:	f04f 4c00 	mov.w	ip, #2147483648	; 0x80000000
 800083e:	e7b6      	b.n	80007ae <__aeabi_ddiv+0x82>
 8000840:	f411 1f80 	tst.w	r1, #1048576	; 0x100000
 8000844:	bf04      	itt	eq
 8000846:	4301      	orreq	r1, r0
 8000848:	2000      	moveq	r0, #0
 800084a:	f1b4 0cfd 	subs.w	ip, r4, #253	; 0xfd
 800084e:	bf88      	it	hi
 8000850:	f5bc 6fe0 	cmphi.w	ip, #1792	; 0x700
 8000854:	f63f aeaf 	bhi.w	80005b6 <__aeabi_dmul+0xde>
 8000858:	ebb5 0c03 	subs.w	ip, r5, r3
 800085c:	bf04      	itt	eq
 800085e:	ebb6 0c02 	subseq.w	ip, r6, r2
 8000862:	ea5f 0c50 	movseq.w	ip, r0, lsr #1
 8000866:	f150 0000 	adcs.w	r0, r0, #0
 800086a:	eb41 5104 	adc.w	r1, r1, r4, lsl #20
 800086e:	bd70      	pop	{r4, r5, r6, pc}
 8000870:	f00e 4e00 	and.w	lr, lr, #2147483648	; 0x80000000
 8000874:	ea4e 3111 	orr.w	r1, lr, r1, lsr #12
 8000878:	eb14 045c 	adds.w	r4, r4, ip, lsr #1
 800087c:	bfc2      	ittt	gt
 800087e:	ebd4 050c 	rsbsgt	r5, r4, ip
 8000882:	ea41 5104 	orrgt.w	r1, r1, r4, lsl #20
 8000886:	bd70      	popgt	{r4, r5, r6, pc}
 8000888:	f441 1180 	orr.w	r1, r1, #1048576	; 0x100000
 800088c:	f04f 0e00 	mov.w	lr, #0
 8000890:	3c01      	subs	r4, #1
 8000892:	e690      	b.n	80005b6 <__aeabi_dmul+0xde>
 8000894:	ea45 0e06 	orr.w	lr, r5, r6
 8000898:	e68d      	b.n	80005b6 <__aeabi_dmul+0xde>
 800089a:	ea0c 5513 	and.w	r5, ip, r3, lsr #20
 800089e:	ea94 0f0c 	teq	r4, ip
 80008a2:	bf08      	it	eq
 80008a4:	ea95 0f0c 	teqeq	r5, ip
 80008a8:	f43f af3b 	beq.w	8000722 <__aeabi_dmul+0x24a>
 80008ac:	ea94 0f0c 	teq	r4, ip
 80008b0:	d10a      	bne.n	80008c8 <__aeabi_ddiv+0x19c>
 80008b2:	ea50 3401 	orrs.w	r4, r0, r1, lsl #12
 80008b6:	f47f af34 	bne.w	8000722 <__aeabi_dmul+0x24a>
 80008ba:	ea95 0f0c 	teq	r5, ip
 80008be:	f47f af25 	bne.w	800070c <__aeabi_dmul+0x234>
 80008c2:	4610      	mov	r0, r2
 80008c4:	4619      	mov	r1, r3
 80008c6:	e72c      	b.n	8000722 <__aeabi_dmul+0x24a>
 80008c8:	ea95 0f0c 	teq	r5, ip
 80008cc:	d106      	bne.n	80008dc <__aeabi_ddiv+0x1b0>
 80008ce:	ea52 3503 	orrs.w	r5, r2, r3, lsl #12
 80008d2:	f43f aefd 	beq.w	80006d0 <__aeabi_dmul+0x1f8>
 80008d6:	4610      	mov	r0, r2
 80008d8:	4619      	mov	r1, r3
 80008da:	e722      	b.n	8000722 <__aeabi_dmul+0x24a>
 80008dc:	ea50 0641 	orrs.w	r6, r0, r1, lsl #1
 80008e0:	bf18      	it	ne
 80008e2:	ea52 0643 	orrsne.w	r6, r2, r3, lsl #1
 80008e6:	f47f aec5 	bne.w	8000674 <__aeabi_dmul+0x19c>
 80008ea:	ea50 0441 	orrs.w	r4, r0, r1, lsl #1
 80008ee:	f47f af0d 	bne.w	800070c <__aeabi_dmul+0x234>
 80008f2:	ea52 0543 	orrs.w	r5, r2, r3, lsl #1
 80008f6:	f47f aeeb 	bne.w	80006d0 <__aeabi_dmul+0x1f8>
 80008fa:	e712      	b.n	8000722 <__aeabi_dmul+0x24a>

080008fc <__gedf2>:
 80008fc:	f04f 3cff 	mov.w	ip, #4294967295	; 0xffffffff
 8000900:	e006      	b.n	8000910 <__cmpdf2+0x4>
 8000902:	bf00      	nop

08000904 <__ledf2>:
 8000904:	f04f 0c01 	mov.w	ip, #1
 8000908:	e002      	b.n	8000910 <__cmpdf2+0x4>
 800090a:	bf00      	nop

0800090c <__cmpdf2>:
 800090c:	f04f 0c01 	mov.w	ip, #1
 8000910:	f84d cd04 	str.w	ip, [sp, #-4]!
 8000914:	ea4f 0c41 	mov.w	ip, r1, lsl #1
 8000918:	ea7f 5c6c 	mvns.w	ip, ip, asr #21
 800091c:	ea4f 0c43 	mov.w	ip, r3, lsl #1
 8000920:	bf18      	it	ne
 8000922:	ea7f 5c6c 	mvnsne.w	ip, ip, asr #21
 8000926:	d01b      	beq.n	8000960 <__cmpdf2+0x54>
 8000928:	b001      	add	sp, #4
 800092a:	ea50 0c41 	orrs.w	ip, r0, r1, lsl #1
 800092e:	bf0c      	ite	eq
 8000930:	ea52 0c43 	orrseq.w	ip, r2, r3, lsl #1
 8000934:	ea91 0f03 	teqne	r1, r3
 8000938:	bf02      	ittt	eq
 800093a:	ea90 0f02 	teqeq	r0, r2
 800093e:	2000      	moveq	r0, #0
 8000940:	4770      	bxeq	lr
 8000942:	f110 0f00 	cmn.w	r0, #0
 8000946:	ea91 0f03 	teq	r1, r3
 800094a:	bf58      	it	pl
 800094c:	4299      	cmppl	r1, r3
 800094e:	bf08      	it	eq
 8000950:	4290      	cmpeq	r0, r2
 8000952:	bf2c      	ite	cs
 8000954:	17d8      	asrcs	r0, r3, #31
 8000956:	ea6f 70e3 	mvncc.w	r0, r3, asr #31
 800095a:	f040 0001 	orr.w	r0, r0, #1
 800095e:	4770      	bx	lr
 8000960:	ea4f 0c41 	mov.w	ip, r1, lsl #1
 8000964:	ea7f 5c6c 	mvns.w	ip, ip, asr #21
 8000968:	d102      	bne.n	8000970 <__cmpdf2+0x64>
 800096a:	ea50 3c01 	orrs.w	ip, r0, r1, lsl #12
 800096e:	d107      	bne.n	8000980 <__cmpdf2+0x74>
 8000970:	ea4f 0c43 	mov.w	ip, r3, lsl #1
 8000974:	ea7f 5c6c 	mvns.w	ip, ip, asr #21
 8000978:	d1d6      	bne.n	8000928 <__cmpdf2+0x1c>
 800097a:	ea52 3c03 	orrs.w	ip, r2, r3, lsl #12
 800097e:	d0d3      	beq.n	8000928 <__cmpdf2+0x1c>
 8000980:	f85d 0b04 	ldr.w	r0, [sp], #4
 8000984:	4770      	bx	lr
 8000986:	bf00      	nop

08000988 <__aeabi_cdrcmple>:
 8000988:	4684      	mov	ip, r0
 800098a:	4610      	mov	r0, r2
 800098c:	4662      	mov	r2, ip
 800098e:	468c      	mov	ip, r1
 8000990:	4619      	mov	r1, r3
 8000992:	4663      	mov	r3, ip
 8000994:	e000      	b.n	8000998 <__aeabi_cdcmpeq>
 8000996:	bf00      	nop

08000998 <__aeabi_cdcmpeq>:
 8000998:	b501      	push	{r0, lr}
 800099a:	f7ff ffb7 	bl	800090c <__cmpdf2>
 800099e:	2800      	cmp	r0, #0
 80009a0:	bf48      	it	mi
 80009a2:	f110 0f00 	cmnmi.w	r0, #0
 80009a6:	bd01      	pop	{r0, pc}

080009a8 <__aeabi_dcmpeq>:
 80009a8:	f84d ed08 	str.w	lr, [sp, #-8]!
 80009ac:	f7ff fff4 	bl	8000998 <__aeabi_cdcmpeq>
 80009b0:	bf0c      	ite	eq
 80009b2:	2001      	moveq	r0, #1
 80009b4:	2000      	movne	r0, #0
 80009b6:	f85d fb08 	ldr.w	pc, [sp], #8
 80009ba:	bf00      	nop

080009bc <__aeabi_dcmplt>:
 80009bc:	f84d ed08 	str.w	lr, [sp, #-8]!
 80009c0:	f7ff ffea 	bl	8000998 <__aeabi_cdcmpeq>
 80009c4:	bf34      	ite	cc
 80009c6:	2001      	movcc	r0, #1
 80009c8:	2000      	movcs	r0, #0
 80009ca:	f85d fb08 	ldr.w	pc, [sp], #8
 80009ce:	bf00      	nop

080009d0 <__aeabi_dcmple>:
 80009d0:	f84d ed08 	str.w	lr, [sp, #-8]!
 80009d4:	f7ff ffe0 	bl	8000998 <__aeabi_cdcmpeq>
 80009d8:	bf94      	ite	ls
 80009da:	2001      	movls	r0, #1
 80009dc:	2000      	movhi	r0, #0
 80009de:	f85d fb08 	ldr.w	pc, [sp], #8
 80009e2:	bf00      	nop

080009e4 <__aeabi_dcmpge>:
 80009e4:	f84d ed08 	str.w	lr, [sp, #-8]!
 80009e8:	f7ff ffce 	bl	8000988 <__aeabi_cdrcmple>
 80009ec:	bf94      	ite	ls
 80009ee:	2001      	movls	r0, #1
 80009f0:	2000      	movhi	r0, #0
 80009f2:	f85d fb08 	ldr.w	pc, [sp], #8
 80009f6:	bf00      	nop

080009f8 <__aeabi_dcmpgt>:
 80009f8:	f84d ed08 	str.w	lr, [sp, #-8]!
 80009fc:	f7ff ffc4 	bl	8000988 <__aeabi_cdrcmple>
 8000a00:	bf34      	ite	cc
 8000a02:	2001      	movcc	r0, #1
 8000a04:	2000      	movcs	r0, #0
 8000a06:	f85d fb08 	ldr.w	pc, [sp], #8
 8000a0a:	bf00      	nop

08000a0c <__aeabi_dcmpun>:
 8000a0c:	ea4f 0c41 	mov.w	ip, r1, lsl #1
 8000a10:	ea7f 5c6c 	mvns.w	ip, ip, asr #21
 8000a14:	d102      	bne.n	8000a1c <__aeabi_dcmpun+0x10>
 8000a16:	ea50 3c01 	orrs.w	ip, r0, r1, lsl #12
 8000a1a:	d10a      	bne.n	8000a32 <__aeabi_dcmpun+0x26>
 8000a1c:	ea4f 0c43 	mov.w	ip, r3, lsl #1
 8000a20:	ea7f 5c6c 	mvns.w	ip, ip, asr #21
 8000a24:	d102      	bne.n	8000a2c <__aeabi_dcmpun+0x20>
 8000a26:	ea52 3c03 	orrs.w	ip, r2, r3, lsl #12
 8000a2a:	d102      	bne.n	8000a32 <__aeabi_dcmpun+0x26>
 8000a2c:	f04f 0000 	mov.w	r0, #0
 8000a30:	4770      	bx	lr
 8000a32:	f04f 0001 	mov.w	r0, #1
 8000a36:	4770      	bx	lr

08000a38 <__aeabi_d2iz>:
 8000a38:	ea4f 0241 	mov.w	r2, r1, lsl #1
 8000a3c:	f512 1200 	adds.w	r2, r2, #2097152	; 0x200000
 8000a40:	d215      	bcs.n	8000a6e <__aeabi_d2iz+0x36>
 8000a42:	d511      	bpl.n	8000a68 <__aeabi_d2iz+0x30>
 8000a44:	f46f 7378 	mvn.w	r3, #992	; 0x3e0
 8000a48:	ebb3 5262 	subs.w	r2, r3, r2, asr #21
 8000a4c:	d912      	bls.n	8000a74 <__aeabi_d2iz+0x3c>
 8000a4e:	ea4f 23c1 	mov.w	r3, r1, lsl #11
 8000a52:	f043 4300 	orr.w	r3, r3, #2147483648	; 0x80000000
 8000a56:	ea43 5350 	orr.w	r3, r3, r0, lsr #21
 8000a5a:	f011 4f00 	tst.w	r1, #2147483648	; 0x80000000
 8000a5e:	fa23 f002 	lsr.w	r0, r3, r2
 8000a62:	bf18      	it	ne
 8000a64:	4240      	negne	r0, r0
 8000a66:	4770      	bx	lr
 8000a68:	f04f 0000 	mov.w	r0, #0
 8000a6c:	4770      	bx	lr
 8000a6e:	ea50 3001 	orrs.w	r0, r0, r1, lsl #12
 8000a72:	d105      	bne.n	8000a80 <__aeabi_d2iz+0x48>
 8000a74:	f011 4000 	ands.w	r0, r1, #2147483648	; 0x80000000
 8000a78:	bf08      	it	eq
 8000a7a:	f06f 4000 	mvneq.w	r0, #2147483648	; 0x80000000
 8000a7e:	4770      	bx	lr
 8000a80:	f04f 0000 	mov.w	r0, #0
 8000a84:	4770      	bx	lr
 8000a86:	bf00      	nop

08000a88 <__aeabi_d2uiz>:
 8000a88:	004a      	lsls	r2, r1, #1
 8000a8a:	d211      	bcs.n	8000ab0 <__aeabi_d2uiz+0x28>
 8000a8c:	f512 1200 	adds.w	r2, r2, #2097152	; 0x200000
 8000a90:	d211      	bcs.n	8000ab6 <__aeabi_d2uiz+0x2e>
 8000a92:	d50d      	bpl.n	8000ab0 <__aeabi_d2uiz+0x28>
 8000a94:	f46f 7378 	mvn.w	r3, #992	; 0x3e0
 8000a98:	ebb3 5262 	subs.w	r2, r3, r2, asr #21
 8000a9c:	d40e      	bmi.n	8000abc <__aeabi_d2uiz+0x34>
 8000a9e:	ea4f 23c1 	mov.w	r3, r1, lsl #11
 8000aa2:	f043 4300 	orr.w	r3, r3, #2147483648	; 0x80000000
 8000aa6:	ea43 5350 	orr.w	r3, r3, r0, lsr #21
 8000aaa:	fa23 f002 	lsr.w	r0, r3, r2
 8000aae:	4770      	bx	lr
 8000ab0:	f04f 0000 	mov.w	r0, #0
 8000ab4:	4770      	bx	lr
 8000ab6:	ea50 3001 	orrs.w	r0, r0, r1, lsl #12
 8000aba:	d102      	bne.n	8000ac2 <__aeabi_d2uiz+0x3a>
 8000abc:	f04f 30ff 	mov.w	r0, #4294967295	; 0xffffffff
 8000ac0:	4770      	bx	lr
 8000ac2:	f04f 0000 	mov.w	r0, #0
 8000ac6:	4770      	bx	lr

08000ac8 <__aeabi_d2f>:
 8000ac8:	ea4f 0241 	mov.w	r2, r1, lsl #1
 8000acc:	f1b2 43e0 	subs.w	r3, r2, #1879048192	; 0x70000000
 8000ad0:	bf24      	itt	cs
 8000ad2:	f5b3 1c00 	subscs.w	ip, r3, #2097152	; 0x200000
 8000ad6:	f1dc 5cfe 	rsbscs	ip, ip, #532676608	; 0x1fc00000
 8000ada:	d90d      	bls.n	8000af8 <__aeabi_d2f+0x30>
 8000adc:	f001 4c00 	and.w	ip, r1, #2147483648	; 0x80000000
 8000ae0:	ea4f 02c0 	mov.w	r2, r0, lsl #3
 8000ae4:	ea4c 7050 	orr.w	r0, ip, r0, lsr #29
 8000ae8:	f1b2 4f00 	cmp.w	r2, #2147483648	; 0x80000000
 8000aec:	eb40 0083 	adc.w	r0, r0, r3, lsl #2
 8000af0:	bf08      	it	eq
 8000af2:	f020 0001 	biceq.w	r0, r0, #1
 8000af6:	4770      	bx	lr
 8000af8:	f011 4f80 	tst.w	r1, #1073741824	; 0x40000000
 8000afc:	d121      	bne.n	8000b42 <__aeabi_d2f+0x7a>
 8000afe:	f113 7238 	adds.w	r2, r3, #48234496	; 0x2e00000
 8000b02:	bfbc      	itt	lt
 8000b04:	f001 4000 	andlt.w	r0, r1, #2147483648	; 0x80000000
 8000b08:	4770      	bxlt	lr
 8000b0a:	f441 1180 	orr.w	r1, r1, #1048576	; 0x100000
 8000b0e:	ea4f 5252 	mov.w	r2, r2, lsr #21
 8000b12:	f1c2 0218 	rsb	r2, r2, #24
 8000b16:	f1c2 0c20 	rsb	ip, r2, #32
 8000b1a:	fa10 f30c 	lsls.w	r3, r0, ip
 8000b1e:	fa20 f002 	lsr.w	r0, r0, r2
 8000b22:	bf18      	it	ne
 8000b24:	f040 0001 	orrne.w	r0, r0, #1
 8000b28:	ea4f 23c1 	mov.w	r3, r1, lsl #11
 8000b2c:	ea4f 23d3 	mov.w	r3, r3, lsr #11
 8000b30:	fa03 fc0c 	lsl.w	ip, r3, ip
 8000b34:	ea40 000c 	orr.w	r0, r0, ip
 8000b38:	fa23 f302 	lsr.w	r3, r3, r2
 8000b3c:	ea4f 0343 	mov.w	r3, r3, lsl #1
 8000b40:	e7cc      	b.n	8000adc <__aeabi_d2f+0x14>
 8000b42:	ea7f 5362 	mvns.w	r3, r2, asr #21
 8000b46:	d107      	bne.n	8000b58 <__aeabi_d2f+0x90>
 8000b48:	ea50 3301 	orrs.w	r3, r0, r1, lsl #12
 8000b4c:	bf1e      	ittt	ne
 8000b4e:	f04f 40fe 	movne.w	r0, #2130706432	; 0x7f000000
 8000b52:	f440 0040 	orrne.w	r0, r0, #12582912	; 0xc00000
 8000b56:	4770      	bxne	lr
 8000b58:	f001 4000 	and.w	r0, r1, #2147483648	; 0x80000000
 8000b5c:	f040 40fe 	orr.w	r0, r0, #2130706432	; 0x7f000000
 8000b60:	f440 0000 	orr.w	r0, r0, #8388608	; 0x800000
 8000b64:	4770      	bx	lr
 8000b66:	bf00      	nop

08000b68 <interpreteComando>:
 8000b68:	e92d 41f0 	stmdb	sp!, {r4, r5, r6, r7, r8, lr}
 8000b6c:	4a94      	ldr	r2, [pc, #592]	; (8000dc0 <interpreteComando+0x258>)
 8000b6e:	7813      	ldrb	r3, [r2, #0]
 8000b70:	3b44      	subs	r3, #68	; 0x44
 8000b72:	2b33      	cmp	r3, #51	; 0x33
 8000b74:	d87b      	bhi.n	8000c6e <interpreteComando+0x106>
 8000b76:	e8df f003 	tbb	[pc, r3]
 8000b7a:	7a67      	.short	0x7a67
 8000b7c:	567a7a7a 	.word	0x567a7a7a
 8000b80:	7a7a7a7a 	.word	0x7a7a7a7a
 8000b84:	7a457a7a 	.word	0x7a457a7a
 8000b88:	7a7a7a7a 	.word	0x7a7a7a7a
 8000b8c:	7a7a1a7a 	.word	0x7a7a1a7a
 8000b90:	7a7a7a7a 	.word	0x7a7a7a7a
 8000b94:	7a7a7a7a 	.word	0x7a7a7a7a
 8000b98:	7a677a7a 	.word	0x7a677a7a
 8000b9c:	567a7a7a 	.word	0x567a7a7a
 8000ba0:	7a7a7a7a 	.word	0x7a7a7a7a
 8000ba4:	7a457a7a 	.word	0x7a457a7a
 8000ba8:	7a7a7a7a 	.word	0x7a7a7a7a
 8000bac:	1a7a      	.short	0x1a7a
 8000bae:	7853      	ldrb	r3, [r2, #1]
 8000bb0:	2b31      	cmp	r3, #49	; 0x31
 8000bb2:	d05a      	beq.n	8000c6a <interpreteComando+0x102>
 8000bb4:	2b32      	cmp	r3, #50	; 0x32
 8000bb6:	d15a      	bne.n	8000c6e <interpreteComando+0x106>
 8000bb8:	7893      	ldrb	r3, [r2, #2]
 8000bba:	2b00      	cmp	r3, #0
 8000bbc:	d057      	beq.n	8000c6e <interpreteComando+0x106>
 8000bbe:	2b2b      	cmp	r3, #43	; 0x2b
 8000bc0:	f000 80bc 	beq.w	8000d3c <interpreteComando+0x1d4>
 8000bc4:	2b2d      	cmp	r3, #45	; 0x2d
 8000bc6:	f000 8129 	beq.w	8000e1c <interpreteComando+0x2b4>
 8000bca:	2b30      	cmp	r3, #48	; 0x30
 8000bcc:	d14f      	bne.n	8000c6e <interpreteComando+0x106>
 8000bce:	2600      	movs	r6, #0
 8000bd0:	2700      	movs	r7, #0
 8000bd2:	4c7c      	ldr	r4, [pc, #496]	; (8000dc4 <interpreteComando+0x25c>)
 8000bd4:	2201      	movs	r2, #1
 8000bd6:	f44f 7100 	mov.w	r1, #512	; 0x200
 8000bda:	487b      	ldr	r0, [pc, #492]	; (8000dc8 <interpreteComando+0x260>)
 8000bdc:	e9c4 6700 	strd	r6, r7, [r4]
 8000be0:	f001 fa52 	bl	8002088 <HAL_GPIO_WritePin>
 8000be4:	2201      	movs	r2, #1
 8000be6:	f44f 6100 	mov.w	r1, #2048	; 0x800
 8000bea:	4877      	ldr	r0, [pc, #476]	; (8000dc8 <interpreteComando+0x260>)
 8000bec:	f001 fa4c 	bl	8002088 <HAL_GPIO_WritePin>
 8000bf0:	e9d4 2300 	ldrd	r2, r3, [r4]
 8000bf4:	2400      	movs	r4, #0
 8000bf6:	4975      	ldr	r1, [pc, #468]	; (8000dcc <interpreteComando+0x264>)
 8000bf8:	4875      	ldr	r0, [pc, #468]	; (8000dd0 <interpreteComando+0x268>)
 8000bfa:	600c      	str	r4, [r1, #0]
 8000bfc:	e8bd 41f0 	ldmia.w	sp!, {r4, r5, r6, r7, r8, lr}
 8000c00:	f003 bc12 	b.w	8004428 <iprintf>
 8000c04:	7853      	ldrb	r3, [r2, #1]
 8000c06:	2b31      	cmp	r3, #49	; 0x31
 8000c08:	d04b      	beq.n	8000ca2 <interpreteComando+0x13a>
 8000c0a:	2b32      	cmp	r3, #50	; 0x32
 8000c0c:	d155      	bne.n	8000cba <interpreteComando+0x152>
 8000c0e:	4871      	ldr	r0, [pc, #452]	; (8000dd4 <interpreteComando+0x26c>)
 8000c10:	f002 fda4 	bl	800375c <atof>
 8000c14:	f7ff ff58 	bl	8000ac8 <__aeabi_d2f>
 8000c18:	e8bd 41f0 	ldmia.w	sp!, {r4, r5, r6, r7, r8, lr}
 8000c1c:	4b6e      	ldr	r3, [pc, #440]	; (8000dd8 <interpreteComando+0x270>)
 8000c1e:	6018      	str	r0, [r3, #0]
 8000c20:	486e      	ldr	r0, [pc, #440]	; (8000ddc <interpreteComando+0x274>)
 8000c22:	f003 bc75 	b.w	8004510 <puts>
 8000c26:	7853      	ldrb	r3, [r2, #1]
 8000c28:	2b31      	cmp	r3, #49	; 0x31
 8000c2a:	d022      	beq.n	8000c72 <interpreteComando+0x10a>
 8000c2c:	2b32      	cmp	r3, #50	; 0x32
 8000c2e:	d144      	bne.n	8000cba <interpreteComando+0x152>
 8000c30:	4868      	ldr	r0, [pc, #416]	; (8000dd4 <interpreteComando+0x26c>)
 8000c32:	f002 fd93 	bl	800375c <atof>
 8000c36:	f7ff ff47 	bl	8000ac8 <__aeabi_d2f>
 8000c3a:	e8bd 41f0 	ldmia.w	sp!, {r4, r5, r6, r7, r8, lr}
 8000c3e:	4b68      	ldr	r3, [pc, #416]	; (8000de0 <interpreteComando+0x278>)
 8000c40:	6018      	str	r0, [r3, #0]
 8000c42:	4866      	ldr	r0, [pc, #408]	; (8000ddc <interpreteComando+0x274>)
 8000c44:	f003 bc64 	b.w	8004510 <puts>
 8000c48:	7853      	ldrb	r3, [r2, #1]
 8000c4a:	2b31      	cmp	r3, #49	; 0x31
 8000c4c:	d01d      	beq.n	8000c8a <interpreteComando+0x122>
 8000c4e:	2b32      	cmp	r3, #50	; 0x32
 8000c50:	d133      	bne.n	8000cba <interpreteComando+0x152>
 8000c52:	4860      	ldr	r0, [pc, #384]	; (8000dd4 <interpreteComando+0x26c>)
 8000c54:	f002 fd82 	bl	800375c <atof>
 8000c58:	f7ff ff36 	bl	8000ac8 <__aeabi_d2f>
 8000c5c:	e8bd 41f0 	ldmia.w	sp!, {r4, r5, r6, r7, r8, lr}
 8000c60:	4b60      	ldr	r3, [pc, #384]	; (8000de4 <interpreteComando+0x27c>)
 8000c62:	6018      	str	r0, [r3, #0]
 8000c64:	485d      	ldr	r0, [pc, #372]	; (8000ddc <interpreteComando+0x274>)
 8000c66:	f003 bc53 	b.w	8004510 <puts>
 8000c6a:	7893      	ldrb	r3, [r2, #2]
 8000c6c:	bb53      	cbnz	r3, 8000cc4 <interpreteComando+0x15c>
 8000c6e:	e8bd 81f0 	ldmia.w	sp!, {r4, r5, r6, r7, r8, pc}
 8000c72:	4858      	ldr	r0, [pc, #352]	; (8000dd4 <interpreteComando+0x26c>)
 8000c74:	f002 fd72 	bl	800375c <atof>
 8000c78:	f7ff ff26 	bl	8000ac8 <__aeabi_d2f>
 8000c7c:	e8bd 41f0 	ldmia.w	sp!, {r4, r5, r6, r7, r8, lr}
 8000c80:	4b59      	ldr	r3, [pc, #356]	; (8000de8 <interpreteComando+0x280>)
 8000c82:	6018      	str	r0, [r3, #0]
 8000c84:	4855      	ldr	r0, [pc, #340]	; (8000ddc <interpreteComando+0x274>)
 8000c86:	f003 bc43 	b.w	8004510 <puts>
 8000c8a:	4852      	ldr	r0, [pc, #328]	; (8000dd4 <interpreteComando+0x26c>)
 8000c8c:	f002 fd66 	bl	800375c <atof>
 8000c90:	f7ff ff1a 	bl	8000ac8 <__aeabi_d2f>
 8000c94:	e8bd 41f0 	ldmia.w	sp!, {r4, r5, r6, r7, r8, lr}
 8000c98:	4b54      	ldr	r3, [pc, #336]	; (8000dec <interpreteComando+0x284>)
 8000c9a:	6018      	str	r0, [r3, #0]
 8000c9c:	484f      	ldr	r0, [pc, #316]	; (8000ddc <interpreteComando+0x274>)
 8000c9e:	f003 bc37 	b.w	8004510 <puts>
 8000ca2:	484c      	ldr	r0, [pc, #304]	; (8000dd4 <interpreteComando+0x26c>)
 8000ca4:	f002 fd5a 	bl	800375c <atof>
 8000ca8:	f7ff ff0e 	bl	8000ac8 <__aeabi_d2f>
 8000cac:	e8bd 41f0 	ldmia.w	sp!, {r4, r5, r6, r7, r8, lr}
 8000cb0:	4b4f      	ldr	r3, [pc, #316]	; (8000df0 <interpreteComando+0x288>)
 8000cb2:	6018      	str	r0, [r3, #0]
 8000cb4:	4849      	ldr	r0, [pc, #292]	; (8000ddc <interpreteComando+0x274>)
 8000cb6:	f003 bc2b 	b.w	8004510 <puts>
 8000cba:	484e      	ldr	r0, [pc, #312]	; (8000df4 <interpreteComando+0x28c>)
 8000cbc:	e8bd 41f0 	ldmia.w	sp!, {r4, r5, r6, r7, r8, lr}
 8000cc0:	f003 bc26 	b.w	8004510 <puts>
 8000cc4:	2b2b      	cmp	r3, #43	; 0x2b
 8000cc6:	d01c      	beq.n	8000d02 <interpreteComando+0x19a>
 8000cc8:	2b2d      	cmp	r3, #45	; 0x2d
 8000cca:	d054      	beq.n	8000d76 <interpreteComando+0x20e>
 8000ccc:	2b30      	cmp	r3, #48	; 0x30
 8000cce:	d1ce      	bne.n	8000c6e <interpreteComando+0x106>
 8000cd0:	2600      	movs	r6, #0
 8000cd2:	2700      	movs	r7, #0
 8000cd4:	4c48      	ldr	r4, [pc, #288]	; (8000df8 <interpreteComando+0x290>)
 8000cd6:	2201      	movs	r2, #1
 8000cd8:	2110      	movs	r1, #16
 8000cda:	483b      	ldr	r0, [pc, #236]	; (8000dc8 <interpreteComando+0x260>)
 8000cdc:	e9c4 6700 	strd	r6, r7, [r4]
 8000ce0:	f001 f9d2 	bl	8002088 <HAL_GPIO_WritePin>
 8000ce4:	2201      	movs	r2, #1
 8000ce6:	2120      	movs	r1, #32
 8000ce8:	4837      	ldr	r0, [pc, #220]	; (8000dc8 <interpreteComando+0x260>)
 8000cea:	f001 f9cd 	bl	8002088 <HAL_GPIO_WritePin>
 8000cee:	e9d4 2300 	ldrd	r2, r3, [r4]
 8000cf2:	2401      	movs	r4, #1
 8000cf4:	4941      	ldr	r1, [pc, #260]	; (8000dfc <interpreteComando+0x294>)
 8000cf6:	4842      	ldr	r0, [pc, #264]	; (8000e00 <interpreteComando+0x298>)
 8000cf8:	600c      	str	r4, [r1, #0]
 8000cfa:	e8bd 41f0 	ldmia.w	sp!, {r4, r5, r6, r7, r8, lr}
 8000cfe:	f003 bb93 	b.w	8004428 <iprintf>
 8000d02:	2100      	movs	r1, #0
 8000d04:	78d3      	ldrb	r3, [r2, #3]
 8000d06:	4a3d      	ldr	r2, [pc, #244]	; (8000dfc <interpreteComando+0x294>)
 8000d08:	6011      	str	r1, [r2, #0]
 8000d0a:	2b00      	cmp	r3, #0
 8000d0c:	d0af      	beq.n	8000c6e <interpreteComando+0x106>
 8000d0e:	483d      	ldr	r0, [pc, #244]	; (8000e04 <interpreteComando+0x29c>)
 8000d10:	f002 fd24 	bl	800375c <atof>
 8000d14:	2200      	movs	r2, #0
 8000d16:	4b3c      	ldr	r3, [pc, #240]	; (8000e08 <interpreteComando+0x2a0>)
 8000d18:	4604      	mov	r4, r0
 8000d1a:	460d      	mov	r5, r1
 8000d1c:	f7ff fe4e 	bl	80009bc <__aeabi_dcmplt>
 8000d20:	b908      	cbnz	r0, 8000d26 <interpreteComando+0x1be>
 8000d22:	2400      	movs	r4, #0
 8000d24:	4d39      	ldr	r5, [pc, #228]	; (8000e0c <interpreteComando+0x2a4>)
 8000d26:	4834      	ldr	r0, [pc, #208]	; (8000df8 <interpreteComando+0x290>)
 8000d28:	4622      	mov	r2, r4
 8000d2a:	e9c0 4500 	strd	r4, r5, [r0]
 8000d2e:	462b      	mov	r3, r5
 8000d30:	e8bd 41f0 	ldmia.w	sp!, {r4, r5, r6, r7, r8, lr}
 8000d34:	4936      	ldr	r1, [pc, #216]	; (8000e10 <interpreteComando+0x2a8>)
 8000d36:	4837      	ldr	r0, [pc, #220]	; (8000e14 <interpreteComando+0x2ac>)
 8000d38:	f003 bb76 	b.w	8004428 <iprintf>
 8000d3c:	2100      	movs	r1, #0
 8000d3e:	78d3      	ldrb	r3, [r2, #3]
 8000d40:	4a22      	ldr	r2, [pc, #136]	; (8000dcc <interpreteComando+0x264>)
 8000d42:	6011      	str	r1, [r2, #0]
 8000d44:	2b00      	cmp	r3, #0
 8000d46:	d092      	beq.n	8000c6e <interpreteComando+0x106>
 8000d48:	482e      	ldr	r0, [pc, #184]	; (8000e04 <interpreteComando+0x29c>)
 8000d4a:	f002 fd07 	bl	800375c <atof>
 8000d4e:	2200      	movs	r2, #0
 8000d50:	4b2d      	ldr	r3, [pc, #180]	; (8000e08 <interpreteComando+0x2a0>)
 8000d52:	4604      	mov	r4, r0
 8000d54:	460d      	mov	r5, r1
 8000d56:	f7ff fe31 	bl	80009bc <__aeabi_dcmplt>
 8000d5a:	b908      	cbnz	r0, 8000d60 <interpreteComando+0x1f8>
 8000d5c:	2400      	movs	r4, #0
 8000d5e:	4d2b      	ldr	r5, [pc, #172]	; (8000e0c <interpreteComando+0x2a4>)
 8000d60:	4818      	ldr	r0, [pc, #96]	; (8000dc4 <interpreteComando+0x25c>)
 8000d62:	4622      	mov	r2, r4
 8000d64:	e9c0 4500 	strd	r4, r5, [r0]
 8000d68:	462b      	mov	r3, r5
 8000d6a:	e8bd 41f0 	ldmia.w	sp!, {r4, r5, r6, r7, r8, lr}
 8000d6e:	4928      	ldr	r1, [pc, #160]	; (8000e10 <interpreteComando+0x2a8>)
 8000d70:	4829      	ldr	r0, [pc, #164]	; (8000e18 <interpreteComando+0x2b0>)
 8000d72:	f003 bb59 	b.w	8004428 <iprintf>
 8000d76:	2100      	movs	r1, #0
 8000d78:	78d3      	ldrb	r3, [r2, #3]
 8000d7a:	4a20      	ldr	r2, [pc, #128]	; (8000dfc <interpreteComando+0x294>)
 8000d7c:	6011      	str	r1, [r2, #0]
 8000d7e:	2b00      	cmp	r3, #0
 8000d80:	f43f af75 	beq.w	8000c6e <interpreteComando+0x106>
 8000d84:	481f      	ldr	r0, [pc, #124]	; (8000e04 <interpreteComando+0x29c>)
 8000d86:	f002 fce9 	bl	800375c <atof>
 8000d8a:	4605      	mov	r5, r0
 8000d8c:	460c      	mov	r4, r1
 8000d8e:	4628      	mov	r0, r5
 8000d90:	4621      	mov	r1, r4
 8000d92:	2200      	movs	r2, #0
 8000d94:	4b1c      	ldr	r3, [pc, #112]	; (8000e08 <interpreteComando+0x2a0>)
 8000d96:	f7ff fe11 	bl	80009bc <__aeabi_dcmplt>
 8000d9a:	2800      	cmp	r0, #0
 8000d9c:	d062      	beq.n	8000e64 <interpreteComando+0x2fc>
 8000d9e:	f104 4400 	add.w	r4, r4, #2147483648	; 0x80000000
 8000da2:	4621      	mov	r1, r4
 8000da4:	4628      	mov	r0, r5
 8000da6:	4627      	mov	r7, r4
 8000da8:	462c      	mov	r4, r5
 8000daa:	460d      	mov	r5, r1
 8000dac:	4912      	ldr	r1, [pc, #72]	; (8000df8 <interpreteComando+0x290>)
 8000dae:	4602      	mov	r2, r0
 8000db0:	463b      	mov	r3, r7
 8000db2:	e9c1 4500 	strd	r4, r5, [r1]
 8000db6:	e8bd 41f0 	ldmia.w	sp!, {r4, r5, r6, r7, r8, lr}
 8000dba:	4811      	ldr	r0, [pc, #68]	; (8000e00 <interpreteComando+0x298>)
 8000dbc:	f003 bb34 	b.w	8004428 <iprintf>
 8000dc0:	20000378 	.word	0x20000378
 8000dc4:	200002e0 	.word	0x200002e0
 8000dc8:	40010800 	.word	0x40010800
 8000dcc:	20000014 	.word	0x20000014
 8000dd0:	08007ed4 	.word	0x08007ed4
 8000dd4:	2000037a 	.word	0x2000037a
 8000dd8:	20000228 	.word	0x20000228
 8000ddc:	08007f00 	.word	0x08007f00
 8000de0:	20000220 	.word	0x20000220
 8000de4:	20000218 	.word	0x20000218
 8000de8:	2000021c 	.word	0x2000021c
 8000dec:	20000214 	.word	0x20000214
 8000df0:	20000224 	.word	0x20000224
 8000df4:	08007f04 	.word	0x08007f04
 8000df8:	200002d8 	.word	0x200002d8
 8000dfc:	20000010 	.word	0x20000010
 8000e00:	08007e78 	.word	0x08007e78
 8000e04:	2000037b 	.word	0x2000037b
 8000e08:	40418000 	.word	0x40418000
 8000e0c:	40400000 	.word	0x40400000
 8000e10:	08007e48 	.word	0x08007e48
 8000e14:	08007e4c 	.word	0x08007e4c
 8000e18:	08007ea4 	.word	0x08007ea4
 8000e1c:	2100      	movs	r1, #0
 8000e1e:	78d3      	ldrb	r3, [r2, #3]
 8000e20:	4a13      	ldr	r2, [pc, #76]	; (8000e70 <interpreteComando+0x308>)
 8000e22:	6011      	str	r1, [r2, #0]
 8000e24:	2b00      	cmp	r3, #0
 8000e26:	f43f af22 	beq.w	8000c6e <interpreteComando+0x106>
 8000e2a:	4812      	ldr	r0, [pc, #72]	; (8000e74 <interpreteComando+0x30c>)
 8000e2c:	f002 fc96 	bl	800375c <atof>
 8000e30:	4605      	mov	r5, r0
 8000e32:	460c      	mov	r4, r1
 8000e34:	4628      	mov	r0, r5
 8000e36:	4621      	mov	r1, r4
 8000e38:	2200      	movs	r2, #0
 8000e3a:	4b0f      	ldr	r3, [pc, #60]	; (8000e78 <interpreteComando+0x310>)
 8000e3c:	f7ff fdbe 	bl	80009bc <__aeabi_dcmplt>
 8000e40:	b198      	cbz	r0, 8000e6a <interpreteComando+0x302>
 8000e42:	f104 4400 	add.w	r4, r4, #2147483648	; 0x80000000
 8000e46:	4621      	mov	r1, r4
 8000e48:	4628      	mov	r0, r5
 8000e4a:	4627      	mov	r7, r4
 8000e4c:	462c      	mov	r4, r5
 8000e4e:	460d      	mov	r5, r1
 8000e50:	490a      	ldr	r1, [pc, #40]	; (8000e7c <interpreteComando+0x314>)
 8000e52:	4602      	mov	r2, r0
 8000e54:	463b      	mov	r3, r7
 8000e56:	e9c1 4500 	strd	r4, r5, [r1]
 8000e5a:	e8bd 41f0 	ldmia.w	sp!, {r4, r5, r6, r7, r8, lr}
 8000e5e:	4808      	ldr	r0, [pc, #32]	; (8000e80 <interpreteComando+0x318>)
 8000e60:	f003 bae2 	b.w	8004428 <iprintf>
 8000e64:	4605      	mov	r5, r0
 8000e66:	4c07      	ldr	r4, [pc, #28]	; (8000e84 <interpreteComando+0x31c>)
 8000e68:	e79b      	b.n	8000da2 <interpreteComando+0x23a>
 8000e6a:	4605      	mov	r5, r0
 8000e6c:	4c05      	ldr	r4, [pc, #20]	; (8000e84 <interpreteComando+0x31c>)
 8000e6e:	e7ea      	b.n	8000e46 <interpreteComando+0x2de>
 8000e70:	20000014 	.word	0x20000014
 8000e74:	2000037b 	.word	0x2000037b
 8000e78:	40418000 	.word	0x40418000
 8000e7c:	200002e0 	.word	0x200002e0
 8000e80:	08007ed4 	.word	0x08007ed4
 8000e84:	c0400000 	.word	0xc0400000

08000e88 <HAL_TIM_PeriodElapsedCallback>:
 8000e88:	4a41      	ldr	r2, [pc, #260]	; (8000f90 <HAL_TIM_PeriodElapsedCallback+0x108>)
 8000e8a:	6803      	ldr	r3, [r0, #0]
 8000e8c:	4293      	cmp	r3, r2
 8000e8e:	d017      	beq.n	8000ec0 <HAL_TIM_PeriodElapsedCallback+0x38>
 8000e90:	4a40      	ldr	r2, [pc, #256]	; (8000f94 <HAL_TIM_PeriodElapsedCallback+0x10c>)
 8000e92:	4293      	cmp	r3, r2
 8000e94:	d004      	beq.n	8000ea0 <HAL_TIM_PeriodElapsedCallback+0x18>
 8000e96:	4a40      	ldr	r2, [pc, #256]	; (8000f98 <HAL_TIM_PeriodElapsedCallback+0x110>)
 8000e98:	4293      	cmp	r3, r2
 8000e9a:	f000 81ce 	beq.w	800123a <HAL_TIM_PeriodElapsedCallback+0x3b2>
 8000e9e:	4770      	bx	lr
 8000ea0:	4b3e      	ldr	r3, [pc, #248]	; (8000f9c <HAL_TIM_PeriodElapsedCallback+0x114>)
 8000ea2:	68c2      	ldr	r2, [r0, #12]
 8000ea4:	681b      	ldr	r3, [r3, #0]
 8000ea6:	493e      	ldr	r1, [pc, #248]	; (8000fa0 <HAL_TIM_PeriodElapsedCallback+0x118>)
 8000ea8:	6a58      	ldr	r0, [r3, #36]	; 0x24
 8000eaa:	3201      	adds	r2, #1
 8000eac:	ebb0 0f52 	cmp.w	r0, r2, lsr #1
 8000eb0:	680b      	ldr	r3, [r1, #0]
 8000eb2:	f240 81bd 	bls.w	8001230 <HAL_TIM_PeriodElapsedCallback+0x3a8>
 8000eb6:	3b01      	subs	r3, #1
 8000eb8:	483a      	ldr	r0, [pc, #232]	; (8000fa4 <HAL_TIM_PeriodElapsedCallback+0x11c>)
 8000eba:	600b      	str	r3, [r1, #0]
 8000ebc:	f003 bb28 	b.w	8004510 <puts>
 8000ec0:	e92d 4ff0 	stmdb	sp!, {r4, r5, r6, r7, r8, r9, sl, fp, lr}
 8000ec4:	f64f 5ae8 	movw	sl, #65000	; 0xfde8
 8000ec8:	4b34      	ldr	r3, [pc, #208]	; (8000f9c <HAL_TIM_PeriodElapsedCallback+0x114>)
 8000eca:	4a35      	ldr	r2, [pc, #212]	; (8000fa0 <HAL_TIM_PeriodElapsedCallback+0x118>)
 8000ecc:	681b      	ldr	r3, [r3, #0]
 8000ece:	6815      	ldr	r5, [r2, #0]
 8000ed0:	6a5b      	ldr	r3, [r3, #36]	; 0x24
 8000ed2:	f8df 8100 	ldr.w	r8, [pc, #256]	; 8000fd4 <HAL_TIM_PeriodElapsedCallback+0x14c>
 8000ed6:	fb0a 3505 	mla	r5, sl, r5, r3
 8000eda:	4b33      	ldr	r3, [pc, #204]	; (8000fa8 <HAL_TIM_PeriodElapsedCallback+0x120>)
 8000edc:	4c33      	ldr	r4, [pc, #204]	; (8000fac <HAL_TIM_PeriodElapsedCallback+0x124>)
 8000ede:	601d      	str	r5, [r3, #0]
 8000ee0:	e9d8 2300 	ldrd	r2, r3, [r8]
 8000ee4:	4616      	mov	r6, r2
 8000ee6:	461f      	mov	r7, r3
 8000ee8:	6820      	ldr	r0, [r4, #0]
 8000eea:	b089      	sub	sp, #36	; 0x24
 8000eec:	1a28      	subs	r0, r5, r0
 8000eee:	f7ff fa89 	bl	8000404 <__aeabi_i2d>
 8000ef2:	4632      	mov	r2, r6
 8000ef4:	463b      	mov	r3, r7
 8000ef6:	e9cd 6700 	strd	r6, r7, [sp]
 8000efa:	f7ff fc17 	bl	800072c <__aeabi_ddiv>
 8000efe:	a322      	add	r3, pc, #136	; (adr r3, 8000f88 <HAL_TIM_PeriodElapsedCallback+0x100>)
 8000f00:	e9d3 2300 	ldrd	r2, r3, [r3]
 8000f04:	4e2a      	ldr	r6, [pc, #168]	; (8000fb0 <HAL_TIM_PeriodElapsedCallback+0x128>)
 8000f06:	f8df 90d0 	ldr.w	r9, [pc, #208]	; 8000fd8 <HAL_TIM_PeriodElapsedCallback+0x150>
 8000f0a:	e9c6 0100 	strd	r0, r1, [r6]
 8000f0e:	f7ff fc0d 	bl	800072c <__aeabi_ddiv>
 8000f12:	2200      	movs	r2, #0
 8000f14:	4b27      	ldr	r3, [pc, #156]	; (8000fb4 <HAL_TIM_PeriodElapsedCallback+0x12c>)
 8000f16:	f7ff fadf 	bl	80004d8 <__aeabi_dmul>
 8000f1a:	4606      	mov	r6, r0
 8000f1c:	460f      	mov	r7, r1
 8000f1e:	4b26      	ldr	r3, [pc, #152]	; (8000fb8 <HAL_TIM_PeriodElapsedCallback+0x130>)
 8000f20:	4a26      	ldr	r2, [pc, #152]	; (8000fbc <HAL_TIM_PeriodElapsedCallback+0x134>)
 8000f22:	681b      	ldr	r3, [r3, #0]
 8000f24:	6812      	ldr	r2, [r2, #0]
 8000f26:	6a5b      	ldr	r3, [r3, #36]	; 0x24
 8000f28:	6025      	str	r5, [r4, #0]
 8000f2a:	fb0a 3402 	mla	r4, sl, r2, r3
 8000f2e:	f8d9 0000 	ldr.w	r0, [r9]
 8000f32:	4a23      	ldr	r2, [pc, #140]	; (8000fc0 <HAL_TIM_PeriodElapsedCallback+0x138>)
 8000f34:	4b23      	ldr	r3, [pc, #140]	; (8000fc4 <HAL_TIM_PeriodElapsedCallback+0x13c>)
 8000f36:	6014      	str	r4, [r2, #0]
 8000f38:	e9c3 6700 	strd	r6, r7, [r3]
 8000f3c:	1a20      	subs	r0, r4, r0
 8000f3e:	f7ff fa61 	bl	8000404 <__aeabi_i2d>
 8000f42:	e9dd 2300 	ldrd	r2, r3, [sp]
 8000f46:	f7ff fbf1 	bl	800072c <__aeabi_ddiv>
 8000f4a:	a30f      	add	r3, pc, #60	; (adr r3, 8000f88 <HAL_TIM_PeriodElapsedCallback+0x100>)
 8000f4c:	e9d3 2300 	ldrd	r2, r3, [r3]
 8000f50:	4d1d      	ldr	r5, [pc, #116]	; (8000fc8 <HAL_TIM_PeriodElapsedCallback+0x140>)
 8000f52:	e9c5 0100 	strd	r0, r1, [r5]
 8000f56:	f7ff fbe9 	bl	800072c <__aeabi_ddiv>
 8000f5a:	4b16      	ldr	r3, [pc, #88]	; (8000fb4 <HAL_TIM_PeriodElapsedCallback+0x12c>)
 8000f5c:	2200      	movs	r2, #0
 8000f5e:	f7ff fabb 	bl	80004d8 <__aeabi_dmul>
 8000f62:	4b1a      	ldr	r3, [pc, #104]	; (8000fcc <HAL_TIM_PeriodElapsedCallback+0x144>)
 8000f64:	4d1a      	ldr	r5, [pc, #104]	; (8000fd0 <HAL_TIM_PeriodElapsedCallback+0x148>)
 8000f66:	f8d3 a000 	ldr.w	sl, [r3]
 8000f6a:	e9cd 0102 	strd	r0, r1, [sp, #8]
 8000f6e:	f1ba 0f01 	cmp.w	sl, #1
 8000f72:	f8c9 4000 	str.w	r4, [r9]
 8000f76:	e9c5 0100 	strd	r0, r1, [r5]
 8000f7a:	d02f      	beq.n	8000fdc <HAL_TIM_PeriodElapsedCallback+0x154>
 8000f7c:	b009      	add	sp, #36	; 0x24
 8000f7e:	e8bd 8ff0 	ldmia.w	sp!, {r4, r5, r6, r7, r8, r9, sl, fp, pc}
 8000f82:	bf00      	nop
 8000f84:	f3af 8000 	nop.w
 8000f88:	00000000 	.word	0x00000000
 8000f8c:	40bce000 	.word	0x40bce000
 8000f90:	40012c00 	.word	0x40012c00
 8000f94:	40000400 	.word	0x40000400
 8000f98:	40000800 	.word	0x40000800
 8000f9c:	20000338 	.word	0x20000338
 8000fa0:	20000270 	.word	0x20000270
 8000fa4:	08007df8 	.word	0x08007df8
 8000fa8:	200002a4 	.word	0x200002a4
 8000fac:	200002ac 	.word	0x200002ac
 8000fb0:	200002b8 	.word	0x200002b8
 8000fb4:	404e0000 	.word	0x404e0000
 8000fb8:	200002f4 	.word	0x200002f4
 8000fbc:	20000274 	.word	0x20000274
 8000fc0:	200002a8 	.word	0x200002a8
 8000fc4:	200002c8 	.word	0x200002c8
 8000fc8:	200002c0 	.word	0x200002c0
 8000fcc:	20000000 	.word	0x20000000
 8000fd0:	200002d0 	.word	0x200002d0
 8000fd4:	20000008 	.word	0x20000008
 8000fd8:	200002b0 	.word	0x200002b0
 8000fdc:	49aa      	ldr	r1, [pc, #680]	; (8001288 <HAL_TIM_PeriodElapsedCallback+0x400>)
 8000fde:	4632      	mov	r2, r6
 8000fe0:	e9d1 0100 	ldrd	r0, r1, [r1]
 8000fe4:	463b      	mov	r3, r7
 8000fe6:	f7ff f8bf 	bl	8000168 <__aeabi_dsub>
 8000fea:	4606      	mov	r6, r0
 8000fec:	460f      	mov	r7, r1
 8000fee:	4ca7      	ldr	r4, [pc, #668]	; (800128c <HAL_TIM_PeriodElapsedCallback+0x404>)
 8000ff0:	2200      	movs	r2, #0
 8000ff2:	2300      	movs	r3, #0
 8000ff4:	e9c4 6700 	strd	r6, r7, [r4]
 8000ff8:	e9cd 6704 	strd	r6, r7, [sp, #16]
 8000ffc:	f7ff fcde 	bl	80009bc <__aeabi_dcmplt>
 8001000:	2800      	cmp	r0, #0
 8001002:	f040 817f 	bne.w	8001304 <HAL_TIM_PeriodElapsedCallback+0x47c>
 8001006:	4630      	mov	r0, r6
 8001008:	4639      	mov	r1, r7
 800100a:	2200      	movs	r2, #0
 800100c:	2300      	movs	r3, #0
 800100e:	f7ff fcf3 	bl	80009f8 <__aeabi_dcmpgt>
 8001012:	b1c0      	cbz	r0, 8001046 <HAL_TIM_PeriodElapsedCallback+0x1be>
 8001014:	4b9e      	ldr	r3, [pc, #632]	; (8001290 <HAL_TIM_PeriodElapsedCallback+0x408>)
 8001016:	681e      	ldr	r6, [r3, #0]
 8001018:	b9ae      	cbnz	r6, 8001046 <HAL_TIM_PeriodElapsedCallback+0x1be>
 800101a:	4652      	mov	r2, sl
 800101c:	2110      	movs	r1, #16
 800101e:	489d      	ldr	r0, [pc, #628]	; (8001294 <HAL_TIM_PeriodElapsedCallback+0x40c>)
 8001020:	f001 f832 	bl	8002088 <HAL_GPIO_WritePin>
 8001024:	4632      	mov	r2, r6
 8001026:	2120      	movs	r1, #32
 8001028:	489a      	ldr	r0, [pc, #616]	; (8001294 <HAL_TIM_PeriodElapsedCallback+0x40c>)
 800102a:	f001 f82d 	bl	8002088 <HAL_GPIO_WritePin>
 800102e:	e9d4 3400 	ldrd	r3, r4, [r4]
 8001032:	e9cd 3404 	strd	r3, r4, [sp, #16]
 8001036:	e9d8 3400 	ldrd	r3, r4, [r8]
 800103a:	e9cd 3400 	strd	r3, r4, [sp]
 800103e:	e9d5 3400 	ldrd	r3, r4, [r5]
 8001042:	e9cd 3402 	strd	r3, r4, [sp, #8]
 8001046:	4b94      	ldr	r3, [pc, #592]	; (8001298 <HAL_TIM_PeriodElapsedCallback+0x410>)
 8001048:	4e94      	ldr	r6, [pc, #592]	; (800129c <HAL_TIM_PeriodElapsedCallback+0x414>)
 800104a:	6818      	ldr	r0, [r3, #0]
 800104c:	f7ff f9ec 	bl	8000428 <__aeabi_f2d>
 8001050:	e9dd 4504 	ldrd	r4, r5, [sp, #16]
 8001054:	4622      	mov	r2, r4
 8001056:	462b      	mov	r3, r5
 8001058:	f7ff fa3e 	bl	80004d8 <__aeabi_dmul>
 800105c:	4a90      	ldr	r2, [pc, #576]	; (80012a0 <HAL_TIM_PeriodElapsedCallback+0x418>)
 800105e:	4b91      	ldr	r3, [pc, #580]	; (80012a4 <HAL_TIM_PeriodElapsedCallback+0x41c>)
 8001060:	e9c2 0100 	strd	r0, r1, [r2]
 8001064:	e9cd 0106 	strd	r0, r1, [sp, #24]
 8001068:	6818      	ldr	r0, [r3, #0]
 800106a:	f7ff f9dd 	bl	8000428 <__aeabi_f2d>
 800106e:	e9dd 2300 	ldrd	r2, r3, [sp]
 8001072:	f7ff fa31 	bl	80004d8 <__aeabi_dmul>
 8001076:	4622      	mov	r2, r4
 8001078:	462b      	mov	r3, r5
 800107a:	f7ff fa2d 	bl	80004d8 <__aeabi_dmul>
 800107e:	e9d6 2300 	ldrd	r2, r3, [r6]
 8001082:	f7ff f873 	bl	800016c <__adddf3>
 8001086:	4682      	mov	sl, r0
 8001088:	468b      	mov	fp, r1
 800108a:	4b87      	ldr	r3, [pc, #540]	; (80012a8 <HAL_TIM_PeriodElapsedCallback+0x420>)
 800108c:	4f87      	ldr	r7, [pc, #540]	; (80012ac <HAL_TIM_PeriodElapsedCallback+0x424>)
 800108e:	e9c3 ab00 	strd	sl, fp, [r3]
 8001092:	e9d7 2300 	ldrd	r2, r3, [r7]
 8001096:	4620      	mov	r0, r4
 8001098:	4629      	mov	r1, r5
 800109a:	f7ff f865 	bl	8000168 <__aeabi_dsub>
 800109e:	4b84      	ldr	r3, [pc, #528]	; (80012b0 <HAL_TIM_PeriodElapsedCallback+0x428>)
 80010a0:	4604      	mov	r4, r0
 80010a2:	6818      	ldr	r0, [r3, #0]
 80010a4:	460d      	mov	r5, r1
 80010a6:	f7ff f9bf 	bl	8000428 <__aeabi_f2d>
 80010aa:	e9dd 2300 	ldrd	r2, r3, [sp]
 80010ae:	f7ff fb3d 	bl	800072c <__aeabi_ddiv>
 80010b2:	4602      	mov	r2, r0
 80010b4:	460b      	mov	r3, r1
 80010b6:	4620      	mov	r0, r4
 80010b8:	4629      	mov	r1, r5
 80010ba:	f7ff fa0d 	bl	80004d8 <__aeabi_dmul>
 80010be:	4604      	mov	r4, r0
 80010c0:	460d      	mov	r5, r1
 80010c2:	e9dd 0106 	ldrd	r0, r1, [sp, #24]
 80010c6:	4b7b      	ldr	r3, [pc, #492]	; (80012b4 <HAL_TIM_PeriodElapsedCallback+0x42c>)
 80010c8:	4652      	mov	r2, sl
 80010ca:	e9c3 4500 	strd	r4, r5, [r3]
 80010ce:	465b      	mov	r3, fp
 80010d0:	f7ff f84c 	bl	800016c <__adddf3>
 80010d4:	4622      	mov	r2, r4
 80010d6:	462b      	mov	r3, r5
 80010d8:	f7ff f848 	bl	800016c <__adddf3>
 80010dc:	f021 4300 	bic.w	r3, r1, #2147483648	; 0x80000000
 80010e0:	4619      	mov	r1, r3
 80010e2:	f7ff fcd1 	bl	8000a88 <__aeabi_d2uiz>
 80010e6:	f241 1330 	movw	r3, #4400	; 0x1130
 80010ea:	4298      	cmp	r0, r3
 80010ec:	4604      	mov	r4, r0
 80010ee:	f200 80b8 	bhi.w	8001262 <HAL_TIM_PeriodElapsedCallback+0x3da>
 80010f2:	4b71      	ldr	r3, [pc, #452]	; (80012b8 <HAL_TIM_PeriodElapsedCallback+0x430>)
 80010f4:	6018      	str	r0, [r3, #0]
 80010f6:	f8df 9208 	ldr.w	r9, [pc, #520]	; 8001300 <HAL_TIM_PeriodElapsedCallback+0x478>
 80010fa:	e9c6 ab00 	strd	sl, fp, [r6]
 80010fe:	e9dd 1204 	ldrd	r1, r2, [sp, #16]
 8001102:	4b6e      	ldr	r3, [pc, #440]	; (80012bc <HAL_TIM_PeriodElapsedCallback+0x434>)
 8001104:	f8d9 6000 	ldr.w	r6, [r9]
 8001108:	e9c7 1200 	strd	r1, r2, [r7]
 800110c:	e9d3 0100 	ldrd	r0, r1, [r3]
 8001110:	e9dd 2302 	ldrd	r2, r3, [sp, #8]
 8001114:	6374      	str	r4, [r6, #52]	; 0x34
 8001116:	f7ff f827 	bl	8000168 <__aeabi_dsub>
 800111a:	4604      	mov	r4, r0
 800111c:	460d      	mov	r5, r1
 800111e:	4f68      	ldr	r7, [pc, #416]	; (80012c0 <HAL_TIM_PeriodElapsedCallback+0x438>)
 8001120:	2200      	movs	r2, #0
 8001122:	2300      	movs	r3, #0
 8001124:	e9c7 4500 	strd	r4, r5, [r7]
 8001128:	f7ff fc48 	bl	80009bc <__aeabi_dcmplt>
 800112c:	2800      	cmp	r0, #0
 800112e:	f040 809f 	bne.w	8001270 <HAL_TIM_PeriodElapsedCallback+0x3e8>
 8001132:	2200      	movs	r2, #0
 8001134:	2300      	movs	r3, #0
 8001136:	4620      	mov	r0, r4
 8001138:	4629      	mov	r1, r5
 800113a:	f7ff fc5d 	bl	80009f8 <__aeabi_dcmpgt>
 800113e:	b1c8      	cbz	r0, 8001174 <HAL_TIM_PeriodElapsedCallback+0x2ec>
 8001140:	4b60      	ldr	r3, [pc, #384]	; (80012c4 <HAL_TIM_PeriodElapsedCallback+0x43c>)
 8001142:	f8d3 a000 	ldr.w	sl, [r3]
 8001146:	f1ba 0f00 	cmp.w	sl, #0
 800114a:	d113      	bne.n	8001174 <HAL_TIM_PeriodElapsedCallback+0x2ec>
 800114c:	2201      	movs	r2, #1
 800114e:	f44f 7100 	mov.w	r1, #512	; 0x200
 8001152:	4850      	ldr	r0, [pc, #320]	; (8001294 <HAL_TIM_PeriodElapsedCallback+0x40c>)
 8001154:	f000 ff98 	bl	8002088 <HAL_GPIO_WritePin>
 8001158:	4652      	mov	r2, sl
 800115a:	f44f 6100 	mov.w	r1, #2048	; 0x800
 800115e:	484d      	ldr	r0, [pc, #308]	; (8001294 <HAL_TIM_PeriodElapsedCallback+0x40c>)
 8001160:	f000 ff92 	bl	8002088 <HAL_GPIO_WritePin>
 8001164:	e9d8 2300 	ldrd	r2, r3, [r8]
 8001168:	e9d7 4500 	ldrd	r4, r5, [r7]
 800116c:	e9cd 2300 	strd	r2, r3, [sp]
 8001170:	f8d9 6000 	ldr.w	r6, [r9]
 8001174:	4b54      	ldr	r3, [pc, #336]	; (80012c8 <HAL_TIM_PeriodElapsedCallback+0x440>)
 8001176:	4f55      	ldr	r7, [pc, #340]	; (80012cc <HAL_TIM_PeriodElapsedCallback+0x444>)
 8001178:	6818      	ldr	r0, [r3, #0]
 800117a:	f7ff f955 	bl	8000428 <__aeabi_f2d>
 800117e:	4622      	mov	r2, r4
 8001180:	462b      	mov	r3, r5
 8001182:	f7ff f9a9 	bl	80004d8 <__aeabi_dmul>
 8001186:	4a52      	ldr	r2, [pc, #328]	; (80012d0 <HAL_TIM_PeriodElapsedCallback+0x448>)
 8001188:	4b52      	ldr	r3, [pc, #328]	; (80012d4 <HAL_TIM_PeriodElapsedCallback+0x44c>)
 800118a:	e9c2 0100 	strd	r0, r1, [r2]
 800118e:	e9cd 0102 	strd	r0, r1, [sp, #8]
 8001192:	6818      	ldr	r0, [r3, #0]
 8001194:	f7ff f948 	bl	8000428 <__aeabi_f2d>
 8001198:	e9dd 2300 	ldrd	r2, r3, [sp]
 800119c:	f7ff f99c 	bl	80004d8 <__aeabi_dmul>
 80011a0:	4622      	mov	r2, r4
 80011a2:	462b      	mov	r3, r5
 80011a4:	f7ff f998 	bl	80004d8 <__aeabi_dmul>
 80011a8:	4b4b      	ldr	r3, [pc, #300]	; (80012d8 <HAL_TIM_PeriodElapsedCallback+0x450>)
 80011aa:	e9d3 2300 	ldrd	r2, r3, [r3]
 80011ae:	f7fe ffdd 	bl	800016c <__adddf3>
 80011b2:	4682      	mov	sl, r0
 80011b4:	468b      	mov	fp, r1
 80011b6:	4b49      	ldr	r3, [pc, #292]	; (80012dc <HAL_TIM_PeriodElapsedCallback+0x454>)
 80011b8:	4620      	mov	r0, r4
 80011ba:	e9c3 ab00 	strd	sl, fp, [r3]
 80011be:	e9d7 2300 	ldrd	r2, r3, [r7]
 80011c2:	4629      	mov	r1, r5
 80011c4:	f7fe ffd0 	bl	8000168 <__aeabi_dsub>
 80011c8:	4b45      	ldr	r3, [pc, #276]	; (80012e0 <HAL_TIM_PeriodElapsedCallback+0x458>)
 80011ca:	4680      	mov	r8, r0
 80011cc:	6818      	ldr	r0, [r3, #0]
 80011ce:	4689      	mov	r9, r1
 80011d0:	f7ff f92a 	bl	8000428 <__aeabi_f2d>
 80011d4:	e9dd 2300 	ldrd	r2, r3, [sp]
 80011d8:	f7ff faa8 	bl	800072c <__aeabi_ddiv>
 80011dc:	4602      	mov	r2, r0
 80011de:	460b      	mov	r3, r1
 80011e0:	4640      	mov	r0, r8
 80011e2:	4649      	mov	r1, r9
 80011e4:	f7ff f978 	bl	80004d8 <__aeabi_dmul>
 80011e8:	4680      	mov	r8, r0
 80011ea:	4689      	mov	r9, r1
 80011ec:	e9dd 0102 	ldrd	r0, r1, [sp, #8]
 80011f0:	4b3c      	ldr	r3, [pc, #240]	; (80012e4 <HAL_TIM_PeriodElapsedCallback+0x45c>)
 80011f2:	4652      	mov	r2, sl
 80011f4:	e9c3 8900 	strd	r8, r9, [r3]
 80011f8:	465b      	mov	r3, fp
 80011fa:	f7fe ffb7 	bl	800016c <__adddf3>
 80011fe:	4642      	mov	r2, r8
 8001200:	464b      	mov	r3, r9
 8001202:	f7fe ffb3 	bl	800016c <__adddf3>
 8001206:	f021 4300 	bic.w	r3, r1, #2147483648	; 0x80000000
 800120a:	4619      	mov	r1, r3
 800120c:	f7ff fc3c 	bl	8000a88 <__aeabi_d2uiz>
 8001210:	f241 1330 	movw	r3, #4400	; 0x1130
 8001214:	4298      	cmp	r0, r3
 8001216:	d928      	bls.n	800126a <HAL_TIM_PeriodElapsedCallback+0x3e2>
 8001218:	4618      	mov	r0, r3
 800121a:	4a33      	ldr	r2, [pc, #204]	; (80012e8 <HAL_TIM_PeriodElapsedCallback+0x460>)
 800121c:	6013      	str	r3, [r2, #0]
 800121e:	4b2e      	ldr	r3, [pc, #184]	; (80012d8 <HAL_TIM_PeriodElapsedCallback+0x450>)
 8001220:	63f0      	str	r0, [r6, #60]	; 0x3c
 8001222:	e9c3 ab00 	strd	sl, fp, [r3]
 8001226:	e9c7 4500 	strd	r4, r5, [r7]
 800122a:	b009      	add	sp, #36	; 0x24
 800122c:	e8bd 8ff0 	ldmia.w	sp!, {r4, r5, r6, r7, r8, r9, sl, fp, pc}
 8001230:	3301      	adds	r3, #1
 8001232:	482e      	ldr	r0, [pc, #184]	; (80012ec <HAL_TIM_PeriodElapsedCallback+0x464>)
 8001234:	600b      	str	r3, [r1, #0]
 8001236:	f003 b96b 	b.w	8004510 <puts>
 800123a:	4a2d      	ldr	r2, [pc, #180]	; (80012f0 <HAL_TIM_PeriodElapsedCallback+0x468>)
 800123c:	68c3      	ldr	r3, [r0, #12]
 800123e:	6812      	ldr	r2, [r2, #0]
 8001240:	492c      	ldr	r1, [pc, #176]	; (80012f4 <HAL_TIM_PeriodElapsedCallback+0x46c>)
 8001242:	6a50      	ldr	r0, [r2, #36]	; 0x24
 8001244:	3301      	adds	r3, #1
 8001246:	ebb0 0f53 	cmp.w	r0, r3, lsr #1
 800124a:	680a      	ldr	r2, [r1, #0]
 800124c:	d804      	bhi.n	8001258 <HAL_TIM_PeriodElapsedCallback+0x3d0>
 800124e:	3201      	adds	r2, #1
 8001250:	4829      	ldr	r0, [pc, #164]	; (80012f8 <HAL_TIM_PeriodElapsedCallback+0x470>)
 8001252:	600a      	str	r2, [r1, #0]
 8001254:	f003 b95c 	b.w	8004510 <puts>
 8001258:	3a01      	subs	r2, #1
 800125a:	4828      	ldr	r0, [pc, #160]	; (80012fc <HAL_TIM_PeriodElapsedCallback+0x474>)
 800125c:	600a      	str	r2, [r1, #0]
 800125e:	f003 b957 	b.w	8004510 <puts>
 8001262:	4a15      	ldr	r2, [pc, #84]	; (80012b8 <HAL_TIM_PeriodElapsedCallback+0x430>)
 8001264:	461c      	mov	r4, r3
 8001266:	6013      	str	r3, [r2, #0]
 8001268:	e745      	b.n	80010f6 <HAL_TIM_PeriodElapsedCallback+0x26e>
 800126a:	4b1f      	ldr	r3, [pc, #124]	; (80012e8 <HAL_TIM_PeriodElapsedCallback+0x460>)
 800126c:	6018      	str	r0, [r3, #0]
 800126e:	e7d6      	b.n	800121e <HAL_TIM_PeriodElapsedCallback+0x396>
 8001270:	4b14      	ldr	r3, [pc, #80]	; (80012c4 <HAL_TIM_PeriodElapsedCallback+0x43c>)
 8001272:	681a      	ldr	r2, [r3, #0]
 8001274:	2a00      	cmp	r2, #0
 8001276:	f47f af7d 	bne.w	8001174 <HAL_TIM_PeriodElapsedCallback+0x2ec>
 800127a:	f44f 7100 	mov.w	r1, #512	; 0x200
 800127e:	4805      	ldr	r0, [pc, #20]	; (8001294 <HAL_TIM_PeriodElapsedCallback+0x40c>)
 8001280:	f000 ff02 	bl	8002088 <HAL_GPIO_WritePin>
 8001284:	2201      	movs	r2, #1
 8001286:	e768      	b.n	800115a <HAL_TIM_PeriodElapsedCallback+0x2d2>
 8001288:	200002d8 	.word	0x200002d8
 800128c:	20000280 	.word	0x20000280
 8001290:	20000010 	.word	0x20000010
 8001294:	40010800 	.word	0x40010800
 8001298:	20000224 	.word	0x20000224
 800129c:	20000250 	.word	0x20000250
 80012a0:	20000260 	.word	0x20000260
 80012a4:	2000021c 	.word	0x2000021c
 80012a8:	20000240 	.word	0x20000240
 80012ac:	20000290 	.word	0x20000290
 80012b0:	20000214 	.word	0x20000214
 80012b4:	20000230 	.word	0x20000230
 80012b8:	20000278 	.word	0x20000278
 80012bc:	200002e0 	.word	0x200002e0
 80012c0:	20000288 	.word	0x20000288
 80012c4:	20000014 	.word	0x20000014
 80012c8:	20000228 	.word	0x20000228
 80012cc:	20000298 	.word	0x20000298
 80012d0:	20000268 	.word	0x20000268
 80012d4:	20000220 	.word	0x20000220
 80012d8:	20000258 	.word	0x20000258
 80012dc:	20000248 	.word	0x20000248
 80012e0:	20000218 	.word	0x20000218
 80012e4:	20000238 	.word	0x20000238
 80012e8:	2000027c 	.word	0x2000027c
 80012ec:	08007e0c 	.word	0x08007e0c
 80012f0:	200002f4 	.word	0x200002f4
 80012f4:	20000274 	.word	0x20000274
 80012f8:	08007e34 	.word	0x08007e34
 80012fc:	08007e20 	.word	0x08007e20
 8001300:	200003e4 	.word	0x200003e4
 8001304:	4b05      	ldr	r3, [pc, #20]	; (800131c <HAL_TIM_PeriodElapsedCallback+0x494>)
 8001306:	681a      	ldr	r2, [r3, #0]
 8001308:	2a00      	cmp	r2, #0
 800130a:	f47f ae9c 	bne.w	8001046 <HAL_TIM_PeriodElapsedCallback+0x1be>
 800130e:	2110      	movs	r1, #16
 8001310:	4803      	ldr	r0, [pc, #12]	; (8001320 <HAL_TIM_PeriodElapsedCallback+0x498>)
 8001312:	f000 feb9 	bl	8002088 <HAL_GPIO_WritePin>
 8001316:	4652      	mov	r2, sl
 8001318:	e685      	b.n	8001026 <HAL_TIM_PeriodElapsedCallback+0x19e>
 800131a:	bf00      	nop
 800131c:	20000010 	.word	0x20000010
 8001320:	40010800 	.word	0x40010800

08001324 <HAL_UART_RxCpltCallback>:
 8001324:	6802      	ldr	r2, [r0, #0]
 8001326:	4b2b      	ldr	r3, [pc, #172]	; (80013d4 <HAL_UART_RxCpltCallback+0xb0>)
 8001328:	429a      	cmp	r2, r3
 800132a:	d000      	beq.n	800132e <HAL_UART_RxCpltCallback+0xa>
 800132c:	4770      	bx	lr
 800132e:	b570      	push	{r4, r5, r6, lr}
 8001330:	4c29      	ldr	r4, [pc, #164]	; (80013d8 <HAL_UART_RxCpltCallback+0xb4>)
 8001332:	7823      	ldrb	r3, [r4, #0]
 8001334:	2b0d      	cmp	r3, #13
 8001336:	d004      	beq.n	8001342 <HAL_UART_RxCpltCallback+0x1e>
 8001338:	d914      	bls.n	8001364 <HAL_UART_RxCpltCallback+0x40>
 800133a:	2b3a      	cmp	r3, #58	; 0x3a
 800133c:	d033      	beq.n	80013a6 <HAL_UART_RxCpltCallback+0x82>
 800133e:	2b3b      	cmp	r3, #59	; 0x3b
 8001340:	d11d      	bne.n	800137e <HAL_UART_RxCpltCallback+0x5a>
 8001342:	2364      	movs	r3, #100	; 0x64
 8001344:	2201      	movs	r2, #1
 8001346:	4924      	ldr	r1, [pc, #144]	; (80013d8 <HAL_UART_RxCpltCallback+0xb4>)
 8001348:	4824      	ldr	r0, [pc, #144]	; (80013dc <HAL_UART_RxCpltCallback+0xb8>)
 800134a:	f001 ffad 	bl	80032a8 <HAL_UART_Transmit>
 800134e:	4b24      	ldr	r3, [pc, #144]	; (80013e0 <HAL_UART_RxCpltCallback+0xbc>)
 8001350:	781a      	ldrb	r2, [r3, #0]
 8001352:	2a00      	cmp	r2, #0
 8001354:	d134      	bne.n	80013c0 <HAL_UART_RxCpltCallback+0x9c>
 8001356:	e8bd 4070 	ldmia.w	sp!, {r4, r5, r6, lr}
 800135a:	2201      	movs	r2, #1
 800135c:	491e      	ldr	r1, [pc, #120]	; (80013d8 <HAL_UART_RxCpltCallback+0xb4>)
 800135e:	481f      	ldr	r0, [pc, #124]	; (80013dc <HAL_UART_RxCpltCallback+0xb8>)
 8001360:	f002 b8cc 	b.w	80034fc <HAL_UART_Receive_IT>
 8001364:	2b08      	cmp	r3, #8
 8001366:	d10a      	bne.n	800137e <HAL_UART_RxCpltCallback+0x5a>
 8001368:	4b1d      	ldr	r3, [pc, #116]	; (80013e0 <HAL_UART_RxCpltCallback+0xbc>)
 800136a:	781b      	ldrb	r3, [r3, #0]
 800136c:	2b00      	cmp	r3, #0
 800136e:	d0f2      	beq.n	8001356 <HAL_UART_RxCpltCallback+0x32>
 8001370:	4a1c      	ldr	r2, [pc, #112]	; (80013e4 <HAL_UART_RxCpltCallback+0xc0>)
 8001372:	7813      	ldrb	r3, [r2, #0]
 8001374:	2b00      	cmp	r3, #0
 8001376:	d0ee      	beq.n	8001356 <HAL_UART_RxCpltCallback+0x32>
 8001378:	3b01      	subs	r3, #1
 800137a:	7013      	strb	r3, [r2, #0]
 800137c:	e7eb      	b.n	8001356 <HAL_UART_RxCpltCallback+0x32>
 800137e:	2364      	movs	r3, #100	; 0x64
 8001380:	2201      	movs	r2, #1
 8001382:	4915      	ldr	r1, [pc, #84]	; (80013d8 <HAL_UART_RxCpltCallback+0xb4>)
 8001384:	4815      	ldr	r0, [pc, #84]	; (80013dc <HAL_UART_RxCpltCallback+0xb8>)
 8001386:	f001 ff8f 	bl	80032a8 <HAL_UART_Transmit>
 800138a:	4b15      	ldr	r3, [pc, #84]	; (80013e0 <HAL_UART_RxCpltCallback+0xbc>)
 800138c:	781b      	ldrb	r3, [r3, #0]
 800138e:	2b00      	cmp	r3, #0
 8001390:	d0e1      	beq.n	8001356 <HAL_UART_RxCpltCallback+0x32>
 8001392:	4a14      	ldr	r2, [pc, #80]	; (80013e4 <HAL_UART_RxCpltCallback+0xc0>)
 8001394:	7820      	ldrb	r0, [r4, #0]
 8001396:	7813      	ldrb	r3, [r2, #0]
 8001398:	4913      	ldr	r1, [pc, #76]	; (80013e8 <HAL_UART_RxCpltCallback+0xc4>)
 800139a:	2b26      	cmp	r3, #38	; 0x26
 800139c:	54c8      	strb	r0, [r1, r3]
 800139e:	bf9c      	itt	ls
 80013a0:	3301      	addls	r3, #1
 80013a2:	7013      	strbls	r3, [r2, #0]
 80013a4:	e7d7      	b.n	8001356 <HAL_UART_RxCpltCallback+0x32>
 80013a6:	2301      	movs	r3, #1
 80013a8:	2600      	movs	r6, #0
 80013aa:	480d      	ldr	r0, [pc, #52]	; (80013e0 <HAL_UART_RxCpltCallback+0xbc>)
 80013ac:	4d0d      	ldr	r5, [pc, #52]	; (80013e4 <HAL_UART_RxCpltCallback+0xc0>)
 80013ae:	461a      	mov	r2, r3
 80013b0:	7003      	strb	r3, [r0, #0]
 80013b2:	4621      	mov	r1, r4
 80013b4:	2364      	movs	r3, #100	; 0x64
 80013b6:	4809      	ldr	r0, [pc, #36]	; (80013dc <HAL_UART_RxCpltCallback+0xb8>)
 80013b8:	702e      	strb	r6, [r5, #0]
 80013ba:	f001 ff75 	bl	80032a8 <HAL_UART_Transmit>
 80013be:	e7ca      	b.n	8001356 <HAL_UART_RxCpltCallback+0x32>
 80013c0:	2200      	movs	r2, #0
 80013c2:	4908      	ldr	r1, [pc, #32]	; (80013e4 <HAL_UART_RxCpltCallback+0xc0>)
 80013c4:	4808      	ldr	r0, [pc, #32]	; (80013e8 <HAL_UART_RxCpltCallback+0xc4>)
 80013c6:	7809      	ldrb	r1, [r1, #0]
 80013c8:	701a      	strb	r2, [r3, #0]
 80013ca:	5442      	strb	r2, [r0, r1]
 80013cc:	f7ff fbcc 	bl	8000b68 <interpreteComando>
 80013d0:	e7c1      	b.n	8001356 <HAL_UART_RxCpltCallback+0x32>
 80013d2:	bf00      	nop
 80013d4:	40004400 	.word	0x40004400
 80013d8:	200003a0 	.word	0x200003a0
 80013dc:	20000424 	.word	0x20000424
 80013e0:	20000335 	.word	0x20000335
 80013e4:	200002a0 	.word	0x200002a0
 80013e8:	20000378 	.word	0x20000378

080013ec <SystemClock_Config>:
 80013ec:	b530      	push	{r4, r5, lr}
 80013ee:	2201      	movs	r2, #1
 80013f0:	2400      	movs	r4, #0
 80013f2:	f44f 3380 	mov.w	r3, #65536	; 0x10000
 80013f6:	2502      	movs	r5, #2
 80013f8:	f44f 11e0 	mov.w	r1, #1835008	; 0x1c0000
 80013fc:	b091      	sub	sp, #68	; 0x44
 80013fe:	a806      	add	r0, sp, #24
 8001400:	9206      	str	r2, [sp, #24]
 8001402:	920a      	str	r2, [sp, #40]	; 0x28
 8001404:	9307      	str	r3, [sp, #28]
 8001406:	e9cd 530d 	strd	r5, r3, [sp, #52]	; 0x34
 800140a:	910f      	str	r1, [sp, #60]	; 0x3c
 800140c:	9408      	str	r4, [sp, #32]
 800140e:	9401      	str	r4, [sp, #4]
 8001410:	9409      	str	r4, [sp, #36]	; 0x24
 8001412:	e9cd 440b 	strd	r4, r4, [sp, #44]	; 0x2c
 8001416:	e9cd 4402 	strd	r4, r4, [sp, #8]
 800141a:	e9cd 4404 	strd	r4, r4, [sp, #16]
 800141e:	f000 fe37 	bl	8002090 <HAL_RCC_OscConfig>
 8001422:	220f      	movs	r2, #15
 8001424:	f44f 6380 	mov.w	r3, #1024	; 0x400
 8001428:	a801      	add	r0, sp, #4
 800142a:	4629      	mov	r1, r5
 800142c:	e9cd 5402 	strd	r5, r4, [sp, #8]
 8001430:	9405      	str	r4, [sp, #20]
 8001432:	9201      	str	r2, [sp, #4]
 8001434:	9304      	str	r3, [sp, #16]
 8001436:	f001 f823 	bl	8002480 <HAL_RCC_ClockConfig>
 800143a:	b011      	add	sp, #68	; 0x44
 800143c:	bd30      	pop	{r4, r5, pc}
 800143e:	bf00      	nop

08001440 <main>:
 8001440:	2500      	movs	r5, #0
 8001442:	e92d 4880 	stmdb	sp!, {r7, fp, lr}
 8001446:	b09b      	sub	sp, #108	; 0x6c
 8001448:	f000 fc34 	bl	8001cb4 <HAL_Init>
 800144c:	f7ff ffce 	bl	80013ec <SystemClock_Config>
 8001450:	e9cd 5511 	strd	r5, r5, [sp, #68]	; 0x44
 8001454:	e9cd 5513 	strd	r5, r5, [sp, #76]	; 0x4c
 8001458:	4bc2      	ldr	r3, [pc, #776]	; (8001764 <main+0x324>)
 800145a:	f44f 5900 	mov.w	r9, #8192	; 0x2000
 800145e:	699a      	ldr	r2, [r3, #24]
 8001460:	2701      	movs	r7, #1
 8001462:	2602      	movs	r6, #2
 8001464:	f042 0210 	orr.w	r2, r2, #16
 8001468:	619a      	str	r2, [r3, #24]
 800146a:	6999      	ldr	r1, [r3, #24]
 800146c:	462a      	mov	r2, r5
 800146e:	f001 0110 	and.w	r1, r1, #16
 8001472:	9100      	str	r1, [sp, #0]
 8001474:	9900      	ldr	r1, [sp, #0]
 8001476:	6998      	ldr	r0, [r3, #24]
 8001478:	4649      	mov	r1, r9
 800147a:	f040 0020 	orr.w	r0, r0, #32
 800147e:	6198      	str	r0, [r3, #24]
 8001480:	699c      	ldr	r4, [r3, #24]
 8001482:	48b9      	ldr	r0, [pc, #740]	; (8001768 <main+0x328>)
 8001484:	f004 0420 	and.w	r4, r4, #32
 8001488:	9401      	str	r4, [sp, #4]
 800148a:	9c01      	ldr	r4, [sp, #4]
 800148c:	699c      	ldr	r4, [r3, #24]
 800148e:	f44f 5a80 	mov.w	sl, #4096	; 0x1000
 8001492:	f044 0404 	orr.w	r4, r4, #4
 8001496:	619c      	str	r4, [r3, #24]
 8001498:	f8d3 c018 	ldr.w	ip, [r3, #24]
 800149c:	4cb3      	ldr	r4, [pc, #716]	; (800176c <main+0x32c>)
 800149e:	f00c 0c04 	and.w	ip, ip, #4
 80014a2:	f8cd c008 	str.w	ip, [sp, #8]
 80014a6:	f8dd c008 	ldr.w	ip, [sp, #8]
 80014aa:	f8d3 c018 	ldr.w	ip, [r3, #24]
 80014ae:	f8df 82dc 	ldr.w	r8, [pc, #732]	; 800178c <main+0x34c>
 80014b2:	f04c 0c08 	orr.w	ip, ip, #8
 80014b6:	f8c3 c018 	str.w	ip, [r3, #24]
 80014ba:	699b      	ldr	r3, [r3, #24]
 80014bc:	f04f 0b03 	mov.w	fp, #3
 80014c0:	f003 0308 	and.w	r3, r3, #8
 80014c4:	9303      	str	r3, [sp, #12]
 80014c6:	9b03      	ldr	r3, [sp, #12]
 80014c8:	f000 fdde 	bl	8002088 <HAL_GPIO_WritePin>
 80014cc:	462a      	mov	r2, r5
 80014ce:	f44f 6123 	mov.w	r1, #2608	; 0xa30
 80014d2:	48a7      	ldr	r0, [pc, #668]	; (8001770 <main+0x330>)
 80014d4:	f000 fdd8 	bl	8002088 <HAL_GPIO_WritePin>
 80014d8:	a911      	add	r1, sp, #68	; 0x44
 80014da:	48a3      	ldr	r0, [pc, #652]	; (8001768 <main+0x328>)
 80014dc:	e9cd 9711 	strd	r9, r7, [sp, #68]	; 0x44
 80014e0:	9614      	str	r6, [sp, #80]	; 0x50
 80014e2:	9513      	str	r5, [sp, #76]	; 0x4c
 80014e4:	f000 fcd6 	bl	8001e94 <HAL_GPIO_Init>
 80014e8:	f44f 6323 	mov.w	r3, #2608	; 0xa30
 80014ec:	a911      	add	r1, sp, #68	; 0x44
 80014ee:	48a0      	ldr	r0, [pc, #640]	; (8001770 <main+0x330>)
 80014f0:	9614      	str	r6, [sp, #80]	; 0x50
 80014f2:	9311      	str	r3, [sp, #68]	; 0x44
 80014f4:	e9cd 7512 	strd	r7, r5, [sp, #72]	; 0x48
 80014f8:	f000 fccc 	bl	8001e94 <HAL_GPIO_Init>
 80014fc:	f04f 4280 	mov.w	r2, #1073741824	; 0x40000000
 8001500:	f241 1394 	movw	r3, #4500	; 0x1194
 8001504:	4620      	mov	r0, r4
 8001506:	6022      	str	r2, [r4, #0]
 8001508:	60e3      	str	r3, [r4, #12]
 800150a:	e9c4 5501 	strd	r5, r5, [r4, #4]
 800150e:	6125      	str	r5, [r4, #16]
 8001510:	61a5      	str	r5, [r4, #24]
 8001512:	950a      	str	r5, [sp, #40]	; 0x28
 8001514:	9506      	str	r5, [sp, #24]
 8001516:	e9cd 5511 	strd	r5, r5, [sp, #68]	; 0x44
 800151a:	e9cd 5513 	strd	r5, r5, [sp, #76]	; 0x4c
 800151e:	e9cd 5515 	strd	r5, r5, [sp, #84]	; 0x54
 8001522:	9517      	str	r5, [sp, #92]	; 0x5c
 8001524:	e9cd 550b 	strd	r5, r5, [sp, #44]	; 0x2c
 8001528:	950d      	str	r5, [sp, #52]	; 0x34
 800152a:	9507      	str	r5, [sp, #28]
 800152c:	f001 f894 	bl	8002658 <HAL_TIM_Base_Init>
 8001530:	a90a      	add	r1, sp, #40	; 0x28
 8001532:	4620      	mov	r0, r4
 8001534:	f8cd a028 	str.w	sl, [sp, #40]	; 0x28
 8001538:	f001 fca4 	bl	8002e84 <HAL_TIM_ConfigClockSource>
 800153c:	4620      	mov	r0, r4
 800153e:	f001 f98f 	bl	8002860 <HAL_TIM_PWM_Init>
 8001542:	a906      	add	r1, sp, #24
 8001544:	4620      	mov	r0, r4
 8001546:	e9cd 5506 	strd	r5, r5, [sp, #24]
 800154a:	f001 fdf3 	bl	8003134 <HAL_TIMEx_MasterConfigSynchronization>
 800154e:	2360      	movs	r3, #96	; 0x60
 8001550:	462a      	mov	r2, r5
 8001552:	a911      	add	r1, sp, #68	; 0x44
 8001554:	4620      	mov	r0, r4
 8001556:	9311      	str	r3, [sp, #68]	; 0x44
 8001558:	e9cd 5512 	strd	r5, r5, [sp, #72]	; 0x48
 800155c:	9515      	str	r5, [sp, #84]	; 0x54
 800155e:	f001 fb97 	bl	8002c90 <HAL_TIM_PWM_ConfigChannel>
 8001562:	a911      	add	r1, sp, #68	; 0x44
 8001564:	2208      	movs	r2, #8
 8001566:	4620      	mov	r0, r4
 8001568:	f001 fb92 	bl	8002c90 <HAL_TIM_PWM_ConfigChannel>
 800156c:	4620      	mov	r0, r4
 800156e:	f000 fa4f 	bl	8001a10 <HAL_TIM_MspPostInit>
 8001572:	f44f 31e1 	mov.w	r1, #115200	; 0x1c200
 8001576:	220c      	movs	r2, #12
 8001578:	4e7e      	ldr	r6, [pc, #504]	; (8001774 <main+0x334>)
 800157a:	4640      	mov	r0, r8
 800157c:	e9c8 6100 	strd	r6, r1, [r8]
 8001580:	f8c8 2014 	str.w	r2, [r8, #20]
 8001584:	e9c8 5502 	strd	r5, r5, [r8, #8]
 8001588:	f8c8 5010 	str.w	r5, [r8, #16]
 800158c:	e9c8 5506 	strd	r5, r5, [r8, #24]
 8001590:	f001 fe20 	bl	80031d4 <HAL_UART_Init>
 8001594:	4629      	mov	r1, r5
 8001596:	2220      	movs	r2, #32
 8001598:	a811      	add	r0, sp, #68	; 0x44
 800159a:	e9cd 5506 	strd	r5, r5, [sp, #24]
 800159e:	e9cd 5508 	strd	r5, r5, [sp, #32]
 80015a2:	9504      	str	r5, [sp, #16]
 80015a4:	e9cd 550a 	strd	r5, r5, [sp, #40]	; 0x28
 80015a8:	e9cd 550c 	strd	r5, r5, [sp, #48]	; 0x30
 80015ac:	e9cd 550e 	strd	r5, r5, [sp, #56]	; 0x38
 80015b0:	9510      	str	r5, [sp, #64]	; 0x40
 80015b2:	9505      	str	r5, [sp, #20]
 80015b4:	f002 f900 	bl	80037b8 <memset>
 80015b8:	210b      	movs	r1, #11
 80015ba:	f64e 225f 	movw	r2, #59999	; 0xea5f
 80015be:	4e6e      	ldr	r6, [pc, #440]	; (8001778 <main+0x338>)
 80015c0:	486e      	ldr	r0, [pc, #440]	; (800177c <main+0x33c>)
 80015c2:	60f2      	str	r2, [r6, #12]
 80015c4:	e9c6 0100 	strd	r0, r1, [r6]
 80015c8:	4630      	mov	r0, r6
 80015ca:	60b5      	str	r5, [r6, #8]
 80015cc:	e9c6 5504 	strd	r5, r5, [r6, #16]
 80015d0:	61b5      	str	r5, [r6, #24]
 80015d2:	f001 f841 	bl	8002658 <HAL_TIM_Base_Init>
 80015d6:	a906      	add	r1, sp, #24
 80015d8:	4630      	mov	r0, r6
 80015da:	f8cd a018 	str.w	sl, [sp, #24]
 80015de:	f001 fc51 	bl	8002e84 <HAL_TIM_ConfigClockSource>
 80015e2:	4630      	mov	r0, r6
 80015e4:	f001 f8ac 	bl	8002740 <HAL_TIM_OC_Init>
 80015e8:	a904      	add	r1, sp, #16
 80015ea:	4630      	mov	r0, r6
 80015ec:	e9cd 5504 	strd	r5, r5, [sp, #16]
 80015f0:	f001 fda0 	bl	8003134 <HAL_TIMEx_MasterConfigSynchronization>
 80015f4:	462a      	mov	r2, r5
 80015f6:	a90a      	add	r1, sp, #40	; 0x28
 80015f8:	4630      	mov	r0, r6
 80015fa:	e9cd 550a 	strd	r5, r5, [sp, #40]	; 0x28
 80015fe:	e9cd 550c 	strd	r5, r5, [sp, #48]	; 0x30
 8001602:	e9cd 550e 	strd	r5, r5, [sp, #56]	; 0x38
 8001606:	9510      	str	r5, [sp, #64]	; 0x40
 8001608:	f001 fa7a 	bl	8002b00 <HAL_TIM_OC_ConfigChannel>
 800160c:	a911      	add	r1, sp, #68	; 0x44
 800160e:	4630      	mov	r0, r6
 8001610:	f8cd 9058 	str.w	r9, [sp, #88]	; 0x58
 8001614:	e9cd 5511 	strd	r5, r5, [sp, #68]	; 0x44
 8001618:	e9cd 5513 	strd	r5, r5, [sp, #76]	; 0x4c
 800161c:	9515      	str	r5, [sp, #84]	; 0x54
 800161e:	9518      	str	r5, [sp, #96]	; 0x60
 8001620:	f001 fdaa 	bl	8003178 <HAL_TIMEx_ConfigBreakDeadTime>
 8001624:	4629      	mov	r1, r5
 8001626:	2220      	movs	r2, #32
 8001628:	a812      	add	r0, sp, #72	; 0x48
 800162a:	f002 f8c5 	bl	80037b8 <memset>
 800162e:	f64f 53e7 	movw	r3, #64999	; 0xfde7
 8001632:	f8df a15c 	ldr.w	sl, [pc, #348]	; 8001790 <main+0x350>
 8001636:	4a52      	ldr	r2, [pc, #328]	; (8001780 <main+0x340>)
 8001638:	a911      	add	r1, sp, #68	; 0x44
 800163a:	4650      	mov	r0, sl
 800163c:	f8ca 300c 	str.w	r3, [sl, #12]
 8001640:	f8ca 2000 	str.w	r2, [sl]
 8001644:	e9cd 550a 	strd	r5, r5, [sp, #40]	; 0x28
 8001648:	9713      	str	r7, [sp, #76]	; 0x4c
 800164a:	9717      	str	r7, [sp, #92]	; 0x5c
 800164c:	e9ca 5501 	strd	r5, r5, [sl, #4]
 8001650:	f8ca 5010 	str.w	r5, [sl, #16]
 8001654:	f8ca 5018 	str.w	r5, [sl, #24]
 8001658:	f8cd b044 	str.w	fp, [sp, #68]	; 0x44
 800165c:	f001 f98e 	bl	800297c <HAL_TIM_Encoder_Init>
 8001660:	a90a      	add	r1, sp, #40	; 0x28
 8001662:	4650      	mov	r0, sl
 8001664:	e9cd 550a 	strd	r5, r5, [sp, #40]	; 0x28
 8001668:	f001 fd64 	bl	8003134 <HAL_TIMEx_MasterConfigSynchronization>
 800166c:	4629      	mov	r1, r5
 800166e:	2220      	movs	r2, #32
 8001670:	a812      	add	r0, sp, #72	; 0x48
 8001672:	f002 f8a1 	bl	80037b8 <memset>
 8001676:	f64f 53e7 	movw	r3, #64999	; 0xfde7
 800167a:	f8df 9118 	ldr.w	r9, [pc, #280]	; 8001794 <main+0x354>
 800167e:	4a41      	ldr	r2, [pc, #260]	; (8001784 <main+0x344>)
 8001680:	a911      	add	r1, sp, #68	; 0x44
 8001682:	4648      	mov	r0, r9
 8001684:	f8c9 300c 	str.w	r3, [r9, #12]
 8001688:	f8c9 2000 	str.w	r2, [r9]
 800168c:	e9cd 550a 	strd	r5, r5, [sp, #40]	; 0x28
 8001690:	f8cd b044 	str.w	fp, [sp, #68]	; 0x44
 8001694:	9713      	str	r7, [sp, #76]	; 0x4c
 8001696:	9717      	str	r7, [sp, #92]	; 0x5c
 8001698:	e9c9 5501 	strd	r5, r5, [r9, #4]
 800169c:	f8c9 5010 	str.w	r5, [r9, #16]
 80016a0:	f8c9 5018 	str.w	r5, [r9, #24]
 80016a4:	f001 f96a 	bl	800297c <HAL_TIM_Encoder_Init>
 80016a8:	a90a      	add	r1, sp, #40	; 0x28
 80016aa:	4648      	mov	r0, r9
 80016ac:	e9cd 550a 	strd	r5, r5, [sp, #40]	; 0x28
 80016b0:	f001 fd40 	bl	8003134 <HAL_TIMEx_MasterConfigSynchronization>
 80016b4:	4640      	mov	r0, r8
 80016b6:	f000 f86f 	bl	8001798 <RetargetInit>
 80016ba:	463a      	mov	r2, r7
 80016bc:	4932      	ldr	r1, [pc, #200]	; (8001788 <main+0x348>)
 80016be:	4640      	mov	r0, r8
 80016c0:	f001 ff1c 	bl	80034fc <HAL_UART_Receive_IT>
 80016c4:	4630      	mov	r0, r6
 80016c6:	f001 f829 	bl	800271c <HAL_TIM_Base_Start_IT>
 80016ca:	4629      	mov	r1, r5
 80016cc:	4630      	mov	r0, r6
 80016ce:	f001 f885 	bl	80027dc <HAL_TIM_OC_Start_IT>
 80016d2:	4620      	mov	r0, r4
 80016d4:	f001 f80e 	bl	80026f4 <HAL_TIM_Base_Start>
 80016d8:	4629      	mov	r1, r5
 80016da:	4620      	mov	r0, r4
 80016dc:	f001 f90e 	bl	80028fc <HAL_TIM_PWM_Start_IT>
 80016e0:	2108      	movs	r1, #8
 80016e2:	4620      	mov	r0, r4
 80016e4:	f001 f90a 	bl	80028fc <HAL_TIM_PWM_Start_IT>
 80016e8:	4650      	mov	r0, sl
 80016ea:	f001 f817 	bl	800271c <HAL_TIM_Base_Start_IT>
 80016ee:	213c      	movs	r1, #60	; 0x3c
 80016f0:	4650      	mov	r0, sl
 80016f2:	f001 f9c7 	bl	8002a84 <HAL_TIM_Encoder_Start_IT>
 80016f6:	4648      	mov	r0, r9
 80016f8:	f001 f810 	bl	800271c <HAL_TIM_Base_Start_IT>
 80016fc:	213c      	movs	r1, #60	; 0x3c
 80016fe:	4648      	mov	r0, r9
 8001700:	f001 f9c0 	bl	8002a84 <HAL_TIM_Encoder_Start_IT>
 8001704:	462a      	mov	r2, r5
 8001706:	2110      	movs	r1, #16
 8001708:	4819      	ldr	r0, [pc, #100]	; (8001770 <main+0x330>)
 800170a:	f000 fcbd 	bl	8002088 <HAL_GPIO_WritePin>
 800170e:	463a      	mov	r2, r7
 8001710:	2120      	movs	r1, #32
 8001712:	4817      	ldr	r0, [pc, #92]	; (8001770 <main+0x330>)
 8001714:	f000 fcb8 	bl	8002088 <HAL_GPIO_WritePin>
 8001718:	462a      	mov	r2, r5
 800171a:	f44f 7100 	mov.w	r1, #512	; 0x200
 800171e:	4814      	ldr	r0, [pc, #80]	; (8001770 <main+0x330>)
 8001720:	f000 fcb2 	bl	8002088 <HAL_GPIO_WritePin>
 8001724:	463a      	mov	r2, r7
 8001726:	f44f 6100 	mov.w	r1, #2048	; 0x800
 800172a:	4811      	ldr	r0, [pc, #68]	; (8001770 <main+0x330>)
 800172c:	f000 fcac 	bl	8002088 <HAL_GPIO_WritePin>
 8001730:	f8da 2000 	ldr.w	r2, [sl]
 8001734:	f8d9 3000 	ldr.w	r3, [r9]
 8001738:	4c0b      	ldr	r4, [pc, #44]	; (8001768 <main+0x328>)
 800173a:	6255      	str	r5, [r2, #36]	; 0x24
 800173c:	625d      	str	r5, [r3, #36]	; 0x24
 800173e:	2201      	movs	r2, #1
 8001740:	f44f 5100 	mov.w	r1, #8192	; 0x2000
 8001744:	4620      	mov	r0, r4
 8001746:	f000 fc9f 	bl	8002088 <HAL_GPIO_WritePin>
 800174a:	2064      	movs	r0, #100	; 0x64
 800174c:	f000 fad6 	bl	8001cfc <HAL_Delay>
 8001750:	4620      	mov	r0, r4
 8001752:	2200      	movs	r2, #0
 8001754:	f44f 5100 	mov.w	r1, #8192	; 0x2000
 8001758:	f000 fc96 	bl	8002088 <HAL_GPIO_WritePin>
 800175c:	2064      	movs	r0, #100	; 0x64
 800175e:	f000 facd 	bl	8001cfc <HAL_Delay>
 8001762:	e7ec      	b.n	800173e <main+0x2fe>
 8001764:	40021000 	.word	0x40021000
 8001768:	40011000 	.word	0x40011000
 800176c:	200003e4 	.word	0x200003e4
 8001770:	40010800 	.word	0x40010800
 8001774:	40004400 	.word	0x40004400
 8001778:	200003a4 	.word	0x200003a4
 800177c:	40012c00 	.word	0x40012c00
 8001780:	40000400 	.word	0x40000400
 8001784:	40000800 	.word	0x40000800
 8001788:	200003a0 	.word	0x200003a0
 800178c:	20000424 	.word	0x20000424
 8001790:	20000338 	.word	0x20000338
 8001794:	200002f4 	.word	0x200002f4

08001798 <RetargetInit>:
 8001798:	2300      	movs	r3, #0
 800179a:	4a04      	ldr	r2, [pc, #16]	; (80017ac <RetargetInit+0x14>)
 800179c:	4904      	ldr	r1, [pc, #16]	; (80017b0 <RetargetInit+0x18>)
 800179e:	6812      	ldr	r2, [r2, #0]
 80017a0:	6008      	str	r0, [r1, #0]
 80017a2:	6890      	ldr	r0, [r2, #8]
 80017a4:	4619      	mov	r1, r3
 80017a6:	2202      	movs	r2, #2
 80017a8:	f002 beba 	b.w	8004520 <setvbuf>
 80017ac:	20000024 	.word	0x20000024
 80017b0:	20000464 	.word	0x20000464

080017b4 <_isatty>:
 80017b4:	2802      	cmp	r0, #2
 80017b6:	b508      	push	{r3, lr}
 80017b8:	d802      	bhi.n	80017c0 <_isatty+0xc>
 80017ba:	2301      	movs	r3, #1
 80017bc:	4618      	mov	r0, r3
 80017be:	bd08      	pop	{r3, pc}
 80017c0:	f001 ffd0 	bl	8003764 <__errno>
 80017c4:	2209      	movs	r2, #9
 80017c6:	2300      	movs	r3, #0
 80017c8:	6002      	str	r2, [r0, #0]
 80017ca:	4618      	mov	r0, r3
 80017cc:	bd08      	pop	{r3, pc}
 80017ce:	bf00      	nop

080017d0 <_write>:
 80017d0:	3801      	subs	r0, #1
 80017d2:	2801      	cmp	r0, #1
 80017d4:	b510      	push	{r4, lr}
 80017d6:	d80c      	bhi.n	80017f2 <_write+0x22>
 80017d8:	4614      	mov	r4, r2
 80017da:	4a09      	ldr	r2, [pc, #36]	; (8001800 <_write+0x30>)
 80017dc:	f04f 33ff 	mov.w	r3, #4294967295	; 0xffffffff
 80017e0:	6810      	ldr	r0, [r2, #0]
 80017e2:	b2a2      	uxth	r2, r4
 80017e4:	f001 fd60 	bl	80032a8 <HAL_UART_Transmit>
 80017e8:	2800      	cmp	r0, #0
 80017ea:	bf18      	it	ne
 80017ec:	2405      	movne	r4, #5
 80017ee:	4620      	mov	r0, r4
 80017f0:	bd10      	pop	{r4, pc}
 80017f2:	f001 ffb7 	bl	8003764 <__errno>
 80017f6:	2309      	movs	r3, #9
 80017f8:	f04f 34ff 	mov.w	r4, #4294967295	; 0xffffffff
 80017fc:	6003      	str	r3, [r0, #0]
 80017fe:	e7f6      	b.n	80017ee <_write+0x1e>
 8001800:	20000464 	.word	0x20000464

08001804 <_close>:
 8001804:	2802      	cmp	r0, #2
 8001806:	b508      	push	{r3, lr}
 8001808:	bf98      	it	ls
 800180a:	2300      	movls	r3, #0
 800180c:	d801      	bhi.n	8001812 <_close+0xe>
 800180e:	4618      	mov	r0, r3
 8001810:	bd08      	pop	{r3, pc}
 8001812:	f001 ffa7 	bl	8003764 <__errno>
 8001816:	2209      	movs	r2, #9
 8001818:	f04f 33ff 	mov.w	r3, #4294967295	; 0xffffffff
 800181c:	6002      	str	r2, [r0, #0]
 800181e:	e7f6      	b.n	800180e <_close+0xa>

08001820 <_lseek>:
 8001820:	b508      	push	{r3, lr}
 8001822:	f001 ff9f 	bl	8003764 <__errno>
 8001826:	2309      	movs	r3, #9
 8001828:	6003      	str	r3, [r0, #0]
 800182a:	f04f 30ff 	mov.w	r0, #4294967295	; 0xffffffff
 800182e:	bd08      	pop	{r3, pc}

08001830 <_read>:
 8001830:	b508      	push	{r3, lr}
 8001832:	b960      	cbnz	r0, 800184e <_read+0x1e>
 8001834:	4a09      	ldr	r2, [pc, #36]	; (800185c <_read+0x2c>)
 8001836:	f04f 33ff 	mov.w	r3, #4294967295	; 0xffffffff
 800183a:	6810      	ldr	r0, [r2, #0]
 800183c:	2201      	movs	r2, #1
 800183e:	f001 fdbd 	bl	80033bc <HAL_UART_Receive>
 8001842:	2800      	cmp	r0, #0
 8001844:	bf0c      	ite	eq
 8001846:	2301      	moveq	r3, #1
 8001848:	2305      	movne	r3, #5
 800184a:	4618      	mov	r0, r3
 800184c:	bd08      	pop	{r3, pc}
 800184e:	f001 ff89 	bl	8003764 <__errno>
 8001852:	2209      	movs	r2, #9
 8001854:	f04f 33ff 	mov.w	r3, #4294967295	; 0xffffffff
 8001858:	6002      	str	r2, [r0, #0]
 800185a:	e7f6      	b.n	800184a <_read+0x1a>
 800185c:	20000464 	.word	0x20000464

08001860 <_fstat>:
 8001860:	2802      	cmp	r0, #2
 8001862:	b508      	push	{r3, lr}
 8001864:	d804      	bhi.n	8001870 <_fstat+0x10>
 8001866:	f44f 5300 	mov.w	r3, #8192	; 0x2000
 800186a:	2000      	movs	r0, #0
 800186c:	604b      	str	r3, [r1, #4]
 800186e:	bd08      	pop	{r3, pc}
 8001870:	f001 ff78 	bl	8003764 <__errno>
 8001874:	2309      	movs	r3, #9
 8001876:	6003      	str	r3, [r0, #0]
 8001878:	2000      	movs	r0, #0
 800187a:	bd08      	pop	{r3, pc}

0800187c <HAL_MspInit>:
 800187c:	4b0e      	ldr	r3, [pc, #56]	; (80018b8 <HAL_MspInit+0x3c>)
 800187e:	b082      	sub	sp, #8
 8001880:	699a      	ldr	r2, [r3, #24]
 8001882:	490e      	ldr	r1, [pc, #56]	; (80018bc <HAL_MspInit+0x40>)
 8001884:	f042 0201 	orr.w	r2, r2, #1
 8001888:	619a      	str	r2, [r3, #24]
 800188a:	699a      	ldr	r2, [r3, #24]
 800188c:	f002 0201 	and.w	r2, r2, #1
 8001890:	9200      	str	r2, [sp, #0]
 8001892:	9a00      	ldr	r2, [sp, #0]
 8001894:	69da      	ldr	r2, [r3, #28]
 8001896:	f042 5280 	orr.w	r2, r2, #268435456	; 0x10000000
 800189a:	61da      	str	r2, [r3, #28]
 800189c:	69db      	ldr	r3, [r3, #28]
 800189e:	f003 5380 	and.w	r3, r3, #268435456	; 0x10000000
 80018a2:	9301      	str	r3, [sp, #4]
 80018a4:	9b01      	ldr	r3, [sp, #4]
 80018a6:	684b      	ldr	r3, [r1, #4]
 80018a8:	f023 63e0 	bic.w	r3, r3, #117440512	; 0x7000000
 80018ac:	f043 7300 	orr.w	r3, r3, #33554432	; 0x2000000
 80018b0:	604b      	str	r3, [r1, #4]
 80018b2:	b002      	add	sp, #8
 80018b4:	4770      	bx	lr
 80018b6:	bf00      	nop
 80018b8:	40021000 	.word	0x40021000
 80018bc:	40010000 	.word	0x40010000

080018c0 <HAL_TIM_Base_MspInit>:
 80018c0:	b510      	push	{r4, lr}
 80018c2:	6803      	ldr	r3, [r0, #0]
 80018c4:	4a20      	ldr	r2, [pc, #128]	; (8001948 <HAL_TIM_Base_MspInit+0x88>)
 80018c6:	b082      	sub	sp, #8
 80018c8:	4293      	cmp	r3, r2
 80018ca:	d00f      	beq.n	80018ec <HAL_TIM_Base_MspInit+0x2c>
 80018cc:	f1b3 4f80 	cmp.w	r3, #1073741824	; 0x40000000
 80018d0:	d10a      	bne.n	80018e8 <HAL_TIM_Base_MspInit+0x28>
 80018d2:	f503 3304 	add.w	r3, r3, #135168	; 0x21000
 80018d6:	69da      	ldr	r2, [r3, #28]
 80018d8:	f042 0201 	orr.w	r2, r2, #1
 80018dc:	61da      	str	r2, [r3, #28]
 80018de:	69db      	ldr	r3, [r3, #28]
 80018e0:	f003 0301 	and.w	r3, r3, #1
 80018e4:	9301      	str	r3, [sp, #4]
 80018e6:	9b01      	ldr	r3, [sp, #4]
 80018e8:	b002      	add	sp, #8
 80018ea:	bd10      	pop	{r4, pc}
 80018ec:	2200      	movs	r2, #0
 80018ee:	4b17      	ldr	r3, [pc, #92]	; (800194c <HAL_TIM_Base_MspInit+0x8c>)
 80018f0:	4611      	mov	r1, r2
 80018f2:	699c      	ldr	r4, [r3, #24]
 80018f4:	2018      	movs	r0, #24
 80018f6:	f444 6400 	orr.w	r4, r4, #2048	; 0x800
 80018fa:	619c      	str	r4, [r3, #24]
 80018fc:	699b      	ldr	r3, [r3, #24]
 80018fe:	f403 6300 	and.w	r3, r3, #2048	; 0x800
 8001902:	9300      	str	r3, [sp, #0]
 8001904:	9b00      	ldr	r3, [sp, #0]
 8001906:	f000 fa1d 	bl	8001d44 <HAL_NVIC_SetPriority>
 800190a:	2018      	movs	r0, #24
 800190c:	f000 fa50 	bl	8001db0 <HAL_NVIC_EnableIRQ>
 8001910:	2200      	movs	r2, #0
 8001912:	2019      	movs	r0, #25
 8001914:	4611      	mov	r1, r2
 8001916:	f000 fa15 	bl	8001d44 <HAL_NVIC_SetPriority>
 800191a:	2019      	movs	r0, #25
 800191c:	f000 fa48 	bl	8001db0 <HAL_NVIC_EnableIRQ>
 8001920:	2200      	movs	r2, #0
 8001922:	201a      	movs	r0, #26
 8001924:	4611      	mov	r1, r2
 8001926:	f000 fa0d 	bl	8001d44 <HAL_NVIC_SetPriority>
 800192a:	201a      	movs	r0, #26
 800192c:	f000 fa40 	bl	8001db0 <HAL_NVIC_EnableIRQ>
 8001930:	2200      	movs	r2, #0
 8001932:	201b      	movs	r0, #27
 8001934:	4611      	mov	r1, r2
 8001936:	f000 fa05 	bl	8001d44 <HAL_NVIC_SetPriority>
 800193a:	201b      	movs	r0, #27
 800193c:	b002      	add	sp, #8
 800193e:	e8bd 4010 	ldmia.w	sp!, {r4, lr}
 8001942:	f000 ba35 	b.w	8001db0 <HAL_NVIC_EnableIRQ>
 8001946:	bf00      	nop
 8001948:	40012c00 	.word	0x40012c00
 800194c:	40021000 	.word	0x40021000

08001950 <HAL_TIM_Encoder_MspInit>:
 8001950:	b530      	push	{r4, r5, lr}
 8001952:	2400      	movs	r4, #0
 8001954:	6803      	ldr	r3, [r0, #0]
 8001956:	4a29      	ldr	r2, [pc, #164]	; (80019fc <HAL_TIM_Encoder_MspInit+0xac>)
 8001958:	b089      	sub	sp, #36	; 0x24
 800195a:	4293      	cmp	r3, r2
 800195c:	e9cd 4404 	strd	r4, r4, [sp, #16]
 8001960:	e9cd 4406 	strd	r4, r4, [sp, #24]
 8001964:	d027      	beq.n	80019b6 <HAL_TIM_Encoder_MspInit+0x66>
 8001966:	4a26      	ldr	r2, [pc, #152]	; (8001a00 <HAL_TIM_Encoder_MspInit+0xb0>)
 8001968:	4293      	cmp	r3, r2
 800196a:	d001      	beq.n	8001970 <HAL_TIM_Encoder_MspInit+0x20>
 800196c:	b009      	add	sp, #36	; 0x24
 800196e:	bd30      	pop	{r4, r5, pc}
 8001970:	25c0      	movs	r5, #192	; 0xc0
 8001972:	4b24      	ldr	r3, [pc, #144]	; (8001a04 <HAL_TIM_Encoder_MspInit+0xb4>)
 8001974:	a904      	add	r1, sp, #16
 8001976:	69da      	ldr	r2, [r3, #28]
 8001978:	4823      	ldr	r0, [pc, #140]	; (8001a08 <HAL_TIM_Encoder_MspInit+0xb8>)
 800197a:	f042 0204 	orr.w	r2, r2, #4
 800197e:	61da      	str	r2, [r3, #28]
 8001980:	69da      	ldr	r2, [r3, #28]
 8001982:	f002 0204 	and.w	r2, r2, #4
 8001986:	9202      	str	r2, [sp, #8]
 8001988:	9a02      	ldr	r2, [sp, #8]
 800198a:	699a      	ldr	r2, [r3, #24]
 800198c:	f042 0208 	orr.w	r2, r2, #8
 8001990:	619a      	str	r2, [r3, #24]
 8001992:	699b      	ldr	r3, [r3, #24]
 8001994:	9504      	str	r5, [sp, #16]
 8001996:	f003 0308 	and.w	r3, r3, #8
 800199a:	9303      	str	r3, [sp, #12]
 800199c:	9b03      	ldr	r3, [sp, #12]
 800199e:	f000 fa79 	bl	8001e94 <HAL_GPIO_Init>
 80019a2:	4622      	mov	r2, r4
 80019a4:	4621      	mov	r1, r4
 80019a6:	201e      	movs	r0, #30
 80019a8:	f000 f9cc 	bl	8001d44 <HAL_NVIC_SetPriority>
 80019ac:	201e      	movs	r0, #30
 80019ae:	f000 f9ff 	bl	8001db0 <HAL_NVIC_EnableIRQ>
 80019b2:	b009      	add	sp, #36	; 0x24
 80019b4:	bd30      	pop	{r4, r5, pc}
 80019b6:	25c0      	movs	r5, #192	; 0xc0
 80019b8:	4b12      	ldr	r3, [pc, #72]	; (8001a04 <HAL_TIM_Encoder_MspInit+0xb4>)
 80019ba:	a904      	add	r1, sp, #16
 80019bc:	69da      	ldr	r2, [r3, #28]
 80019be:	4813      	ldr	r0, [pc, #76]	; (8001a0c <HAL_TIM_Encoder_MspInit+0xbc>)
 80019c0:	f042 0202 	orr.w	r2, r2, #2
 80019c4:	61da      	str	r2, [r3, #28]
 80019c6:	69da      	ldr	r2, [r3, #28]
 80019c8:	f002 0202 	and.w	r2, r2, #2
 80019cc:	9200      	str	r2, [sp, #0]
 80019ce:	9a00      	ldr	r2, [sp, #0]
 80019d0:	699a      	ldr	r2, [r3, #24]
 80019d2:	f042 0204 	orr.w	r2, r2, #4
 80019d6:	619a      	str	r2, [r3, #24]
 80019d8:	699b      	ldr	r3, [r3, #24]
 80019da:	9504      	str	r5, [sp, #16]
 80019dc:	f003 0304 	and.w	r3, r3, #4
 80019e0:	9301      	str	r3, [sp, #4]
 80019e2:	9b01      	ldr	r3, [sp, #4]
 80019e4:	f000 fa56 	bl	8001e94 <HAL_GPIO_Init>
 80019e8:	4622      	mov	r2, r4
 80019ea:	4621      	mov	r1, r4
 80019ec:	201d      	movs	r0, #29
 80019ee:	f000 f9a9 	bl	8001d44 <HAL_NVIC_SetPriority>
 80019f2:	201d      	movs	r0, #29
 80019f4:	f000 f9dc 	bl	8001db0 <HAL_NVIC_EnableIRQ>
 80019f8:	b009      	add	sp, #36	; 0x24
 80019fa:	bd30      	pop	{r4, r5, pc}
 80019fc:	40000400 	.word	0x40000400
 8001a00:	40000800 	.word	0x40000800
 8001a04:	40021000 	.word	0x40021000
 8001a08:	40010c00 	.word	0x40010c00
 8001a0c:	40010800 	.word	0x40010800

08001a10 <HAL_TIM_MspPostInit>:
 8001a10:	2300      	movs	r3, #0
 8001a12:	b510      	push	{r4, lr}
 8001a14:	6802      	ldr	r2, [r0, #0]
 8001a16:	b086      	sub	sp, #24
 8001a18:	f1b2 4f80 	cmp.w	r2, #1073741824	; 0x40000000
 8001a1c:	e9cd 3302 	strd	r3, r3, [sp, #8]
 8001a20:	e9cd 3304 	strd	r3, r3, [sp, #16]
 8001a24:	d001      	beq.n	8001a2a <HAL_TIM_MspPostInit+0x1a>
 8001a26:	b006      	add	sp, #24
 8001a28:	bd10      	pop	{r4, pc}
 8001a2a:	2001      	movs	r0, #1
 8001a2c:	2402      	movs	r4, #2
 8001a2e:	f103 4380 	add.w	r3, r3, #1073741824	; 0x40000000
 8001a32:	f503 3304 	add.w	r3, r3, #135168	; 0x21000
 8001a36:	699a      	ldr	r2, [r3, #24]
 8001a38:	a902      	add	r1, sp, #8
 8001a3a:	f042 0204 	orr.w	r2, r2, #4
 8001a3e:	619a      	str	r2, [r3, #24]
 8001a40:	699a      	ldr	r2, [r3, #24]
 8001a42:	f002 0204 	and.w	r2, r2, #4
 8001a46:	9200      	str	r2, [sp, #0]
 8001a48:	9a00      	ldr	r2, [sp, #0]
 8001a4a:	699a      	ldr	r2, [r3, #24]
 8001a4c:	f042 0208 	orr.w	r2, r2, #8
 8001a50:	619a      	str	r2, [r3, #24]
 8001a52:	699b      	ldr	r3, [r3, #24]
 8001a54:	9002      	str	r0, [sp, #8]
 8001a56:	f003 0308 	and.w	r3, r3, #8
 8001a5a:	9301      	str	r3, [sp, #4]
 8001a5c:	480c      	ldr	r0, [pc, #48]	; (8001a90 <HAL_TIM_MspPostInit+0x80>)
 8001a5e:	9b01      	ldr	r3, [sp, #4]
 8001a60:	9403      	str	r4, [sp, #12]
 8001a62:	9405      	str	r4, [sp, #20]
 8001a64:	f000 fa16 	bl	8001e94 <HAL_GPIO_Init>
 8001a68:	f44f 6380 	mov.w	r3, #1024	; 0x400
 8001a6c:	a902      	add	r1, sp, #8
 8001a6e:	4809      	ldr	r0, [pc, #36]	; (8001a94 <HAL_TIM_MspPostInit+0x84>)
 8001a70:	9302      	str	r3, [sp, #8]
 8001a72:	9403      	str	r4, [sp, #12]
 8001a74:	9405      	str	r4, [sp, #20]
 8001a76:	f000 fa0d 	bl	8001e94 <HAL_GPIO_Init>
 8001a7a:	4a07      	ldr	r2, [pc, #28]	; (8001a98 <HAL_TIM_MspPostInit+0x88>)
 8001a7c:	6853      	ldr	r3, [r2, #4]
 8001a7e:	f423 7340 	bic.w	r3, r3, #768	; 0x300
 8001a82:	f043 63e0 	orr.w	r3, r3, #117440512	; 0x7000000
 8001a86:	f443 7300 	orr.w	r3, r3, #512	; 0x200
 8001a8a:	6053      	str	r3, [r2, #4]
 8001a8c:	b006      	add	sp, #24
 8001a8e:	bd10      	pop	{r4, pc}
 8001a90:	40010800 	.word	0x40010800
 8001a94:	40010c00 	.word	0x40010c00
 8001a98:	40010000 	.word	0x40010000

08001a9c <HAL_UART_MspInit>:
 8001a9c:	b570      	push	{r4, r5, r6, lr}
 8001a9e:	2400      	movs	r4, #0
 8001aa0:	6802      	ldr	r2, [r0, #0]
 8001aa2:	4b1c      	ldr	r3, [pc, #112]	; (8001b14 <HAL_UART_MspInit+0x78>)
 8001aa4:	b086      	sub	sp, #24
 8001aa6:	429a      	cmp	r2, r3
 8001aa8:	e9cd 4402 	strd	r4, r4, [sp, #8]
 8001aac:	e9cd 4404 	strd	r4, r4, [sp, #16]
 8001ab0:	d001      	beq.n	8001ab6 <HAL_UART_MspInit+0x1a>
 8001ab2:	b006      	add	sp, #24
 8001ab4:	bd70      	pop	{r4, r5, r6, pc}
 8001ab6:	2104      	movs	r1, #4
 8001ab8:	2602      	movs	r6, #2
 8001aba:	2503      	movs	r5, #3
 8001abc:	f503 33e6 	add.w	r3, r3, #117760	; 0x1cc00
 8001ac0:	69da      	ldr	r2, [r3, #28]
 8001ac2:	4815      	ldr	r0, [pc, #84]	; (8001b18 <HAL_UART_MspInit+0x7c>)
 8001ac4:	f442 3200 	orr.w	r2, r2, #131072	; 0x20000
 8001ac8:	61da      	str	r2, [r3, #28]
 8001aca:	69da      	ldr	r2, [r3, #28]
 8001acc:	f402 3200 	and.w	r2, r2, #131072	; 0x20000
 8001ad0:	9200      	str	r2, [sp, #0]
 8001ad2:	9a00      	ldr	r2, [sp, #0]
 8001ad4:	699a      	ldr	r2, [r3, #24]
 8001ad6:	430a      	orrs	r2, r1
 8001ad8:	619a      	str	r2, [r3, #24]
 8001ada:	699b      	ldr	r3, [r3, #24]
 8001adc:	9102      	str	r1, [sp, #8]
 8001ade:	400b      	ands	r3, r1
 8001ae0:	9301      	str	r3, [sp, #4]
 8001ae2:	a902      	add	r1, sp, #8
 8001ae4:	9b01      	ldr	r3, [sp, #4]
 8001ae6:	9603      	str	r6, [sp, #12]
 8001ae8:	9505      	str	r5, [sp, #20]
 8001aea:	f000 f9d3 	bl	8001e94 <HAL_GPIO_Init>
 8001aee:	2308      	movs	r3, #8
 8001af0:	4809      	ldr	r0, [pc, #36]	; (8001b18 <HAL_UART_MspInit+0x7c>)
 8001af2:	eb0d 0103 	add.w	r1, sp, r3
 8001af6:	9302      	str	r3, [sp, #8]
 8001af8:	e9cd 4403 	strd	r4, r4, [sp, #12]
 8001afc:	f000 f9ca 	bl	8001e94 <HAL_GPIO_Init>
 8001b00:	4622      	mov	r2, r4
 8001b02:	4621      	mov	r1, r4
 8001b04:	2026      	movs	r0, #38	; 0x26
 8001b06:	f000 f91d 	bl	8001d44 <HAL_NVIC_SetPriority>
 8001b0a:	2026      	movs	r0, #38	; 0x26
 8001b0c:	f000 f950 	bl	8001db0 <HAL_NVIC_EnableIRQ>
 8001b10:	b006      	add	sp, #24
 8001b12:	bd70      	pop	{r4, r5, r6, pc}
 8001b14:	40004400 	.word	0x40004400
 8001b18:	40010800 	.word	0x40010800

08001b1c <NMI_Handler>:
 8001b1c:	4770      	bx	lr
 8001b1e:	bf00      	nop

08001b20 <HardFault_Handler>:
 8001b20:	e7fe      	b.n	8001b20 <HardFault_Handler>
 8001b22:	bf00      	nop

08001b24 <MemManage_Handler>:
 8001b24:	e7fe      	b.n	8001b24 <MemManage_Handler>
 8001b26:	bf00      	nop

08001b28 <BusFault_Handler>:
 8001b28:	e7fe      	b.n	8001b28 <BusFault_Handler>
 8001b2a:	bf00      	nop

08001b2c <UsageFault_Handler>:
 8001b2c:	e7fe      	b.n	8001b2c <UsageFault_Handler>
 8001b2e:	bf00      	nop

08001b30 <SVC_Handler>:
 8001b30:	4770      	bx	lr
 8001b32:	bf00      	nop

08001b34 <DebugMon_Handler>:
 8001b34:	4770      	bx	lr
 8001b36:	bf00      	nop

08001b38 <PendSV_Handler>:
 8001b38:	4770      	bx	lr
 8001b3a:	bf00      	nop

08001b3c <SysTick_Handler>:
 8001b3c:	f000 b8cc 	b.w	8001cd8 <HAL_IncTick>

08001b40 <TIM1_BRK_IRQHandler>:
 8001b40:	4801      	ldr	r0, [pc, #4]	; (8001b48 <TIM1_BRK_IRQHandler+0x8>)
 8001b42:	f001 ba4d 	b.w	8002fe0 <HAL_TIM_IRQHandler>
 8001b46:	bf00      	nop
 8001b48:	200003a4 	.word	0x200003a4

08001b4c <TIM1_UP_IRQHandler>:
 8001b4c:	4801      	ldr	r0, [pc, #4]	; (8001b54 <TIM1_UP_IRQHandler+0x8>)
 8001b4e:	f001 ba47 	b.w	8002fe0 <HAL_TIM_IRQHandler>
 8001b52:	bf00      	nop
 8001b54:	200003a4 	.word	0x200003a4

08001b58 <TIM1_TRG_COM_IRQHandler>:
 8001b58:	4801      	ldr	r0, [pc, #4]	; (8001b60 <TIM1_TRG_COM_IRQHandler+0x8>)
 8001b5a:	f001 ba41 	b.w	8002fe0 <HAL_TIM_IRQHandler>
 8001b5e:	bf00      	nop
 8001b60:	200003a4 	.word	0x200003a4

08001b64 <TIM1_CC_IRQHandler>:
 8001b64:	4801      	ldr	r0, [pc, #4]	; (8001b6c <TIM1_CC_IRQHandler+0x8>)
 8001b66:	f001 ba3b 	b.w	8002fe0 <HAL_TIM_IRQHandler>
 8001b6a:	bf00      	nop
 8001b6c:	200003a4 	.word	0x200003a4

08001b70 <TIM3_IRQHandler>:
 8001b70:	4801      	ldr	r0, [pc, #4]	; (8001b78 <TIM3_IRQHandler+0x8>)
 8001b72:	f001 ba35 	b.w	8002fe0 <HAL_TIM_IRQHandler>
 8001b76:	bf00      	nop
 8001b78:	20000338 	.word	0x20000338

08001b7c <TIM4_IRQHandler>:
 8001b7c:	4801      	ldr	r0, [pc, #4]	; (8001b84 <TIM4_IRQHandler+0x8>)
 8001b7e:	f001 ba2f 	b.w	8002fe0 <HAL_TIM_IRQHandler>
 8001b82:	bf00      	nop
 8001b84:	200002f4 	.word	0x200002f4

08001b88 <USART2_IRQHandler>:
 8001b88:	4801      	ldr	r0, [pc, #4]	; (8001b90 <USART2_IRQHandler+0x8>)
 8001b8a:	f001 bd1b 	b.w	80035c4 <HAL_UART_IRQHandler>
 8001b8e:	bf00      	nop
 8001b90:	20000424 	.word	0x20000424

08001b94 <_sbrk>:
 8001b94:	4a0c      	ldr	r2, [pc, #48]	; (8001bc8 <_sbrk+0x34>)
 8001b96:	b508      	push	{r3, lr}
 8001b98:	6813      	ldr	r3, [r2, #0]
 8001b9a:	b133      	cbz	r3, 8001baa <_sbrk+0x16>
 8001b9c:	4669      	mov	r1, sp
 8001b9e:	4418      	add	r0, r3
 8001ba0:	4288      	cmp	r0, r1
 8001ba2:	d809      	bhi.n	8001bb8 <_sbrk+0x24>
 8001ba4:	6010      	str	r0, [r2, #0]
 8001ba6:	4618      	mov	r0, r3
 8001ba8:	bd08      	pop	{r3, pc}
 8001baa:	4908      	ldr	r1, [pc, #32]	; (8001bcc <_sbrk+0x38>)
 8001bac:	460b      	mov	r3, r1
 8001bae:	6011      	str	r1, [r2, #0]
 8001bb0:	4669      	mov	r1, sp
 8001bb2:	4418      	add	r0, r3
 8001bb4:	4288      	cmp	r0, r1
 8001bb6:	d9f5      	bls.n	8001ba4 <_sbrk+0x10>
 8001bb8:	f001 fdd4 	bl	8003764 <__errno>
 8001bbc:	220c      	movs	r2, #12
 8001bbe:	f04f 33ff 	mov.w	r3, #4294967295	; 0xffffffff
 8001bc2:	6002      	str	r2, [r0, #0]
 8001bc4:	4618      	mov	r0, r3
 8001bc6:	bd08      	pop	{r3, pc}
 8001bc8:	200002e8 	.word	0x200002e8
 8001bcc:	20000470 	.word	0x20000470

08001bd0 <SystemInit>:
 8001bd0:	b430      	push	{r4, r5}
 8001bd2:	f44f 051f 	mov.w	r5, #10420224	; 0x9f0000
 8001bd6:	f04f 6400 	mov.w	r4, #134217728	; 0x8000000
 8001bda:	4b0e      	ldr	r3, [pc, #56]	; (8001c14 <SystemInit+0x44>)
 8001bdc:	4a0e      	ldr	r2, [pc, #56]	; (8001c18 <SystemInit+0x48>)
 8001bde:	6819      	ldr	r1, [r3, #0]
 8001be0:	480e      	ldr	r0, [pc, #56]	; (8001c1c <SystemInit+0x4c>)
 8001be2:	f041 0101 	orr.w	r1, r1, #1
 8001be6:	6019      	str	r1, [r3, #0]
 8001be8:	6859      	ldr	r1, [r3, #4]
 8001bea:	400a      	ands	r2, r1
 8001bec:	605a      	str	r2, [r3, #4]
 8001bee:	681a      	ldr	r2, [r3, #0]
 8001bf0:	f022 7284 	bic.w	r2, r2, #17301504	; 0x1080000
 8001bf4:	f422 3280 	bic.w	r2, r2, #65536	; 0x10000
 8001bf8:	601a      	str	r2, [r3, #0]
 8001bfa:	681a      	ldr	r2, [r3, #0]
 8001bfc:	f422 2280 	bic.w	r2, r2, #262144	; 0x40000
 8001c00:	601a      	str	r2, [r3, #0]
 8001c02:	685a      	ldr	r2, [r3, #4]
 8001c04:	f422 02fe 	bic.w	r2, r2, #8323072	; 0x7f0000
 8001c08:	605a      	str	r2, [r3, #4]
 8001c0a:	609d      	str	r5, [r3, #8]
 8001c0c:	6084      	str	r4, [r0, #8]
 8001c0e:	bc30      	pop	{r4, r5}
 8001c10:	4770      	bx	lr
 8001c12:	bf00      	nop
 8001c14:	40021000 	.word	0x40021000
 8001c18:	f8ff0000 	.word	0xf8ff0000
 8001c1c:	e000ed00 	.word	0xe000ed00

08001c20 <Reset_Handler>:
 8001c20:	2100      	movs	r1, #0
 8001c22:	e003      	b.n	8001c2c <LoopCopyDataInit>

08001c24 <CopyDataInit>:
 8001c24:	4b0b      	ldr	r3, [pc, #44]	; (8001c54 <LoopFillZerobss+0x14>)
 8001c26:	585b      	ldr	r3, [r3, r1]
 8001c28:	5043      	str	r3, [r0, r1]
 8001c2a:	3104      	adds	r1, #4

08001c2c <LoopCopyDataInit>:
 8001c2c:	480a      	ldr	r0, [pc, #40]	; (8001c58 <LoopFillZerobss+0x18>)
 8001c2e:	4b0b      	ldr	r3, [pc, #44]	; (8001c5c <LoopFillZerobss+0x1c>)
 8001c30:	1842      	adds	r2, r0, r1
 8001c32:	429a      	cmp	r2, r3
 8001c34:	d3f6      	bcc.n	8001c24 <CopyDataInit>
 8001c36:	4a0a      	ldr	r2, [pc, #40]	; (8001c60 <LoopFillZerobss+0x20>)
 8001c38:	e002      	b.n	8001c40 <LoopFillZerobss>

08001c3a <FillZerobss>:
 8001c3a:	2300      	movs	r3, #0
 8001c3c:	f842 3b04 	str.w	r3, [r2], #4

08001c40 <LoopFillZerobss>:
 8001c40:	4b08      	ldr	r3, [pc, #32]	; (8001c64 <LoopFillZerobss+0x24>)
 8001c42:	429a      	cmp	r2, r3
 8001c44:	d3f9      	bcc.n	8001c3a <FillZerobss>
 8001c46:	f7ff ffc3 	bl	8001bd0 <SystemInit>
 8001c4a:	f001 fd91 	bl	8003770 <__libc_init_array>
 8001c4e:	f7ff fbf7 	bl	8001440 <main>
 8001c52:	4770      	bx	lr
 8001c54:	08008278 	.word	0x08008278
 8001c58:	20000000 	.word	0x20000000
 8001c5c:	200001f4 	.word	0x200001f4
 8001c60:	200001f8 	.word	0x200001f8
 8001c64:	20000470 	.word	0x20000470

08001c68 <ADC1_2_IRQHandler>:
 8001c68:	e7fe      	b.n	8001c68 <ADC1_2_IRQHandler>
	...

08001c6c <HAL_InitTick>:
 8001c6c:	b538      	push	{r3, r4, r5, lr}
 8001c6e:	f44f 737a 	mov.w	r3, #1000	; 0x3e8
 8001c72:	490d      	ldr	r1, [pc, #52]	; (8001ca8 <HAL_InitTick+0x3c>)
 8001c74:	4a0d      	ldr	r2, [pc, #52]	; (8001cac <HAL_InitTick+0x40>)
 8001c76:	7809      	ldrb	r1, [r1, #0]
 8001c78:	6812      	ldr	r2, [r2, #0]
 8001c7a:	fbb3 f3f1 	udiv	r3, r3, r1
 8001c7e:	4605      	mov	r5, r0
 8001c80:	fbb2 f0f3 	udiv	r0, r2, r3
 8001c84:	f000 f8a2 	bl	8001dcc <HAL_SYSTICK_Config>
 8001c88:	b908      	cbnz	r0, 8001c8e <HAL_InitTick+0x22>
 8001c8a:	2d0f      	cmp	r5, #15
 8001c8c:	d901      	bls.n	8001c92 <HAL_InitTick+0x26>
 8001c8e:	2001      	movs	r0, #1
 8001c90:	bd38      	pop	{r3, r4, r5, pc}
 8001c92:	4604      	mov	r4, r0
 8001c94:	4602      	mov	r2, r0
 8001c96:	4629      	mov	r1, r5
 8001c98:	f04f 30ff 	mov.w	r0, #4294967295	; 0xffffffff
 8001c9c:	f000 f852 	bl	8001d44 <HAL_NVIC_SetPriority>
 8001ca0:	4b03      	ldr	r3, [pc, #12]	; (8001cb0 <HAL_InitTick+0x44>)
 8001ca2:	4620      	mov	r0, r4
 8001ca4:	601d      	str	r5, [r3, #0]
 8001ca6:	bd38      	pop	{r3, r4, r5, pc}
 8001ca8:	2000001c 	.word	0x2000001c
 8001cac:	20000018 	.word	0x20000018
 8001cb0:	20000020 	.word	0x20000020

08001cb4 <HAL_Init>:
 8001cb4:	4a07      	ldr	r2, [pc, #28]	; (8001cd4 <HAL_Init+0x20>)
 8001cb6:	b508      	push	{r3, lr}
 8001cb8:	6813      	ldr	r3, [r2, #0]
 8001cba:	2003      	movs	r0, #3
 8001cbc:	f043 0310 	orr.w	r3, r3, #16
 8001cc0:	6013      	str	r3, [r2, #0]
 8001cc2:	f000 f82d 	bl	8001d20 <HAL_NVIC_SetPriorityGrouping>
 8001cc6:	2000      	movs	r0, #0
 8001cc8:	f7ff ffd0 	bl	8001c6c <HAL_InitTick>
 8001ccc:	f7ff fdd6 	bl	800187c <HAL_MspInit>
 8001cd0:	2000      	movs	r0, #0
 8001cd2:	bd08      	pop	{r3, pc}
 8001cd4:	40022000 	.word	0x40022000

08001cd8 <HAL_IncTick>:
 8001cd8:	4a03      	ldr	r2, [pc, #12]	; (8001ce8 <HAL_IncTick+0x10>)
 8001cda:	4b04      	ldr	r3, [pc, #16]	; (8001cec <HAL_IncTick+0x14>)
 8001cdc:	6811      	ldr	r1, [r2, #0]
 8001cde:	781b      	ldrb	r3, [r3, #0]
 8001ce0:	440b      	add	r3, r1
 8001ce2:	6013      	str	r3, [r2, #0]
 8001ce4:	4770      	bx	lr
 8001ce6:	bf00      	nop
 8001ce8:	20000468 	.word	0x20000468
 8001cec:	2000001c 	.word	0x2000001c

08001cf0 <HAL_GetTick>:
 8001cf0:	4b01      	ldr	r3, [pc, #4]	; (8001cf8 <HAL_GetTick+0x8>)
 8001cf2:	6818      	ldr	r0, [r3, #0]
 8001cf4:	4770      	bx	lr
 8001cf6:	bf00      	nop
 8001cf8:	20000468 	.word	0x20000468

08001cfc <HAL_Delay>:
 8001cfc:	b538      	push	{r3, r4, r5, lr}
 8001cfe:	4604      	mov	r4, r0
 8001d00:	f7ff fff6 	bl	8001cf0 <HAL_GetTick>
 8001d04:	1c63      	adds	r3, r4, #1
 8001d06:	4605      	mov	r5, r0
 8001d08:	d002      	beq.n	8001d10 <HAL_Delay+0x14>
 8001d0a:	4b04      	ldr	r3, [pc, #16]	; (8001d1c <HAL_Delay+0x20>)
 8001d0c:	781b      	ldrb	r3, [r3, #0]
 8001d0e:	441c      	add	r4, r3
 8001d10:	f7ff ffee 	bl	8001cf0 <HAL_GetTick>
 8001d14:	1b40      	subs	r0, r0, r5
 8001d16:	42a0      	cmp	r0, r4
 8001d18:	d3fa      	bcc.n	8001d10 <HAL_Delay+0x14>
 8001d1a:	bd38      	pop	{r3, r4, r5, pc}
 8001d1c:	2000001c 	.word	0x2000001c

08001d20 <HAL_NVIC_SetPriorityGrouping>:
 8001d20:	f64f 01ff 	movw	r1, #63743	; 0xf8ff
 8001d24:	4a06      	ldr	r2, [pc, #24]	; (8001d40 <HAL_NVIC_SetPriorityGrouping+0x20>)
 8001d26:	0200      	lsls	r0, r0, #8
 8001d28:	68d3      	ldr	r3, [r2, #12]
 8001d2a:	f400 60e0 	and.w	r0, r0, #1792	; 0x700
 8001d2e:	400b      	ands	r3, r1
 8001d30:	f043 63bf 	orr.w	r3, r3, #100139008	; 0x5f80000
 8001d34:	f443 3300 	orr.w	r3, r3, #131072	; 0x20000
 8001d38:	4303      	orrs	r3, r0
 8001d3a:	60d3      	str	r3, [r2, #12]
 8001d3c:	4770      	bx	lr
 8001d3e:	bf00      	nop
 8001d40:	e000ed00 	.word	0xe000ed00

08001d44 <HAL_NVIC_SetPriority>:
 8001d44:	4b18      	ldr	r3, [pc, #96]	; (8001da8 <HAL_NVIC_SetPriority+0x64>)
 8001d46:	b430      	push	{r4, r5}
 8001d48:	68db      	ldr	r3, [r3, #12]
 8001d4a:	f3c3 2302 	ubfx	r3, r3, #8, #3
 8001d4e:	f1c3 0507 	rsb	r5, r3, #7
 8001d52:	2d04      	cmp	r5, #4
 8001d54:	f103 0404 	add.w	r4, r3, #4
 8001d58:	bf28      	it	cs
 8001d5a:	2504      	movcs	r5, #4
 8001d5c:	2c06      	cmp	r4, #6
 8001d5e:	d919      	bls.n	8001d94 <HAL_NVIC_SetPriority+0x50>
 8001d60:	f04f 34ff 	mov.w	r4, #4294967295	; 0xffffffff
 8001d64:	3b03      	subs	r3, #3
 8001d66:	409c      	lsls	r4, r3
 8001d68:	ea22 0404 	bic.w	r4, r2, r4
 8001d6c:	f04f 32ff 	mov.w	r2, #4294967295	; 0xffffffff
 8001d70:	40aa      	lsls	r2, r5
 8001d72:	ea21 0102 	bic.w	r1, r1, r2
 8001d76:	fa01 f203 	lsl.w	r2, r1, r3
 8001d7a:	4322      	orrs	r2, r4
 8001d7c:	0112      	lsls	r2, r2, #4
 8001d7e:	2800      	cmp	r0, #0
 8001d80:	b2d2      	uxtb	r2, r2
 8001d82:	db0a      	blt.n	8001d9a <HAL_NVIC_SetPriority+0x56>
 8001d84:	f100 4060 	add.w	r0, r0, #3758096384	; 0xe0000000
 8001d88:	f500 4061 	add.w	r0, r0, #57600	; 0xe100
 8001d8c:	f880 2300 	strb.w	r2, [r0, #768]	; 0x300
 8001d90:	bc30      	pop	{r4, r5}
 8001d92:	4770      	bx	lr
 8001d94:	2400      	movs	r4, #0
 8001d96:	4623      	mov	r3, r4
 8001d98:	e7e8      	b.n	8001d6c <HAL_NVIC_SetPriority+0x28>
 8001d9a:	4b04      	ldr	r3, [pc, #16]	; (8001dac <HAL_NVIC_SetPriority+0x68>)
 8001d9c:	f000 000f 	and.w	r0, r0, #15
 8001da0:	4403      	add	r3, r0
 8001da2:	761a      	strb	r2, [r3, #24]
 8001da4:	bc30      	pop	{r4, r5}
 8001da6:	4770      	bx	lr
 8001da8:	e000ed00 	.word	0xe000ed00
 8001dac:	e000ecfc 	.word	0xe000ecfc

08001db0 <HAL_NVIC_EnableIRQ>:
 8001db0:	2800      	cmp	r0, #0
 8001db2:	db07      	blt.n	8001dc4 <HAL_NVIC_EnableIRQ+0x14>
 8001db4:	2301      	movs	r3, #1
 8001db6:	f000 011f 	and.w	r1, r0, #31
 8001dba:	4a03      	ldr	r2, [pc, #12]	; (8001dc8 <HAL_NVIC_EnableIRQ+0x18>)
 8001dbc:	408b      	lsls	r3, r1
 8001dbe:	0940      	lsrs	r0, r0, #5
 8001dc0:	f842 3020 	str.w	r3, [r2, r0, lsl #2]
 8001dc4:	4770      	bx	lr
 8001dc6:	bf00      	nop
 8001dc8:	e000e100 	.word	0xe000e100

08001dcc <HAL_SYSTICK_Config>:
 8001dcc:	3801      	subs	r0, #1
 8001dce:	f1b0 7f80 	cmp.w	r0, #16777216	; 0x1000000
 8001dd2:	d20d      	bcs.n	8001df0 <HAL_SYSTICK_Config+0x24>
 8001dd4:	b430      	push	{r4, r5}
 8001dd6:	25f0      	movs	r5, #240	; 0xf0
 8001dd8:	2200      	movs	r2, #0
 8001dda:	2107      	movs	r1, #7
 8001ddc:	4b05      	ldr	r3, [pc, #20]	; (8001df4 <HAL_SYSTICK_Config+0x28>)
 8001dde:	4c06      	ldr	r4, [pc, #24]	; (8001df8 <HAL_SYSTICK_Config+0x2c>)
 8001de0:	6058      	str	r0, [r3, #4]
 8001de2:	f884 5023 	strb.w	r5, [r4, #35]	; 0x23
 8001de6:	4610      	mov	r0, r2
 8001de8:	bc30      	pop	{r4, r5}
 8001dea:	609a      	str	r2, [r3, #8]
 8001dec:	6019      	str	r1, [r3, #0]
 8001dee:	4770      	bx	lr
 8001df0:	2001      	movs	r0, #1
 8001df2:	4770      	bx	lr
 8001df4:	e000e010 	.word	0xe000e010
 8001df8:	e000ed00 	.word	0xe000ed00

08001dfc <HAL_DMA_Abort_IT>:
 8001dfc:	b538      	push	{r3, r4, r5, lr}
 8001dfe:	f890 3021 	ldrb.w	r3, [r0, #33]	; 0x21
 8001e02:	2b02      	cmp	r3, #2
 8001e04:	d004      	beq.n	8001e10 <HAL_DMA_Abort_IT+0x14>
 8001e06:	2204      	movs	r2, #4
 8001e08:	2401      	movs	r4, #1
 8001e0a:	6382      	str	r2, [r0, #56]	; 0x38
 8001e0c:	4620      	mov	r0, r4
 8001e0e:	bd38      	pop	{r3, r4, r5, pc}
 8001e10:	6803      	ldr	r3, [r0, #0]
 8001e12:	491d      	ldr	r1, [pc, #116]	; (8001e88 <HAL_DMA_Abort_IT+0x8c>)
 8001e14:	681a      	ldr	r2, [r3, #0]
 8001e16:	428b      	cmp	r3, r1
 8001e18:	f022 020e 	bic.w	r2, r2, #14
 8001e1c:	601a      	str	r2, [r3, #0]
 8001e1e:	681a      	ldr	r2, [r3, #0]
 8001e20:	f022 0201 	bic.w	r2, r2, #1
 8001e24:	601a      	str	r2, [r3, #0]
 8001e26:	d021      	beq.n	8001e6c <HAL_DMA_Abort_IT+0x70>
 8001e28:	4a18      	ldr	r2, [pc, #96]	; (8001e8c <HAL_DMA_Abort_IT+0x90>)
 8001e2a:	4293      	cmp	r3, r2
 8001e2c:	d01c      	beq.n	8001e68 <HAL_DMA_Abort_IT+0x6c>
 8001e2e:	3214      	adds	r2, #20
 8001e30:	4293      	cmp	r3, r2
 8001e32:	d01d      	beq.n	8001e70 <HAL_DMA_Abort_IT+0x74>
 8001e34:	3214      	adds	r2, #20
 8001e36:	4293      	cmp	r3, r2
 8001e38:	d01d      	beq.n	8001e76 <HAL_DMA_Abort_IT+0x7a>
 8001e3a:	3214      	adds	r2, #20
 8001e3c:	4293      	cmp	r3, r2
 8001e3e:	d01d      	beq.n	8001e7c <HAL_DMA_Abort_IT+0x80>
 8001e40:	3214      	adds	r2, #20
 8001e42:	4293      	cmp	r3, r2
 8001e44:	bf0c      	ite	eq
 8001e46:	f44f 1380 	moveq.w	r3, #1048576	; 0x100000
 8001e4a:	f04f 7380 	movne.w	r3, #16777216	; 0x1000000
 8001e4e:	2101      	movs	r1, #1
 8001e50:	2400      	movs	r4, #0
 8001e52:	4d0f      	ldr	r5, [pc, #60]	; (8001e90 <HAL_DMA_Abort_IT+0x94>)
 8001e54:	6b42      	ldr	r2, [r0, #52]	; 0x34
 8001e56:	606b      	str	r3, [r5, #4]
 8001e58:	f880 1021 	strb.w	r1, [r0, #33]	; 0x21
 8001e5c:	f880 4020 	strb.w	r4, [r0, #32]
 8001e60:	b17a      	cbz	r2, 8001e82 <HAL_DMA_Abort_IT+0x86>
 8001e62:	4790      	blx	r2
 8001e64:	4620      	mov	r0, r4
 8001e66:	bd38      	pop	{r3, r4, r5, pc}
 8001e68:	2310      	movs	r3, #16
 8001e6a:	e7f0      	b.n	8001e4e <HAL_DMA_Abort_IT+0x52>
 8001e6c:	2301      	movs	r3, #1
 8001e6e:	e7ee      	b.n	8001e4e <HAL_DMA_Abort_IT+0x52>
 8001e70:	f44f 7380 	mov.w	r3, #256	; 0x100
 8001e74:	e7eb      	b.n	8001e4e <HAL_DMA_Abort_IT+0x52>
 8001e76:	f44f 5380 	mov.w	r3, #4096	; 0x1000
 8001e7a:	e7e8      	b.n	8001e4e <HAL_DMA_Abort_IT+0x52>
 8001e7c:	f44f 3380 	mov.w	r3, #65536	; 0x10000
 8001e80:	e7e5      	b.n	8001e4e <HAL_DMA_Abort_IT+0x52>
 8001e82:	4614      	mov	r4, r2
 8001e84:	e7c2      	b.n	8001e0c <HAL_DMA_Abort_IT+0x10>
 8001e86:	bf00      	nop
 8001e88:	40020008 	.word	0x40020008
 8001e8c:	4002001c 	.word	0x4002001c
 8001e90:	40020000 	.word	0x40020000

08001e94 <HAL_GPIO_Init>:
 8001e94:	680a      	ldr	r2, [r1, #0]
 8001e96:	2a00      	cmp	r2, #0
 8001e98:	f000 80db 	beq.w	8002052 <HAL_GPIO_Init+0x1be>
 8001e9c:	e92d 4ff0 	stmdb	sp!, {r4, r5, r6, r7, r8, r9, sl, fp, lr}
 8001ea0:	f04f 0a00 	mov.w	sl, #0
 8001ea4:	b085      	sub	sp, #20
 8001ea6:	4655      	mov	r5, sl
 8001ea8:	f8df c1d0 	ldr.w	ip, [pc, #464]	; 800207c <HAL_GPIO_Init+0x1e8>
 8001eac:	f8df e1d0 	ldr.w	lr, [pc, #464]	; 8002080 <HAL_GPIO_Init+0x1ec>
 8001eb0:	4f6d      	ldr	r7, [pc, #436]	; (8002068 <HAL_GPIO_Init+0x1d4>)
 8001eb2:	f8df 81d0 	ldr.w	r8, [pc, #464]	; 8002084 <HAL_GPIO_Init+0x1f0>
 8001eb6:	e003      	b.n	8001ec0 <HAL_GPIO_Init+0x2c>
 8001eb8:	3501      	adds	r5, #1
 8001eba:	fa32 f305 	lsrs.w	r3, r2, r5
 8001ebe:	d078      	beq.n	8001fb2 <HAL_GPIO_Init+0x11e>
 8001ec0:	2301      	movs	r3, #1
 8001ec2:	40ab      	lsls	r3, r5
 8001ec4:	ea02 0403 	and.w	r4, r2, r3
 8001ec8:	42a3      	cmp	r3, r4
 8001eca:	d1f5      	bne.n	8001eb8 <HAL_GPIO_Init+0x24>
 8001ecc:	684a      	ldr	r2, [r1, #4]
 8001ece:	2a12      	cmp	r2, #18
 8001ed0:	f000 809e 	beq.w	8002010 <HAL_GPIO_Init+0x17c>
 8001ed4:	f200 8087 	bhi.w	8001fe6 <HAL_GPIO_Init+0x152>
 8001ed8:	2a02      	cmp	r2, #2
 8001eda:	f000 809d 	beq.w	8002018 <HAL_GPIO_Init+0x184>
 8001ede:	d97c      	bls.n	8001fda <HAL_GPIO_Init+0x146>
 8001ee0:	2a03      	cmp	r2, #3
 8001ee2:	d069      	beq.n	8001fb8 <HAL_GPIO_Init+0x124>
 8001ee4:	2a11      	cmp	r2, #17
 8001ee6:	d102      	bne.n	8001eee <HAL_GPIO_Init+0x5a>
 8001ee8:	68cb      	ldr	r3, [r1, #12]
 8001eea:	f103 0a04 	add.w	sl, r3, #4
 8001eee:	2cff      	cmp	r4, #255	; 0xff
 8001ef0:	d866      	bhi.n	8001fc0 <HAL_GPIO_Init+0x12c>
 8001ef2:	4681      	mov	r9, r0
 8001ef4:	6803      	ldr	r3, [r0, #0]
 8001ef6:	00aa      	lsls	r2, r5, #2
 8001ef8:	260f      	movs	r6, #15
 8001efa:	fa06 fb02 	lsl.w	fp, r6, r2
 8001efe:	ea23 030b 	bic.w	r3, r3, fp
 8001f02:	fa0a f202 	lsl.w	r2, sl, r2
 8001f06:	4313      	orrs	r3, r2
 8001f08:	f8c9 3000 	str.w	r3, [r9]
 8001f0c:	684a      	ldr	r2, [r1, #4]
 8001f0e:	00d3      	lsls	r3, r2, #3
 8001f10:	d561      	bpl.n	8001fd6 <HAL_GPIO_Init+0x142>
 8001f12:	f8dc 9018 	ldr.w	r9, [ip, #24]
 8001f16:	f025 0303 	bic.w	r3, r5, #3
 8001f1a:	f049 0901 	orr.w	r9, r9, #1
 8001f1e:	f8cc 9018 	str.w	r9, [ip, #24]
 8001f22:	f8dc 9018 	ldr.w	r9, [ip, #24]
 8001f26:	f103 4380 	add.w	r3, r3, #1073741824	; 0x40000000
 8001f2a:	f009 0901 	and.w	r9, r9, #1
 8001f2e:	f8cd 900c 	str.w	r9, [sp, #12]
 8001f32:	f503 3380 	add.w	r3, r3, #65536	; 0x10000
 8001f36:	f005 0903 	and.w	r9, r5, #3
 8001f3a:	f8dd b00c 	ldr.w	fp, [sp, #12]
 8001f3e:	ea4f 0989 	mov.w	r9, r9, lsl #2
 8001f42:	f8d3 b008 	ldr.w	fp, [r3, #8]
 8001f46:	fa06 f609 	lsl.w	r6, r6, r9
 8001f4a:	ea2b 0606 	bic.w	r6, fp, r6
 8001f4e:	4570      	cmp	r0, lr
 8001f50:	9601      	str	r6, [sp, #4]
 8001f52:	d011      	beq.n	8001f78 <HAL_GPIO_Init+0xe4>
 8001f54:	4540      	cmp	r0, r8
 8001f56:	d063      	beq.n	8002020 <HAL_GPIO_Init+0x18c>
 8001f58:	4e44      	ldr	r6, [pc, #272]	; (800206c <HAL_GPIO_Init+0x1d8>)
 8001f5a:	42b0      	cmp	r0, r6
 8001f5c:	d07a      	beq.n	8002054 <HAL_GPIO_Init+0x1c0>
 8001f5e:	4e44      	ldr	r6, [pc, #272]	; (8002070 <HAL_GPIO_Init+0x1dc>)
 8001f60:	42b0      	cmp	r0, r6
 8001f62:	bf0c      	ite	eq
 8001f64:	f04f 0b03 	moveq.w	fp, #3
 8001f68:	f04f 0b04 	movne.w	fp, #4
 8001f6c:	9e01      	ldr	r6, [sp, #4]
 8001f6e:	fa0b f909 	lsl.w	r9, fp, r9
 8001f72:	ea46 0609 	orr.w	r6, r6, r9
 8001f76:	9601      	str	r6, [sp, #4]
 8001f78:	609e      	str	r6, [r3, #8]
 8001f7a:	683b      	ldr	r3, [r7, #0]
 8001f7c:	03d6      	lsls	r6, r2, #15
 8001f7e:	bf4c      	ite	mi
 8001f80:	4323      	orrmi	r3, r4
 8001f82:	43a3      	bicpl	r3, r4
 8001f84:	603b      	str	r3, [r7, #0]
 8001f86:	687b      	ldr	r3, [r7, #4]
 8001f88:	0396      	lsls	r6, r2, #14
 8001f8a:	bf4c      	ite	mi
 8001f8c:	4323      	orrmi	r3, r4
 8001f8e:	43a3      	bicpl	r3, r4
 8001f90:	607b      	str	r3, [r7, #4]
 8001f92:	68bb      	ldr	r3, [r7, #8]
 8001f94:	02d6      	lsls	r6, r2, #11
 8001f96:	bf4c      	ite	mi
 8001f98:	4323      	orrmi	r3, r4
 8001f9a:	43a3      	bicpl	r3, r4
 8001f9c:	60bb      	str	r3, [r7, #8]
 8001f9e:	0292      	lsls	r2, r2, #10
 8001fa0:	68fb      	ldr	r3, [r7, #12]
 8001fa2:	d515      	bpl.n	8001fd0 <HAL_GPIO_Init+0x13c>
 8001fa4:	431c      	orrs	r4, r3
 8001fa6:	60fc      	str	r4, [r7, #12]
 8001fa8:	680a      	ldr	r2, [r1, #0]
 8001faa:	3501      	adds	r5, #1
 8001fac:	fa32 f305 	lsrs.w	r3, r2, r5
 8001fb0:	d186      	bne.n	8001ec0 <HAL_GPIO_Init+0x2c>
 8001fb2:	b005      	add	sp, #20
 8001fb4:	e8bd 8ff0 	ldmia.w	sp!, {r4, r5, r6, r7, r8, r9, sl, fp, pc}
 8001fb8:	2cff      	cmp	r4, #255	; 0xff
 8001fba:	f04f 0a00 	mov.w	sl, #0
 8001fbe:	d998      	bls.n	8001ef2 <HAL_GPIO_Init+0x5e>
 8001fc0:	f105 4280 	add.w	r2, r5, #1073741824	; 0x40000000
 8001fc4:	3a08      	subs	r2, #8
 8001fc6:	6843      	ldr	r3, [r0, #4]
 8001fc8:	0092      	lsls	r2, r2, #2
 8001fca:	f100 0904 	add.w	r9, r0, #4
 8001fce:	e793      	b.n	8001ef8 <HAL_GPIO_Init+0x64>
 8001fd0:	ea23 0404 	bic.w	r4, r3, r4
 8001fd4:	60fc      	str	r4, [r7, #12]
 8001fd6:	680a      	ldr	r2, [r1, #0]
 8001fd8:	e76e      	b.n	8001eb8 <HAL_GPIO_Init+0x24>
 8001fda:	b1a2      	cbz	r2, 8002006 <HAL_GPIO_Init+0x172>
 8001fdc:	2a01      	cmp	r2, #1
 8001fde:	d186      	bne.n	8001eee <HAL_GPIO_Init+0x5a>
 8001fe0:	f8d1 a00c 	ldr.w	sl, [r1, #12]
 8001fe4:	e783      	b.n	8001eee <HAL_GPIO_Init+0x5a>
 8001fe6:	4e23      	ldr	r6, [pc, #140]	; (8002074 <HAL_GPIO_Init+0x1e0>)
 8001fe8:	42b2      	cmp	r2, r6
 8001fea:	d00c      	beq.n	8002006 <HAL_GPIO_Init+0x172>
 8001fec:	d920      	bls.n	8002030 <HAL_GPIO_Init+0x19c>
 8001fee:	4e22      	ldr	r6, [pc, #136]	; (8002078 <HAL_GPIO_Init+0x1e4>)
 8001ff0:	42b2      	cmp	r2, r6
 8001ff2:	d008      	beq.n	8002006 <HAL_GPIO_Init+0x172>
 8001ff4:	f506 3680 	add.w	r6, r6, #65536	; 0x10000
 8001ff8:	42b2      	cmp	r2, r6
 8001ffa:	d004      	beq.n	8002006 <HAL_GPIO_Init+0x172>
 8001ffc:	f5a6 1680 	sub.w	r6, r6, #1048576	; 0x100000
 8002000:	42b2      	cmp	r2, r6
 8002002:	f47f af74 	bne.w	8001eee <HAL_GPIO_Init+0x5a>
 8002006:	688a      	ldr	r2, [r1, #8]
 8002008:	b9e2      	cbnz	r2, 8002044 <HAL_GPIO_Init+0x1b0>
 800200a:	f04f 0a04 	mov.w	sl, #4
 800200e:	e76e      	b.n	8001eee <HAL_GPIO_Init+0x5a>
 8002010:	68cb      	ldr	r3, [r1, #12]
 8002012:	f103 0a0c 	add.w	sl, r3, #12
 8002016:	e76a      	b.n	8001eee <HAL_GPIO_Init+0x5a>
 8002018:	68cb      	ldr	r3, [r1, #12]
 800201a:	f103 0a08 	add.w	sl, r3, #8
 800201e:	e766      	b.n	8001eee <HAL_GPIO_Init+0x5a>
 8002020:	f04f 0b01 	mov.w	fp, #1
 8002024:	fa0b f909 	lsl.w	r9, fp, r9
 8002028:	ea46 0609 	orr.w	r6, r6, r9
 800202c:	9601      	str	r6, [sp, #4]
 800202e:	e7a3      	b.n	8001f78 <HAL_GPIO_Init+0xe4>
 8002030:	f5a6 1680 	sub.w	r6, r6, #1048576	; 0x100000
 8002034:	42b2      	cmp	r2, r6
 8002036:	d0e6      	beq.n	8002006 <HAL_GPIO_Init+0x172>
 8002038:	f506 3680 	add.w	r6, r6, #65536	; 0x10000
 800203c:	42b2      	cmp	r2, r6
 800203e:	f47f af56 	bne.w	8001eee <HAL_GPIO_Init+0x5a>
 8002042:	e7e0      	b.n	8002006 <HAL_GPIO_Init+0x172>
 8002044:	2a01      	cmp	r2, #1
 8002046:	bf0c      	ite	eq
 8002048:	6103      	streq	r3, [r0, #16]
 800204a:	6143      	strne	r3, [r0, #20]
 800204c:	f04f 0a08 	mov.w	sl, #8
 8002050:	e74d      	b.n	8001eee <HAL_GPIO_Init+0x5a>
 8002052:	4770      	bx	lr
 8002054:	f04f 0b02 	mov.w	fp, #2
 8002058:	9e01      	ldr	r6, [sp, #4]
 800205a:	fa0b f909 	lsl.w	r9, fp, r9
 800205e:	ea46 0609 	orr.w	r6, r6, r9
 8002062:	9601      	str	r6, [sp, #4]
 8002064:	e788      	b.n	8001f78 <HAL_GPIO_Init+0xe4>
 8002066:	bf00      	nop
 8002068:	40010400 	.word	0x40010400
 800206c:	40011000 	.word	0x40011000
 8002070:	40011400 	.word	0x40011400
 8002074:	10210000 	.word	0x10210000
 8002078:	10310000 	.word	0x10310000
 800207c:	40021000 	.word	0x40021000
 8002080:	40010800 	.word	0x40010800
 8002084:	40010c00 	.word	0x40010c00

08002088 <HAL_GPIO_WritePin>:
 8002088:	b902      	cbnz	r2, 800208c <HAL_GPIO_WritePin+0x4>
 800208a:	0409      	lsls	r1, r1, #16
 800208c:	6101      	str	r1, [r0, #16]
 800208e:	4770      	bx	lr

08002090 <HAL_RCC_OscConfig>:
 8002090:	2800      	cmp	r0, #0
 8002092:	f000 8155 	beq.w	8002340 <HAL_RCC_OscConfig+0x2b0>
 8002096:	e92d 41f0 	stmdb	sp!, {r4, r5, r6, r7, r8, lr}
 800209a:	6803      	ldr	r3, [r0, #0]
 800209c:	b082      	sub	sp, #8
 800209e:	07dd      	lsls	r5, r3, #31
 80020a0:	4604      	mov	r4, r0
 80020a2:	d535      	bpl.n	8002110 <HAL_RCC_OscConfig+0x80>
 80020a4:	49a8      	ldr	r1, [pc, #672]	; (8002348 <HAL_RCC_OscConfig+0x2b8>)
 80020a6:	684a      	ldr	r2, [r1, #4]
 80020a8:	f002 020c 	and.w	r2, r2, #12
 80020ac:	2a04      	cmp	r2, #4
 80020ae:	f000 8105 	beq.w	80022bc <HAL_RCC_OscConfig+0x22c>
 80020b2:	684a      	ldr	r2, [r1, #4]
 80020b4:	f002 020c 	and.w	r2, r2, #12
 80020b8:	2a08      	cmp	r2, #8
 80020ba:	f000 80fb 	beq.w	80022b4 <HAL_RCC_OscConfig+0x224>
 80020be:	6863      	ldr	r3, [r4, #4]
 80020c0:	f5b3 3f80 	cmp.w	r3, #65536	; 0x10000
 80020c4:	d010      	beq.n	80020e8 <HAL_RCC_OscConfig+0x58>
 80020c6:	2b00      	cmp	r3, #0
 80020c8:	f000 8120 	beq.w	800230c <HAL_RCC_OscConfig+0x27c>
 80020cc:	f5b3 2fa0 	cmp.w	r3, #327680	; 0x50000
 80020d0:	f000 8178 	beq.w	80023c4 <HAL_RCC_OscConfig+0x334>
 80020d4:	4b9c      	ldr	r3, [pc, #624]	; (8002348 <HAL_RCC_OscConfig+0x2b8>)
 80020d6:	681a      	ldr	r2, [r3, #0]
 80020d8:	f422 3280 	bic.w	r2, r2, #65536	; 0x10000
 80020dc:	601a      	str	r2, [r3, #0]
 80020de:	681a      	ldr	r2, [r3, #0]
 80020e0:	f422 2280 	bic.w	r2, r2, #262144	; 0x40000
 80020e4:	601a      	str	r2, [r3, #0]
 80020e6:	e004      	b.n	80020f2 <HAL_RCC_OscConfig+0x62>
 80020e8:	4a97      	ldr	r2, [pc, #604]	; (8002348 <HAL_RCC_OscConfig+0x2b8>)
 80020ea:	6813      	ldr	r3, [r2, #0]
 80020ec:	f443 3380 	orr.w	r3, r3, #65536	; 0x10000
 80020f0:	6013      	str	r3, [r2, #0]
 80020f2:	f7ff fdfd 	bl	8001cf0 <HAL_GetTick>
 80020f6:	4d94      	ldr	r5, [pc, #592]	; (8002348 <HAL_RCC_OscConfig+0x2b8>)
 80020f8:	4606      	mov	r6, r0
 80020fa:	e005      	b.n	8002108 <HAL_RCC_OscConfig+0x78>
 80020fc:	f7ff fdf8 	bl	8001cf0 <HAL_GetTick>
 8002100:	1b80      	subs	r0, r0, r6
 8002102:	2864      	cmp	r0, #100	; 0x64
 8002104:	f200 80f5 	bhi.w	80022f2 <HAL_RCC_OscConfig+0x262>
 8002108:	682b      	ldr	r3, [r5, #0]
 800210a:	039a      	lsls	r2, r3, #14
 800210c:	d5f6      	bpl.n	80020fc <HAL_RCC_OscConfig+0x6c>
 800210e:	6823      	ldr	r3, [r4, #0]
 8002110:	079f      	lsls	r7, r3, #30
 8002112:	d44d      	bmi.n	80021b0 <HAL_RCC_OscConfig+0x120>
 8002114:	071a      	lsls	r2, r3, #28
 8002116:	d522      	bpl.n	800215e <HAL_RCC_OscConfig+0xce>
 8002118:	69a3      	ldr	r3, [r4, #24]
 800211a:	2b00      	cmp	r3, #0
 800211c:	f000 80ba 	beq.w	8002294 <HAL_RCC_OscConfig+0x204>
 8002120:	2201      	movs	r2, #1
 8002122:	4b8a      	ldr	r3, [pc, #552]	; (800234c <HAL_RCC_OscConfig+0x2bc>)
 8002124:	4d88      	ldr	r5, [pc, #544]	; (8002348 <HAL_RCC_OscConfig+0x2b8>)
 8002126:	601a      	str	r2, [r3, #0]
 8002128:	f7ff fde2 	bl	8001cf0 <HAL_GetTick>
 800212c:	4606      	mov	r6, r0
 800212e:	e005      	b.n	800213c <HAL_RCC_OscConfig+0xac>
 8002130:	f7ff fdde 	bl	8001cf0 <HAL_GetTick>
 8002134:	1b80      	subs	r0, r0, r6
 8002136:	2802      	cmp	r0, #2
 8002138:	f200 80db 	bhi.w	80022f2 <HAL_RCC_OscConfig+0x262>
 800213c:	6a6b      	ldr	r3, [r5, #36]	; 0x24
 800213e:	079b      	lsls	r3, r3, #30
 8002140:	d5f6      	bpl.n	8002130 <HAL_RCC_OscConfig+0xa0>
 8002142:	4b83      	ldr	r3, [pc, #524]	; (8002350 <HAL_RCC_OscConfig+0x2c0>)
 8002144:	4a83      	ldr	r2, [pc, #524]	; (8002354 <HAL_RCC_OscConfig+0x2c4>)
 8002146:	681b      	ldr	r3, [r3, #0]
 8002148:	fba2 2303 	umull	r2, r3, r2, r3
 800214c:	0a5b      	lsrs	r3, r3, #9
 800214e:	9301      	str	r3, [sp, #4]
 8002150:	bf00      	nop
 8002152:	9b01      	ldr	r3, [sp, #4]
 8002154:	1e5a      	subs	r2, r3, #1
 8002156:	9201      	str	r2, [sp, #4]
 8002158:	2b00      	cmp	r3, #0
 800215a:	d1f9      	bne.n	8002150 <HAL_RCC_OscConfig+0xc0>
 800215c:	6823      	ldr	r3, [r4, #0]
 800215e:	075d      	lsls	r5, r3, #29
 8002160:	d569      	bpl.n	8002236 <HAL_RCC_OscConfig+0x1a6>
 8002162:	4b79      	ldr	r3, [pc, #484]	; (8002348 <HAL_RCC_OscConfig+0x2b8>)
 8002164:	69da      	ldr	r2, [r3, #28]
 8002166:	00d0      	lsls	r0, r2, #3
 8002168:	f100 80ec 	bmi.w	8002344 <HAL_RCC_OscConfig+0x2b4>
 800216c:	2501      	movs	r5, #1
 800216e:	69da      	ldr	r2, [r3, #28]
 8002170:	f042 5280 	orr.w	r2, r2, #268435456	; 0x10000000
 8002174:	61da      	str	r2, [r3, #28]
 8002176:	69db      	ldr	r3, [r3, #28]
 8002178:	f003 5380 	and.w	r3, r3, #268435456	; 0x10000000
 800217c:	9300      	str	r3, [sp, #0]
 800217e:	9b00      	ldr	r3, [sp, #0]
 8002180:	4b75      	ldr	r3, [pc, #468]	; (8002358 <HAL_RCC_OscConfig+0x2c8>)
 8002182:	681a      	ldr	r2, [r3, #0]
 8002184:	05d1      	lsls	r1, r2, #23
 8002186:	f140 80a3 	bpl.w	80022d0 <HAL_RCC_OscConfig+0x240>
 800218a:	68e3      	ldr	r3, [r4, #12]
 800218c:	2b01      	cmp	r3, #1
 800218e:	d037      	beq.n	8002200 <HAL_RCC_OscConfig+0x170>
 8002190:	2b00      	cmp	r3, #0
 8002192:	f000 80e7 	beq.w	8002364 <HAL_RCC_OscConfig+0x2d4>
 8002196:	2b05      	cmp	r3, #5
 8002198:	4b6b      	ldr	r3, [pc, #428]	; (8002348 <HAL_RCC_OscConfig+0x2b8>)
 800219a:	6a1a      	ldr	r2, [r3, #32]
 800219c:	f000 811f 	beq.w	80023de <HAL_RCC_OscConfig+0x34e>
 80021a0:	f022 0201 	bic.w	r2, r2, #1
 80021a4:	621a      	str	r2, [r3, #32]
 80021a6:	6a1a      	ldr	r2, [r3, #32]
 80021a8:	f022 0204 	bic.w	r2, r2, #4
 80021ac:	621a      	str	r2, [r3, #32]
 80021ae:	e02c      	b.n	800220a <HAL_RCC_OscConfig+0x17a>
 80021b0:	4a65      	ldr	r2, [pc, #404]	; (8002348 <HAL_RCC_OscConfig+0x2b8>)
 80021b2:	6851      	ldr	r1, [r2, #4]
 80021b4:	f011 0f0c 	tst.w	r1, #12
 80021b8:	d061      	beq.n	800227e <HAL_RCC_OscConfig+0x1ee>
 80021ba:	6851      	ldr	r1, [r2, #4]
 80021bc:	f001 010c 	and.w	r1, r1, #12
 80021c0:	2908      	cmp	r1, #8
 80021c2:	d059      	beq.n	8002278 <HAL_RCC_OscConfig+0x1e8>
 80021c4:	6923      	ldr	r3, [r4, #16]
 80021c6:	2b00      	cmp	r3, #0
 80021c8:	f000 80eb 	beq.w	80023a2 <HAL_RCC_OscConfig+0x312>
 80021cc:	2201      	movs	r2, #1
 80021ce:	4b63      	ldr	r3, [pc, #396]	; (800235c <HAL_RCC_OscConfig+0x2cc>)
 80021d0:	4d5d      	ldr	r5, [pc, #372]	; (8002348 <HAL_RCC_OscConfig+0x2b8>)
 80021d2:	601a      	str	r2, [r3, #0]
 80021d4:	f7ff fd8c 	bl	8001cf0 <HAL_GetTick>
 80021d8:	4606      	mov	r6, r0
 80021da:	e005      	b.n	80021e8 <HAL_RCC_OscConfig+0x158>
 80021dc:	f7ff fd88 	bl	8001cf0 <HAL_GetTick>
 80021e0:	1b80      	subs	r0, r0, r6
 80021e2:	2802      	cmp	r0, #2
 80021e4:	f200 8085 	bhi.w	80022f2 <HAL_RCC_OscConfig+0x262>
 80021e8:	682b      	ldr	r3, [r5, #0]
 80021ea:	0798      	lsls	r0, r3, #30
 80021ec:	d5f6      	bpl.n	80021dc <HAL_RCC_OscConfig+0x14c>
 80021ee:	682b      	ldr	r3, [r5, #0]
 80021f0:	6962      	ldr	r2, [r4, #20]
 80021f2:	f023 03f8 	bic.w	r3, r3, #248	; 0xf8
 80021f6:	ea43 03c2 	orr.w	r3, r3, r2, lsl #3
 80021fa:	602b      	str	r3, [r5, #0]
 80021fc:	6823      	ldr	r3, [r4, #0]
 80021fe:	e789      	b.n	8002114 <HAL_RCC_OscConfig+0x84>
 8002200:	4a51      	ldr	r2, [pc, #324]	; (8002348 <HAL_RCC_OscConfig+0x2b8>)
 8002202:	6a13      	ldr	r3, [r2, #32]
 8002204:	f043 0301 	orr.w	r3, r3, #1
 8002208:	6213      	str	r3, [r2, #32]
 800220a:	f7ff fd71 	bl	8001cf0 <HAL_GetTick>
 800220e:	4e4e      	ldr	r6, [pc, #312]	; (8002348 <HAL_RCC_OscConfig+0x2b8>)
 8002210:	4680      	mov	r8, r0
 8002212:	f241 3788 	movw	r7, #5000	; 0x1388
 8002216:	e005      	b.n	8002224 <HAL_RCC_OscConfig+0x194>
 8002218:	f7ff fd6a 	bl	8001cf0 <HAL_GetTick>
 800221c:	eba0 0008 	sub.w	r0, r0, r8
 8002220:	42b8      	cmp	r0, r7
 8002222:	d866      	bhi.n	80022f2 <HAL_RCC_OscConfig+0x262>
 8002224:	6a33      	ldr	r3, [r6, #32]
 8002226:	079b      	lsls	r3, r3, #30
 8002228:	d5f6      	bpl.n	8002218 <HAL_RCC_OscConfig+0x188>
 800222a:	b125      	cbz	r5, 8002236 <HAL_RCC_OscConfig+0x1a6>
 800222c:	4a46      	ldr	r2, [pc, #280]	; (8002348 <HAL_RCC_OscConfig+0x2b8>)
 800222e:	69d3      	ldr	r3, [r2, #28]
 8002230:	f023 5380 	bic.w	r3, r3, #268435456	; 0x10000000
 8002234:	61d3      	str	r3, [r2, #28]
 8002236:	69e0      	ldr	r0, [r4, #28]
 8002238:	b1d0      	cbz	r0, 8002270 <HAL_RCC_OscConfig+0x1e0>
 800223a:	4d43      	ldr	r5, [pc, #268]	; (8002348 <HAL_RCC_OscConfig+0x2b8>)
 800223c:	686a      	ldr	r2, [r5, #4]
 800223e:	f002 020c 	and.w	r2, r2, #12
 8002242:	2a08      	cmp	r2, #8
 8002244:	f000 80d3 	beq.w	80023ee <HAL_RCC_OscConfig+0x35e>
 8002248:	2802      	cmp	r0, #2
 800224a:	f04f 0100 	mov.w	r1, #0
 800224e:	4a44      	ldr	r2, [pc, #272]	; (8002360 <HAL_RCC_OscConfig+0x2d0>)
 8002250:	f000 80de 	beq.w	8002410 <HAL_RCC_OscConfig+0x380>
 8002254:	6011      	str	r1, [r2, #0]
 8002256:	f7ff fd4b 	bl	8001cf0 <HAL_GetTick>
 800225a:	462c      	mov	r4, r5
 800225c:	4605      	mov	r5, r0
 800225e:	e004      	b.n	800226a <HAL_RCC_OscConfig+0x1da>
 8002260:	f7ff fd46 	bl	8001cf0 <HAL_GetTick>
 8002264:	1b40      	subs	r0, r0, r5
 8002266:	2802      	cmp	r0, #2
 8002268:	d843      	bhi.n	80022f2 <HAL_RCC_OscConfig+0x262>
 800226a:	6823      	ldr	r3, [r4, #0]
 800226c:	019b      	lsls	r3, r3, #6
 800226e:	d4f7      	bmi.n	8002260 <HAL_RCC_OscConfig+0x1d0>
 8002270:	2000      	movs	r0, #0
 8002272:	b002      	add	sp, #8
 8002274:	e8bd 81f0 	ldmia.w	sp!, {r4, r5, r6, r7, r8, pc}
 8002278:	6852      	ldr	r2, [r2, #4]
 800227a:	03d6      	lsls	r6, r2, #15
 800227c:	d4a2      	bmi.n	80021c4 <HAL_RCC_OscConfig+0x134>
 800227e:	4a32      	ldr	r2, [pc, #200]	; (8002348 <HAL_RCC_OscConfig+0x2b8>)
 8002280:	6812      	ldr	r2, [r2, #0]
 8002282:	0795      	lsls	r5, r2, #30
 8002284:	d539      	bpl.n	80022fa <HAL_RCC_OscConfig+0x26a>
 8002286:	6922      	ldr	r2, [r4, #16]
 8002288:	2a01      	cmp	r2, #1
 800228a:	d036      	beq.n	80022fa <HAL_RCC_OscConfig+0x26a>
 800228c:	2001      	movs	r0, #1
 800228e:	b002      	add	sp, #8
 8002290:	e8bd 81f0 	ldmia.w	sp!, {r4, r5, r6, r7, r8, pc}
 8002294:	4a2d      	ldr	r2, [pc, #180]	; (800234c <HAL_RCC_OscConfig+0x2bc>)
 8002296:	4d2c      	ldr	r5, [pc, #176]	; (8002348 <HAL_RCC_OscConfig+0x2b8>)
 8002298:	6013      	str	r3, [r2, #0]
 800229a:	f7ff fd29 	bl	8001cf0 <HAL_GetTick>
 800229e:	4606      	mov	r6, r0
 80022a0:	e004      	b.n	80022ac <HAL_RCC_OscConfig+0x21c>
 80022a2:	f7ff fd25 	bl	8001cf0 <HAL_GetTick>
 80022a6:	1b80      	subs	r0, r0, r6
 80022a8:	2802      	cmp	r0, #2
 80022aa:	d822      	bhi.n	80022f2 <HAL_RCC_OscConfig+0x262>
 80022ac:	6a6b      	ldr	r3, [r5, #36]	; 0x24
 80022ae:	079f      	lsls	r7, r3, #30
 80022b0:	d4f7      	bmi.n	80022a2 <HAL_RCC_OscConfig+0x212>
 80022b2:	e753      	b.n	800215c <HAL_RCC_OscConfig+0xcc>
 80022b4:	684a      	ldr	r2, [r1, #4]
 80022b6:	03d0      	lsls	r0, r2, #15
 80022b8:	f57f af01 	bpl.w	80020be <HAL_RCC_OscConfig+0x2e>
 80022bc:	4a22      	ldr	r2, [pc, #136]	; (8002348 <HAL_RCC_OscConfig+0x2b8>)
 80022be:	6812      	ldr	r2, [r2, #0]
 80022c0:	0391      	lsls	r1, r2, #14
 80022c2:	f57f af25 	bpl.w	8002110 <HAL_RCC_OscConfig+0x80>
 80022c6:	6862      	ldr	r2, [r4, #4]
 80022c8:	2a00      	cmp	r2, #0
 80022ca:	f47f af21 	bne.w	8002110 <HAL_RCC_OscConfig+0x80>
 80022ce:	e7dd      	b.n	800228c <HAL_RCC_OscConfig+0x1fc>
 80022d0:	681a      	ldr	r2, [r3, #0]
 80022d2:	461e      	mov	r6, r3
 80022d4:	f442 7280 	orr.w	r2, r2, #256	; 0x100
 80022d8:	601a      	str	r2, [r3, #0]
 80022da:	f7ff fd09 	bl	8001cf0 <HAL_GetTick>
 80022de:	4607      	mov	r7, r0
 80022e0:	6833      	ldr	r3, [r6, #0]
 80022e2:	05da      	lsls	r2, r3, #23
 80022e4:	f53f af51 	bmi.w	800218a <HAL_RCC_OscConfig+0xfa>
 80022e8:	f7ff fd02 	bl	8001cf0 <HAL_GetTick>
 80022ec:	1bc0      	subs	r0, r0, r7
 80022ee:	2864      	cmp	r0, #100	; 0x64
 80022f0:	d9f6      	bls.n	80022e0 <HAL_RCC_OscConfig+0x250>
 80022f2:	2003      	movs	r0, #3
 80022f4:	b002      	add	sp, #8
 80022f6:	e8bd 81f0 	ldmia.w	sp!, {r4, r5, r6, r7, r8, pc}
 80022fa:	4913      	ldr	r1, [pc, #76]	; (8002348 <HAL_RCC_OscConfig+0x2b8>)
 80022fc:	6960      	ldr	r0, [r4, #20]
 80022fe:	680a      	ldr	r2, [r1, #0]
 8002300:	f022 02f8 	bic.w	r2, r2, #248	; 0xf8
 8002304:	ea42 02c0 	orr.w	r2, r2, r0, lsl #3
 8002308:	600a      	str	r2, [r1, #0]
 800230a:	e703      	b.n	8002114 <HAL_RCC_OscConfig+0x84>
 800230c:	f103 4380 	add.w	r3, r3, #1073741824	; 0x40000000
 8002310:	f503 3304 	add.w	r3, r3, #135168	; 0x21000
 8002314:	681a      	ldr	r2, [r3, #0]
 8002316:	461d      	mov	r5, r3
 8002318:	f422 3280 	bic.w	r2, r2, #65536	; 0x10000
 800231c:	601a      	str	r2, [r3, #0]
 800231e:	681a      	ldr	r2, [r3, #0]
 8002320:	f422 2280 	bic.w	r2, r2, #262144	; 0x40000
 8002324:	601a      	str	r2, [r3, #0]
 8002326:	f7ff fce3 	bl	8001cf0 <HAL_GetTick>
 800232a:	4606      	mov	r6, r0
 800232c:	e004      	b.n	8002338 <HAL_RCC_OscConfig+0x2a8>
 800232e:	f7ff fcdf 	bl	8001cf0 <HAL_GetTick>
 8002332:	1b80      	subs	r0, r0, r6
 8002334:	2864      	cmp	r0, #100	; 0x64
 8002336:	d8dc      	bhi.n	80022f2 <HAL_RCC_OscConfig+0x262>
 8002338:	682b      	ldr	r3, [r5, #0]
 800233a:	039b      	lsls	r3, r3, #14
 800233c:	d4f7      	bmi.n	800232e <HAL_RCC_OscConfig+0x29e>
 800233e:	e6e6      	b.n	800210e <HAL_RCC_OscConfig+0x7e>
 8002340:	2001      	movs	r0, #1
 8002342:	4770      	bx	lr
 8002344:	2500      	movs	r5, #0
 8002346:	e71b      	b.n	8002180 <HAL_RCC_OscConfig+0xf0>
 8002348:	40021000 	.word	0x40021000
 800234c:	42420480 	.word	0x42420480
 8002350:	20000018 	.word	0x20000018
 8002354:	10624dd3 	.word	0x10624dd3
 8002358:	40007000 	.word	0x40007000
 800235c:	42420000 	.word	0x42420000
 8002360:	42420060 	.word	0x42420060
 8002364:	f103 4380 	add.w	r3, r3, #1073741824	; 0x40000000
 8002368:	f503 3304 	add.w	r3, r3, #135168	; 0x21000
 800236c:	6a1a      	ldr	r2, [r3, #32]
 800236e:	461e      	mov	r6, r3
 8002370:	f022 0201 	bic.w	r2, r2, #1
 8002374:	621a      	str	r2, [r3, #32]
 8002376:	6a1a      	ldr	r2, [r3, #32]
 8002378:	f241 3888 	movw	r8, #5000	; 0x1388
 800237c:	f022 0204 	bic.w	r2, r2, #4
 8002380:	621a      	str	r2, [r3, #32]
 8002382:	f7ff fcb5 	bl	8001cf0 <HAL_GetTick>
 8002386:	4607      	mov	r7, r0
 8002388:	e004      	b.n	8002394 <HAL_RCC_OscConfig+0x304>
 800238a:	f7ff fcb1 	bl	8001cf0 <HAL_GetTick>
 800238e:	1bc0      	subs	r0, r0, r7
 8002390:	4540      	cmp	r0, r8
 8002392:	d8ae      	bhi.n	80022f2 <HAL_RCC_OscConfig+0x262>
 8002394:	6a33      	ldr	r3, [r6, #32]
 8002396:	0798      	lsls	r0, r3, #30
 8002398:	d4f7      	bmi.n	800238a <HAL_RCC_OscConfig+0x2fa>
 800239a:	2d00      	cmp	r5, #0
 800239c:	f43f af4b 	beq.w	8002236 <HAL_RCC_OscConfig+0x1a6>
 80023a0:	e744      	b.n	800222c <HAL_RCC_OscConfig+0x19c>
 80023a2:	4a34      	ldr	r2, [pc, #208]	; (8002474 <HAL_RCC_OscConfig+0x3e4>)
 80023a4:	4d34      	ldr	r5, [pc, #208]	; (8002478 <HAL_RCC_OscConfig+0x3e8>)
 80023a6:	6013      	str	r3, [r2, #0]
 80023a8:	f7ff fca2 	bl	8001cf0 <HAL_GetTick>
 80023ac:	4606      	mov	r6, r0
 80023ae:	e004      	b.n	80023ba <HAL_RCC_OscConfig+0x32a>
 80023b0:	f7ff fc9e 	bl	8001cf0 <HAL_GetTick>
 80023b4:	1b80      	subs	r0, r0, r6
 80023b6:	2802      	cmp	r0, #2
 80023b8:	d89b      	bhi.n	80022f2 <HAL_RCC_OscConfig+0x262>
 80023ba:	682b      	ldr	r3, [r5, #0]
 80023bc:	0799      	lsls	r1, r3, #30
 80023be:	d4f7      	bmi.n	80023b0 <HAL_RCC_OscConfig+0x320>
 80023c0:	6823      	ldr	r3, [r4, #0]
 80023c2:	e6a7      	b.n	8002114 <HAL_RCC_OscConfig+0x84>
 80023c4:	f103 4380 	add.w	r3, r3, #1073741824	; 0x40000000
 80023c8:	f5a3 333c 	sub.w	r3, r3, #192512	; 0x2f000
 80023cc:	681a      	ldr	r2, [r3, #0]
 80023ce:	f442 2280 	orr.w	r2, r2, #262144	; 0x40000
 80023d2:	601a      	str	r2, [r3, #0]
 80023d4:	681a      	ldr	r2, [r3, #0]
 80023d6:	f442 3280 	orr.w	r2, r2, #65536	; 0x10000
 80023da:	601a      	str	r2, [r3, #0]
 80023dc:	e689      	b.n	80020f2 <HAL_RCC_OscConfig+0x62>
 80023de:	f042 0204 	orr.w	r2, r2, #4
 80023e2:	621a      	str	r2, [r3, #32]
 80023e4:	6a1a      	ldr	r2, [r3, #32]
 80023e6:	f042 0201 	orr.w	r2, r2, #1
 80023ea:	621a      	str	r2, [r3, #32]
 80023ec:	e70d      	b.n	800220a <HAL_RCC_OscConfig+0x17a>
 80023ee:	2801      	cmp	r0, #1
 80023f0:	f43f af4d 	beq.w	800228e <HAL_RCC_OscConfig+0x1fe>
 80023f4:	686b      	ldr	r3, [r5, #4]
 80023f6:	6a22      	ldr	r2, [r4, #32]
 80023f8:	f403 3180 	and.w	r1, r3, #65536	; 0x10000
 80023fc:	4291      	cmp	r1, r2
 80023fe:	f47f af45 	bne.w	800228c <HAL_RCC_OscConfig+0x1fc>
 8002402:	6a60      	ldr	r0, [r4, #36]	; 0x24
 8002404:	f403 1370 	and.w	r3, r3, #3932160	; 0x3c0000
 8002408:	1a18      	subs	r0, r3, r0
 800240a:	bf18      	it	ne
 800240c:	2001      	movne	r0, #1
 800240e:	e73e      	b.n	800228e <HAL_RCC_OscConfig+0x1fe>
 8002410:	6011      	str	r1, [r2, #0]
 8002412:	f7ff fc6d 	bl	8001cf0 <HAL_GetTick>
 8002416:	4606      	mov	r6, r0
 8002418:	e005      	b.n	8002426 <HAL_RCC_OscConfig+0x396>
 800241a:	f7ff fc69 	bl	8001cf0 <HAL_GetTick>
 800241e:	1b80      	subs	r0, r0, r6
 8002420:	2802      	cmp	r0, #2
 8002422:	f63f af66 	bhi.w	80022f2 <HAL_RCC_OscConfig+0x262>
 8002426:	682b      	ldr	r3, [r5, #0]
 8002428:	0199      	lsls	r1, r3, #6
 800242a:	d4f6      	bmi.n	800241a <HAL_RCC_OscConfig+0x38a>
 800242c:	6a22      	ldr	r2, [r4, #32]
 800242e:	f5b2 3f80 	cmp.w	r2, #65536	; 0x10000
 8002432:	d105      	bne.n	8002440 <HAL_RCC_OscConfig+0x3b0>
 8002434:	686b      	ldr	r3, [r5, #4]
 8002436:	68a1      	ldr	r1, [r4, #8]
 8002438:	f423 3300 	bic.w	r3, r3, #131072	; 0x20000
 800243c:	430b      	orrs	r3, r1
 800243e:	606b      	str	r3, [r5, #4]
 8002440:	2501      	movs	r5, #1
 8002442:	4b0d      	ldr	r3, [pc, #52]	; (8002478 <HAL_RCC_OscConfig+0x3e8>)
 8002444:	6a60      	ldr	r0, [r4, #36]	; 0x24
 8002446:	6859      	ldr	r1, [r3, #4]
 8002448:	4302      	orrs	r2, r0
 800244a:	f421 1174 	bic.w	r1, r1, #3997696	; 0x3d0000
 800244e:	480b      	ldr	r0, [pc, #44]	; (800247c <HAL_RCC_OscConfig+0x3ec>)
 8002450:	430a      	orrs	r2, r1
 8002452:	605a      	str	r2, [r3, #4]
 8002454:	6005      	str	r5, [r0, #0]
 8002456:	461c      	mov	r4, r3
 8002458:	f7ff fc4a 	bl	8001cf0 <HAL_GetTick>
 800245c:	4605      	mov	r5, r0
 800245e:	e005      	b.n	800246c <HAL_RCC_OscConfig+0x3dc>
 8002460:	f7ff fc46 	bl	8001cf0 <HAL_GetTick>
 8002464:	1b40      	subs	r0, r0, r5
 8002466:	2802      	cmp	r0, #2
 8002468:	f63f af43 	bhi.w	80022f2 <HAL_RCC_OscConfig+0x262>
 800246c:	6823      	ldr	r3, [r4, #0]
 800246e:	019a      	lsls	r2, r3, #6
 8002470:	d5f6      	bpl.n	8002460 <HAL_RCC_OscConfig+0x3d0>
 8002472:	e6fd      	b.n	8002270 <HAL_RCC_OscConfig+0x1e0>
 8002474:	42420000 	.word	0x42420000
 8002478:	40021000 	.word	0x40021000
 800247c:	42420060 	.word	0x42420060

08002480 <HAL_RCC_ClockConfig>:
 8002480:	b178      	cbz	r0, 80024a2 <HAL_RCC_ClockConfig+0x22>
 8002482:	4a5d      	ldr	r2, [pc, #372]	; (80025f8 <HAL_RCC_ClockConfig+0x178>)
 8002484:	6813      	ldr	r3, [r2, #0]
 8002486:	f003 0307 	and.w	r3, r3, #7
 800248a:	428b      	cmp	r3, r1
 800248c:	d20b      	bcs.n	80024a6 <HAL_RCC_ClockConfig+0x26>
 800248e:	6813      	ldr	r3, [r2, #0]
 8002490:	f023 0307 	bic.w	r3, r3, #7
 8002494:	430b      	orrs	r3, r1
 8002496:	6013      	str	r3, [r2, #0]
 8002498:	6813      	ldr	r3, [r2, #0]
 800249a:	f003 0307 	and.w	r3, r3, #7
 800249e:	428b      	cmp	r3, r1
 80024a0:	d001      	beq.n	80024a6 <HAL_RCC_ClockConfig+0x26>
 80024a2:	2001      	movs	r0, #1
 80024a4:	4770      	bx	lr
 80024a6:	e92d 41f0 	stmdb	sp!, {r4, r5, r6, r7, r8, lr}
 80024aa:	6803      	ldr	r3, [r0, #0]
 80024ac:	b086      	sub	sp, #24
 80024ae:	079d      	lsls	r5, r3, #30
 80024b0:	d514      	bpl.n	80024dc <HAL_RCC_ClockConfig+0x5c>
 80024b2:	075c      	lsls	r4, r3, #29
 80024b4:	d504      	bpl.n	80024c0 <HAL_RCC_ClockConfig+0x40>
 80024b6:	4c51      	ldr	r4, [pc, #324]	; (80025fc <HAL_RCC_ClockConfig+0x17c>)
 80024b8:	6862      	ldr	r2, [r4, #4]
 80024ba:	f442 62e0 	orr.w	r2, r2, #1792	; 0x700
 80024be:	6062      	str	r2, [r4, #4]
 80024c0:	071a      	lsls	r2, r3, #28
 80024c2:	d504      	bpl.n	80024ce <HAL_RCC_ClockConfig+0x4e>
 80024c4:	4c4d      	ldr	r4, [pc, #308]	; (80025fc <HAL_RCC_ClockConfig+0x17c>)
 80024c6:	6862      	ldr	r2, [r4, #4]
 80024c8:	f442 5260 	orr.w	r2, r2, #14336	; 0x3800
 80024cc:	6062      	str	r2, [r4, #4]
 80024ce:	4c4b      	ldr	r4, [pc, #300]	; (80025fc <HAL_RCC_ClockConfig+0x17c>)
 80024d0:	6885      	ldr	r5, [r0, #8]
 80024d2:	6862      	ldr	r2, [r4, #4]
 80024d4:	f022 02f0 	bic.w	r2, r2, #240	; 0xf0
 80024d8:	432a      	orrs	r2, r5
 80024da:	6062      	str	r2, [r4, #4]
 80024dc:	07db      	lsls	r3, r3, #31
 80024de:	4604      	mov	r4, r0
 80024e0:	460d      	mov	r5, r1
 80024e2:	d520      	bpl.n	8002526 <HAL_RCC_ClockConfig+0xa6>
 80024e4:	6842      	ldr	r2, [r0, #4]
 80024e6:	4b45      	ldr	r3, [pc, #276]	; (80025fc <HAL_RCC_ClockConfig+0x17c>)
 80024e8:	2a01      	cmp	r2, #1
 80024ea:	681b      	ldr	r3, [r3, #0]
 80024ec:	d06f      	beq.n	80025ce <HAL_RCC_ClockConfig+0x14e>
 80024ee:	2a02      	cmp	r2, #2
 80024f0:	d07e      	beq.n	80025f0 <HAL_RCC_ClockConfig+0x170>
 80024f2:	0798      	lsls	r0, r3, #30
 80024f4:	d527      	bpl.n	8002546 <HAL_RCC_ClockConfig+0xc6>
 80024f6:	4e41      	ldr	r6, [pc, #260]	; (80025fc <HAL_RCC_ClockConfig+0x17c>)
 80024f8:	f241 3888 	movw	r8, #5000	; 0x1388
 80024fc:	6873      	ldr	r3, [r6, #4]
 80024fe:	f023 0303 	bic.w	r3, r3, #3
 8002502:	4313      	orrs	r3, r2
 8002504:	6073      	str	r3, [r6, #4]
 8002506:	f7ff fbf3 	bl	8001cf0 <HAL_GetTick>
 800250a:	4607      	mov	r7, r0
 800250c:	e004      	b.n	8002518 <HAL_RCC_ClockConfig+0x98>
 800250e:	f7ff fbef 	bl	8001cf0 <HAL_GetTick>
 8002512:	1bc0      	subs	r0, r0, r7
 8002514:	4540      	cmp	r0, r8
 8002516:	d869      	bhi.n	80025ec <HAL_RCC_ClockConfig+0x16c>
 8002518:	6873      	ldr	r3, [r6, #4]
 800251a:	6862      	ldr	r2, [r4, #4]
 800251c:	f003 030c 	and.w	r3, r3, #12
 8002520:	ebb3 0f82 	cmp.w	r3, r2, lsl #2
 8002524:	d1f3      	bne.n	800250e <HAL_RCC_ClockConfig+0x8e>
 8002526:	4a34      	ldr	r2, [pc, #208]	; (80025f8 <HAL_RCC_ClockConfig+0x178>)
 8002528:	6813      	ldr	r3, [r2, #0]
 800252a:	f003 0307 	and.w	r3, r3, #7
 800252e:	42ab      	cmp	r3, r5
 8002530:	d90d      	bls.n	800254e <HAL_RCC_ClockConfig+0xce>
 8002532:	6813      	ldr	r3, [r2, #0]
 8002534:	f023 0307 	bic.w	r3, r3, #7
 8002538:	432b      	orrs	r3, r5
 800253a:	6013      	str	r3, [r2, #0]
 800253c:	6813      	ldr	r3, [r2, #0]
 800253e:	f003 0307 	and.w	r3, r3, #7
 8002542:	42ab      	cmp	r3, r5
 8002544:	d003      	beq.n	800254e <HAL_RCC_ClockConfig+0xce>
 8002546:	2001      	movs	r0, #1
 8002548:	b006      	add	sp, #24
 800254a:	e8bd 81f0 	ldmia.w	sp!, {r4, r5, r6, r7, r8, pc}
 800254e:	6823      	ldr	r3, [r4, #0]
 8002550:	0759      	lsls	r1, r3, #29
 8002552:	d506      	bpl.n	8002562 <HAL_RCC_ClockConfig+0xe2>
 8002554:	4929      	ldr	r1, [pc, #164]	; (80025fc <HAL_RCC_ClockConfig+0x17c>)
 8002556:	68e0      	ldr	r0, [r4, #12]
 8002558:	684a      	ldr	r2, [r1, #4]
 800255a:	f422 62e0 	bic.w	r2, r2, #1792	; 0x700
 800255e:	4302      	orrs	r2, r0
 8002560:	604a      	str	r2, [r1, #4]
 8002562:	071a      	lsls	r2, r3, #28
 8002564:	d507      	bpl.n	8002576 <HAL_RCC_ClockConfig+0xf6>
 8002566:	4a25      	ldr	r2, [pc, #148]	; (80025fc <HAL_RCC_ClockConfig+0x17c>)
 8002568:	6921      	ldr	r1, [r4, #16]
 800256a:	6853      	ldr	r3, [r2, #4]
 800256c:	f423 5360 	bic.w	r3, r3, #14336	; 0x3800
 8002570:	ea43 03c1 	orr.w	r3, r3, r1, lsl #3
 8002574:	6053      	str	r3, [r2, #4]
 8002576:	f240 2201 	movw	r2, #513	; 0x201
 800257a:	4b21      	ldr	r3, [pc, #132]	; (8002600 <HAL_RCC_ClockConfig+0x180>)
 800257c:	ac06      	add	r4, sp, #24
 800257e:	f8ad 2004 	strh.w	r2, [sp, #4]
 8002582:	cb0f      	ldmia	r3, {r0, r1, r2, r3}
 8002584:	e904 000f 	stmdb	r4, {r0, r1, r2, r3}
 8002588:	491c      	ldr	r1, [pc, #112]	; (80025fc <HAL_RCC_ClockConfig+0x17c>)
 800258a:	684a      	ldr	r2, [r1, #4]
 800258c:	f002 030c 	and.w	r3, r2, #12
 8002590:	2b08      	cmp	r3, #8
 8002592:	d11a      	bne.n	80025ca <HAL_RCC_ClockConfig+0x14a>
 8002594:	f3c2 4383 	ubfx	r3, r2, #18, #4
 8002598:	4423      	add	r3, r4
 800259a:	f813 0c10 	ldrb.w	r0, [r3, #-16]
 800259e:	03d3      	lsls	r3, r2, #15
 80025a0:	d418      	bmi.n	80025d4 <HAL_RCC_ClockConfig+0x154>
 80025a2:	4b18      	ldr	r3, [pc, #96]	; (8002604 <HAL_RCC_ClockConfig+0x184>)
 80025a4:	fb03 f300 	mul.w	r3, r3, r0
 80025a8:	4a14      	ldr	r2, [pc, #80]	; (80025fc <HAL_RCC_ClockConfig+0x17c>)
 80025aa:	4817      	ldr	r0, [pc, #92]	; (8002608 <HAL_RCC_ClockConfig+0x188>)
 80025ac:	6852      	ldr	r2, [r2, #4]
 80025ae:	4917      	ldr	r1, [pc, #92]	; (800260c <HAL_RCC_ClockConfig+0x18c>)
 80025b0:	f3c2 1203 	ubfx	r2, r2, #4, #4
 80025b4:	5c80      	ldrb	r0, [r0, r2]
 80025b6:	4a16      	ldr	r2, [pc, #88]	; (8002610 <HAL_RCC_ClockConfig+0x190>)
 80025b8:	40c3      	lsrs	r3, r0
 80025ba:	6808      	ldr	r0, [r1, #0]
 80025bc:	6013      	str	r3, [r2, #0]
 80025be:	f7ff fb55 	bl	8001c6c <HAL_InitTick>
 80025c2:	2000      	movs	r0, #0
 80025c4:	b006      	add	sp, #24
 80025c6:	e8bd 81f0 	ldmia.w	sp!, {r4, r5, r6, r7, r8, pc}
 80025ca:	4b12      	ldr	r3, [pc, #72]	; (8002614 <HAL_RCC_ClockConfig+0x194>)
 80025cc:	e7ec      	b.n	80025a8 <HAL_RCC_ClockConfig+0x128>
 80025ce:	039f      	lsls	r7, r3, #14
 80025d0:	d491      	bmi.n	80024f6 <HAL_RCC_ClockConfig+0x76>
 80025d2:	e7b8      	b.n	8002546 <HAL_RCC_ClockConfig+0xc6>
 80025d4:	684a      	ldr	r2, [r1, #4]
 80025d6:	4b0f      	ldr	r3, [pc, #60]	; (8002614 <HAL_RCC_ClockConfig+0x194>)
 80025d8:	f3c2 4240 	ubfx	r2, r2, #17, #1
 80025dc:	fb03 f300 	mul.w	r3, r3, r0
 80025e0:	4422      	add	r2, r4
 80025e2:	f812 2c14 	ldrb.w	r2, [r2, #-20]
 80025e6:	fbb3 f3f2 	udiv	r3, r3, r2
 80025ea:	e7dd      	b.n	80025a8 <HAL_RCC_ClockConfig+0x128>
 80025ec:	2003      	movs	r0, #3
 80025ee:	e7ab      	b.n	8002548 <HAL_RCC_ClockConfig+0xc8>
 80025f0:	019e      	lsls	r6, r3, #6
 80025f2:	d480      	bmi.n	80024f6 <HAL_RCC_ClockConfig+0x76>
 80025f4:	e7a7      	b.n	8002546 <HAL_RCC_ClockConfig+0xc6>
 80025f6:	bf00      	nop
 80025f8:	40022000 	.word	0x40022000
 80025fc:	40021000 	.word	0x40021000
 8002600:	08007de8 	.word	0x08007de8
 8002604:	003d0900 	.word	0x003d0900
 8002608:	08007f38 	.word	0x08007f38
 800260c:	20000020 	.word	0x20000020
 8002610:	20000018 	.word	0x20000018
 8002614:	007a1200 	.word	0x007a1200

08002618 <HAL_RCC_GetPCLK1Freq>:
 8002618:	4b04      	ldr	r3, [pc, #16]	; (800262c <HAL_RCC_GetPCLK1Freq+0x14>)
 800261a:	4905      	ldr	r1, [pc, #20]	; (8002630 <HAL_RCC_GetPCLK1Freq+0x18>)
 800261c:	685b      	ldr	r3, [r3, #4]
 800261e:	4a05      	ldr	r2, [pc, #20]	; (8002634 <HAL_RCC_GetPCLK1Freq+0x1c>)
 8002620:	f3c3 2302 	ubfx	r3, r3, #8, #3
 8002624:	5ccb      	ldrb	r3, [r1, r3]
 8002626:	6810      	ldr	r0, [r2, #0]
 8002628:	40d8      	lsrs	r0, r3
 800262a:	4770      	bx	lr
 800262c:	40021000 	.word	0x40021000
 8002630:	08007f48 	.word	0x08007f48
 8002634:	20000018 	.word	0x20000018

08002638 <HAL_RCC_GetPCLK2Freq>:
 8002638:	4b04      	ldr	r3, [pc, #16]	; (800264c <HAL_RCC_GetPCLK2Freq+0x14>)
 800263a:	4905      	ldr	r1, [pc, #20]	; (8002650 <HAL_RCC_GetPCLK2Freq+0x18>)
 800263c:	685b      	ldr	r3, [r3, #4]
 800263e:	4a05      	ldr	r2, [pc, #20]	; (8002654 <HAL_RCC_GetPCLK2Freq+0x1c>)
 8002640:	f3c3 23c2 	ubfx	r3, r3, #11, #3
 8002644:	5ccb      	ldrb	r3, [r1, r3]
 8002646:	6810      	ldr	r0, [r2, #0]
 8002648:	40d8      	lsrs	r0, r3
 800264a:	4770      	bx	lr
 800264c:	40021000 	.word	0x40021000
 8002650:	08007f48 	.word	0x08007f48
 8002654:	20000018 	.word	0x20000018

08002658 <HAL_TIM_Base_Init>:
 8002658:	2800      	cmp	r0, #0
 800265a:	d036      	beq.n	80026ca <HAL_TIM_Base_Init+0x72>
 800265c:	f890 303d 	ldrb.w	r3, [r0, #61]	; 0x3d
 8002660:	b570      	push	{r4, r5, r6, lr}
 8002662:	f003 02ff 	and.w	r2, r3, #255	; 0xff
 8002666:	4604      	mov	r4, r0
 8002668:	b30b      	cbz	r3, 80026ae <HAL_TIM_Base_Init+0x56>
 800266a:	2302      	movs	r3, #2
 800266c:	6822      	ldr	r2, [r4, #0]
 800266e:	4e20      	ldr	r6, [pc, #128]	; (80026f0 <HAL_TIM_Base_Init+0x98>)
 8002670:	f884 303d 	strb.w	r3, [r4, #61]	; 0x3d
 8002674:	42b2      	cmp	r2, r6
 8002676:	6813      	ldr	r3, [r2, #0]
 8002678:	69a5      	ldr	r5, [r4, #24]
 800267a:	68e0      	ldr	r0, [r4, #12]
 800267c:	6861      	ldr	r1, [r4, #4]
 800267e:	d026      	beq.n	80026ce <HAL_TIM_Base_Init+0x76>
 8002680:	f1b2 4f80 	cmp.w	r2, #1073741824	; 0x40000000
 8002684:	d018      	beq.n	80026b8 <HAL_TIM_Base_Init+0x60>
 8002686:	f5a6 3694 	sub.w	r6, r6, #75776	; 0x12800
 800268a:	42b2      	cmp	r2, r6
 800268c:	d014      	beq.n	80026b8 <HAL_TIM_Base_Init+0x60>
 800268e:	f506 6680 	add.w	r6, r6, #1024	; 0x400
 8002692:	42b2      	cmp	r2, r6
 8002694:	d010      	beq.n	80026b8 <HAL_TIM_Base_Init+0x60>
 8002696:	f023 0380 	bic.w	r3, r3, #128	; 0x80
 800269a:	432b      	orrs	r3, r5
 800269c:	6013      	str	r3, [r2, #0]
 800269e:	62d0      	str	r0, [r2, #44]	; 0x2c
 80026a0:	6291      	str	r1, [r2, #40]	; 0x28
 80026a2:	2301      	movs	r3, #1
 80026a4:	2000      	movs	r0, #0
 80026a6:	6153      	str	r3, [r2, #20]
 80026a8:	f884 303d 	strb.w	r3, [r4, #61]	; 0x3d
 80026ac:	bd70      	pop	{r4, r5, r6, pc}
 80026ae:	f880 203c 	strb.w	r2, [r0, #60]	; 0x3c
 80026b2:	f7ff f905 	bl	80018c0 <HAL_TIM_Base_MspInit>
 80026b6:	e7d8      	b.n	800266a <HAL_TIM_Base_Init+0x12>
 80026b8:	68a6      	ldr	r6, [r4, #8]
 80026ba:	f023 0370 	bic.w	r3, r3, #112	; 0x70
 80026be:	4333      	orrs	r3, r6
 80026c0:	6926      	ldr	r6, [r4, #16]
 80026c2:	f423 7340 	bic.w	r3, r3, #768	; 0x300
 80026c6:	4333      	orrs	r3, r6
 80026c8:	e7e5      	b.n	8002696 <HAL_TIM_Base_Init+0x3e>
 80026ca:	2001      	movs	r0, #1
 80026cc:	4770      	bx	lr
 80026ce:	68a6      	ldr	r6, [r4, #8]
 80026d0:	f023 0370 	bic.w	r3, r3, #112	; 0x70
 80026d4:	4333      	orrs	r3, r6
 80026d6:	6926      	ldr	r6, [r4, #16]
 80026d8:	f423 7340 	bic.w	r3, r3, #768	; 0x300
 80026dc:	4333      	orrs	r3, r6
 80026de:	f023 0380 	bic.w	r3, r3, #128	; 0x80
 80026e2:	432b      	orrs	r3, r5
 80026e4:	6013      	str	r3, [r2, #0]
 80026e6:	62d0      	str	r0, [r2, #44]	; 0x2c
 80026e8:	6291      	str	r1, [r2, #40]	; 0x28
 80026ea:	6963      	ldr	r3, [r4, #20]
 80026ec:	6313      	str	r3, [r2, #48]	; 0x30
 80026ee:	e7d8      	b.n	80026a2 <HAL_TIM_Base_Init+0x4a>
 80026f0:	40012c00 	.word	0x40012c00

080026f4 <HAL_TIM_Base_Start>:
 80026f4:	2202      	movs	r2, #2
 80026f6:	6801      	ldr	r1, [r0, #0]
 80026f8:	f880 203d 	strb.w	r2, [r0, #61]	; 0x3d
 80026fc:	688a      	ldr	r2, [r1, #8]
 80026fe:	4603      	mov	r3, r0
 8002700:	f002 0207 	and.w	r2, r2, #7
 8002704:	2a06      	cmp	r2, #6
 8002706:	d003      	beq.n	8002710 <HAL_TIM_Base_Start+0x1c>
 8002708:	680a      	ldr	r2, [r1, #0]
 800270a:	f042 0201 	orr.w	r2, r2, #1
 800270e:	600a      	str	r2, [r1, #0]
 8002710:	2201      	movs	r2, #1
 8002712:	2000      	movs	r0, #0
 8002714:	f883 203d 	strb.w	r2, [r3, #61]	; 0x3d
 8002718:	4770      	bx	lr
 800271a:	bf00      	nop

0800271c <HAL_TIM_Base_Start_IT>:
 800271c:	6803      	ldr	r3, [r0, #0]
 800271e:	68da      	ldr	r2, [r3, #12]
 8002720:	f042 0201 	orr.w	r2, r2, #1
 8002724:	60da      	str	r2, [r3, #12]
 8002726:	689a      	ldr	r2, [r3, #8]
 8002728:	f002 0207 	and.w	r2, r2, #7
 800272c:	2a06      	cmp	r2, #6
 800272e:	d003      	beq.n	8002738 <HAL_TIM_Base_Start_IT+0x1c>
 8002730:	681a      	ldr	r2, [r3, #0]
 8002732:	f042 0201 	orr.w	r2, r2, #1
 8002736:	601a      	str	r2, [r3, #0]
 8002738:	2000      	movs	r0, #0
 800273a:	4770      	bx	lr

0800273c <HAL_TIM_OC_MspInit>:
 800273c:	4770      	bx	lr
 800273e:	bf00      	nop

08002740 <HAL_TIM_OC_Init>:
 8002740:	2800      	cmp	r0, #0
 8002742:	d036      	beq.n	80027b2 <HAL_TIM_OC_Init+0x72>
 8002744:	f890 303d 	ldrb.w	r3, [r0, #61]	; 0x3d
 8002748:	b570      	push	{r4, r5, r6, lr}
 800274a:	f003 02ff 	and.w	r2, r3, #255	; 0xff
 800274e:	4604      	mov	r4, r0
 8002750:	b30b      	cbz	r3, 8002796 <HAL_TIM_OC_Init+0x56>
 8002752:	2302      	movs	r3, #2
 8002754:	6822      	ldr	r2, [r4, #0]
 8002756:	4e20      	ldr	r6, [pc, #128]	; (80027d8 <HAL_TIM_OC_Init+0x98>)
 8002758:	f884 303d 	strb.w	r3, [r4, #61]	; 0x3d
 800275c:	42b2      	cmp	r2, r6
 800275e:	6813      	ldr	r3, [r2, #0]
 8002760:	69a5      	ldr	r5, [r4, #24]
 8002762:	68e0      	ldr	r0, [r4, #12]
 8002764:	6861      	ldr	r1, [r4, #4]
 8002766:	d026      	beq.n	80027b6 <HAL_TIM_OC_Init+0x76>
 8002768:	f1b2 4f80 	cmp.w	r2, #1073741824	; 0x40000000
 800276c:	d018      	beq.n	80027a0 <HAL_TIM_OC_Init+0x60>
 800276e:	f5a6 3694 	sub.w	r6, r6, #75776	; 0x12800
 8002772:	42b2      	cmp	r2, r6
 8002774:	d014      	beq.n	80027a0 <HAL_TIM_OC_Init+0x60>
 8002776:	f506 6680 	add.w	r6, r6, #1024	; 0x400
 800277a:	42b2      	cmp	r2, r6
 800277c:	d010      	beq.n	80027a0 <HAL_TIM_OC_Init+0x60>
 800277e:	f023 0380 	bic.w	r3, r3, #128	; 0x80
 8002782:	432b      	orrs	r3, r5
 8002784:	6013      	str	r3, [r2, #0]
 8002786:	62d0      	str	r0, [r2, #44]	; 0x2c
 8002788:	6291      	str	r1, [r2, #40]	; 0x28
 800278a:	2301      	movs	r3, #1
 800278c:	2000      	movs	r0, #0
 800278e:	6153      	str	r3, [r2, #20]
 8002790:	f884 303d 	strb.w	r3, [r4, #61]	; 0x3d
 8002794:	bd70      	pop	{r4, r5, r6, pc}
 8002796:	f880 203c 	strb.w	r2, [r0, #60]	; 0x3c
 800279a:	f7ff ffcf 	bl	800273c <HAL_TIM_OC_MspInit>
 800279e:	e7d8      	b.n	8002752 <HAL_TIM_OC_Init+0x12>
 80027a0:	68a6      	ldr	r6, [r4, #8]
 80027a2:	f023 0370 	bic.w	r3, r3, #112	; 0x70
 80027a6:	4333      	orrs	r3, r6
 80027a8:	6926      	ldr	r6, [r4, #16]
 80027aa:	f423 7340 	bic.w	r3, r3, #768	; 0x300
 80027ae:	4333      	orrs	r3, r6
 80027b0:	e7e5      	b.n	800277e <HAL_TIM_OC_Init+0x3e>
 80027b2:	2001      	movs	r0, #1
 80027b4:	4770      	bx	lr
 80027b6:	68a6      	ldr	r6, [r4, #8]
 80027b8:	f023 0370 	bic.w	r3, r3, #112	; 0x70
 80027bc:	4333      	orrs	r3, r6
 80027be:	6926      	ldr	r6, [r4, #16]
 80027c0:	f423 7340 	bic.w	r3, r3, #768	; 0x300
 80027c4:	4333      	orrs	r3, r6
 80027c6:	f023 0380 	bic.w	r3, r3, #128	; 0x80
 80027ca:	432b      	orrs	r3, r5
 80027cc:	6013      	str	r3, [r2, #0]
 80027ce:	62d0      	str	r0, [r2, #44]	; 0x2c
 80027d0:	6291      	str	r1, [r2, #40]	; 0x28
 80027d2:	6963      	ldr	r3, [r4, #20]
 80027d4:	6313      	str	r3, [r2, #48]	; 0x30
 80027d6:	e7d8      	b.n	800278a <HAL_TIM_OC_Init+0x4a>
 80027d8:	40012c00 	.word	0x40012c00

080027dc <HAL_TIM_OC_Start_IT>:
 80027dc:	6803      	ldr	r3, [r0, #0]
 80027de:	290c      	cmp	r1, #12
 80027e0:	d80c      	bhi.n	80027fc <HAL_TIM_OC_Start_IT+0x20>
 80027e2:	e8df f001 	tbb	[pc, r1]
 80027e6:	0b07      	.short	0x0b07
 80027e8:	0b2f0b0b 	.word	0x0b2f0b0b
 80027ec:	0b2a0b0b 	.word	0x0b2a0b0b
 80027f0:	0b0b      	.short	0x0b0b
 80027f2:	25          	.byte	0x25
 80027f3:	00          	.byte	0x00
 80027f4:	68da      	ldr	r2, [r3, #12]
 80027f6:	f042 0202 	orr.w	r2, r2, #2
 80027fa:	60da      	str	r2, [r3, #12]
 80027fc:	2201      	movs	r2, #1
 80027fe:	6a18      	ldr	r0, [r3, #32]
 8002800:	f001 011f 	and.w	r1, r1, #31
 8002804:	fa02 f101 	lsl.w	r1, r2, r1
 8002808:	ea20 0001 	bic.w	r0, r0, r1
 800280c:	6218      	str	r0, [r3, #32]
 800280e:	6a18      	ldr	r0, [r3, #32]
 8002810:	4a11      	ldr	r2, [pc, #68]	; (8002858 <HAL_TIM_OC_Start_IT+0x7c>)
 8002812:	4301      	orrs	r1, r0
 8002814:	4293      	cmp	r3, r2
 8002816:	6219      	str	r1, [r3, #32]
 8002818:	d019      	beq.n	800284e <HAL_TIM_OC_Start_IT+0x72>
 800281a:	689a      	ldr	r2, [r3, #8]
 800281c:	f002 0207 	and.w	r2, r2, #7
 8002820:	2a06      	cmp	r2, #6
 8002822:	d003      	beq.n	800282c <HAL_TIM_OC_Start_IT+0x50>
 8002824:	681a      	ldr	r2, [r3, #0]
 8002826:	f042 0201 	orr.w	r2, r2, #1
 800282a:	601a      	str	r2, [r3, #0]
 800282c:	2000      	movs	r0, #0
 800282e:	4770      	bx	lr
 8002830:	68da      	ldr	r2, [r3, #12]
 8002832:	f042 0210 	orr.w	r2, r2, #16
 8002836:	60da      	str	r2, [r3, #12]
 8002838:	e7e0      	b.n	80027fc <HAL_TIM_OC_Start_IT+0x20>
 800283a:	68da      	ldr	r2, [r3, #12]
 800283c:	f042 0208 	orr.w	r2, r2, #8
 8002840:	60da      	str	r2, [r3, #12]
 8002842:	e7db      	b.n	80027fc <HAL_TIM_OC_Start_IT+0x20>
 8002844:	68da      	ldr	r2, [r3, #12]
 8002846:	f042 0204 	orr.w	r2, r2, #4
 800284a:	60da      	str	r2, [r3, #12]
 800284c:	e7d6      	b.n	80027fc <HAL_TIM_OC_Start_IT+0x20>
 800284e:	6c5a      	ldr	r2, [r3, #68]	; 0x44
 8002850:	f442 4200 	orr.w	r2, r2, #32768	; 0x8000
 8002854:	645a      	str	r2, [r3, #68]	; 0x44
 8002856:	e7e0      	b.n	800281a <HAL_TIM_OC_Start_IT+0x3e>
 8002858:	40012c00 	.word	0x40012c00

0800285c <HAL_TIM_PWM_MspInit>:
 800285c:	4770      	bx	lr
 800285e:	bf00      	nop

08002860 <HAL_TIM_PWM_Init>:
 8002860:	2800      	cmp	r0, #0
 8002862:	d036      	beq.n	80028d2 <HAL_TIM_PWM_Init+0x72>
 8002864:	f890 303d 	ldrb.w	r3, [r0, #61]	; 0x3d
 8002868:	b570      	push	{r4, r5, r6, lr}
 800286a:	f003 02ff 	and.w	r2, r3, #255	; 0xff
 800286e:	4604      	mov	r4, r0
 8002870:	b30b      	cbz	r3, 80028b6 <HAL_TIM_PWM_Init+0x56>
 8002872:	2302      	movs	r3, #2
 8002874:	6822      	ldr	r2, [r4, #0]
 8002876:	4e20      	ldr	r6, [pc, #128]	; (80028f8 <HAL_TIM_PWM_Init+0x98>)
 8002878:	f884 303d 	strb.w	r3, [r4, #61]	; 0x3d
 800287c:	42b2      	cmp	r2, r6
 800287e:	6813      	ldr	r3, [r2, #0]
 8002880:	69a5      	ldr	r5, [r4, #24]
 8002882:	68e0      	ldr	r0, [r4, #12]
 8002884:	6861      	ldr	r1, [r4, #4]
 8002886:	d026      	beq.n	80028d6 <HAL_TIM_PWM_Init+0x76>
 8002888:	f1b2 4f80 	cmp.w	r2, #1073741824	; 0x40000000
 800288c:	d018      	beq.n	80028c0 <HAL_TIM_PWM_Init+0x60>
 800288e:	f5a6 3694 	sub.w	r6, r6, #75776	; 0x12800
 8002892:	42b2      	cmp	r2, r6
 8002894:	d014      	beq.n	80028c0 <HAL_TIM_PWM_Init+0x60>
 8002896:	f506 6680 	add.w	r6, r6, #1024	; 0x400
 800289a:	42b2      	cmp	r2, r6
 800289c:	d010      	beq.n	80028c0 <HAL_TIM_PWM_Init+0x60>
 800289e:	f023 0380 	bic.w	r3, r3, #128	; 0x80
 80028a2:	432b      	orrs	r3, r5
 80028a4:	6013      	str	r3, [r2, #0]
 80028a6:	62d0      	str	r0, [r2, #44]	; 0x2c
 80028a8:	6291      	str	r1, [r2, #40]	; 0x28
 80028aa:	2301      	movs	r3, #1
 80028ac:	2000      	movs	r0, #0
 80028ae:	6153      	str	r3, [r2, #20]
 80028b0:	f884 303d 	strb.w	r3, [r4, #61]	; 0x3d
 80028b4:	bd70      	pop	{r4, r5, r6, pc}
 80028b6:	f880 203c 	strb.w	r2, [r0, #60]	; 0x3c
 80028ba:	f7ff ffcf 	bl	800285c <HAL_TIM_PWM_MspInit>
 80028be:	e7d8      	b.n	8002872 <HAL_TIM_PWM_Init+0x12>
 80028c0:	68a6      	ldr	r6, [r4, #8]
 80028c2:	f023 0370 	bic.w	r3, r3, #112	; 0x70
 80028c6:	4333      	orrs	r3, r6
 80028c8:	6926      	ldr	r6, [r4, #16]
 80028ca:	f423 7340 	bic.w	r3, r3, #768	; 0x300
 80028ce:	4333      	orrs	r3, r6
 80028d0:	e7e5      	b.n	800289e <HAL_TIM_PWM_Init+0x3e>
 80028d2:	2001      	movs	r0, #1
 80028d4:	4770      	bx	lr
 80028d6:	68a6      	ldr	r6, [r4, #8]
 80028d8:	f023 0370 	bic.w	r3, r3, #112	; 0x70
 80028dc:	4333      	orrs	r3, r6
 80028de:	6926      	ldr	r6, [r4, #16]
 80028e0:	f423 7340 	bic.w	r3, r3, #768	; 0x300
 80028e4:	4333      	orrs	r3, r6
 80028e6:	f023 0380 	bic.w	r3, r3, #128	; 0x80
 80028ea:	432b      	orrs	r3, r5
 80028ec:	6013      	str	r3, [r2, #0]
 80028ee:	62d0      	str	r0, [r2, #44]	; 0x2c
 80028f0:	6291      	str	r1, [r2, #40]	; 0x28
 80028f2:	6963      	ldr	r3, [r4, #20]
 80028f4:	6313      	str	r3, [r2, #48]	; 0x30
 80028f6:	e7d8      	b.n	80028aa <HAL_TIM_PWM_Init+0x4a>
 80028f8:	40012c00 	.word	0x40012c00

080028fc <HAL_TIM_PWM_Start_IT>:
 80028fc:	6803      	ldr	r3, [r0, #0]
 80028fe:	290c      	cmp	r1, #12
 8002900:	d80c      	bhi.n	800291c <HAL_TIM_PWM_Start_IT+0x20>
 8002902:	e8df f001 	tbb	[pc, r1]
 8002906:	0b2f      	.short	0x0b2f
 8002908:	0b2a0b0b 	.word	0x0b2a0b0b
 800290c:	0b250b0b 	.word	0x0b250b0b
 8002910:	0b0b      	.short	0x0b0b
 8002912:	07          	.byte	0x07
 8002913:	00          	.byte	0x00
 8002914:	68da      	ldr	r2, [r3, #12]
 8002916:	f042 0210 	orr.w	r2, r2, #16
 800291a:	60da      	str	r2, [r3, #12]
 800291c:	2201      	movs	r2, #1
 800291e:	6a18      	ldr	r0, [r3, #32]
 8002920:	f001 011f 	and.w	r1, r1, #31
 8002924:	fa02 f101 	lsl.w	r1, r2, r1
 8002928:	ea20 0001 	bic.w	r0, r0, r1
 800292c:	6218      	str	r0, [r3, #32]
 800292e:	6a18      	ldr	r0, [r3, #32]
 8002930:	4a11      	ldr	r2, [pc, #68]	; (8002978 <HAL_TIM_PWM_Start_IT+0x7c>)
 8002932:	4301      	orrs	r1, r0
 8002934:	4293      	cmp	r3, r2
 8002936:	6219      	str	r1, [r3, #32]
 8002938:	d019      	beq.n	800296e <HAL_TIM_PWM_Start_IT+0x72>
 800293a:	689a      	ldr	r2, [r3, #8]
 800293c:	f002 0207 	and.w	r2, r2, #7
 8002940:	2a06      	cmp	r2, #6
 8002942:	d003      	beq.n	800294c <HAL_TIM_PWM_Start_IT+0x50>
 8002944:	681a      	ldr	r2, [r3, #0]
 8002946:	f042 0201 	orr.w	r2, r2, #1
 800294a:	601a      	str	r2, [r3, #0]
 800294c:	2000      	movs	r0, #0
 800294e:	4770      	bx	lr
 8002950:	68da      	ldr	r2, [r3, #12]
 8002952:	f042 0208 	orr.w	r2, r2, #8
 8002956:	60da      	str	r2, [r3, #12]
 8002958:	e7e0      	b.n	800291c <HAL_TIM_PWM_Start_IT+0x20>
 800295a:	68da      	ldr	r2, [r3, #12]
 800295c:	f042 0204 	orr.w	r2, r2, #4
 8002960:	60da      	str	r2, [r3, #12]
 8002962:	e7db      	b.n	800291c <HAL_TIM_PWM_Start_IT+0x20>
 8002964:	68da      	ldr	r2, [r3, #12]
 8002966:	f042 0202 	orr.w	r2, r2, #2
 800296a:	60da      	str	r2, [r3, #12]
 800296c:	e7d6      	b.n	800291c <HAL_TIM_PWM_Start_IT+0x20>
 800296e:	6c5a      	ldr	r2, [r3, #68]	; 0x44
 8002970:	f442 4200 	orr.w	r2, r2, #32768	; 0x8000
 8002974:	645a      	str	r2, [r3, #68]	; 0x44
 8002976:	e7e0      	b.n	800293a <HAL_TIM_PWM_Start_IT+0x3e>
 8002978:	40012c00 	.word	0x40012c00

0800297c <HAL_TIM_Encoder_Init>:
 800297c:	2800      	cmp	r0, #0
 800297e:	d06c      	beq.n	8002a5a <HAL_TIM_Encoder_Init+0xde>
 8002980:	e92d 46f8 	stmdb	sp!, {r3, r4, r5, r6, r7, r9, sl, lr}
 8002984:	f890 303d 	ldrb.w	r3, [r0, #61]	; 0x3d
 8002988:	4604      	mov	r4, r0
 800298a:	460d      	mov	r5, r1
 800298c:	f003 02ff 	and.w	r2, r3, #255	; 0xff
 8002990:	2b00      	cmp	r3, #0
 8002992:	d054      	beq.n	8002a3e <HAL_TIM_Encoder_Init+0xc2>
 8002994:	2202      	movs	r2, #2
 8002996:	6823      	ldr	r3, [r4, #0]
 8002998:	f884 203d 	strb.w	r2, [r4, #61]	; 0x3d
 800299c:	689a      	ldr	r2, [r3, #8]
 800299e:	4e38      	ldr	r6, [pc, #224]	; (8002a80 <HAL_TIM_Encoder_Init+0x104>)
 80029a0:	f422 4280 	bic.w	r2, r2, #16384	; 0x4000
 80029a4:	f022 0207 	bic.w	r2, r2, #7
 80029a8:	609a      	str	r2, [r3, #8]
 80029aa:	42b3      	cmp	r3, r6
 80029ac:	681a      	ldr	r2, [r3, #0]
 80029ae:	69a7      	ldr	r7, [r4, #24]
 80029b0:	68e1      	ldr	r1, [r4, #12]
 80029b2:	6860      	ldr	r0, [r4, #4]
 80029b4:	d053      	beq.n	8002a5e <HAL_TIM_Encoder_Init+0xe2>
 80029b6:	f1b3 4f80 	cmp.w	r3, #1073741824	; 0x40000000
 80029ba:	d045      	beq.n	8002a48 <HAL_TIM_Encoder_Init+0xcc>
 80029bc:	f5a6 3694 	sub.w	r6, r6, #75776	; 0x12800
 80029c0:	42b3      	cmp	r3, r6
 80029c2:	d041      	beq.n	8002a48 <HAL_TIM_Encoder_Init+0xcc>
 80029c4:	f506 6680 	add.w	r6, r6, #1024	; 0x400
 80029c8:	42b3      	cmp	r3, r6
 80029ca:	d03d      	beq.n	8002a48 <HAL_TIM_Encoder_Init+0xcc>
 80029cc:	f022 0280 	bic.w	r2, r2, #128	; 0x80
 80029d0:	433a      	orrs	r2, r7
 80029d2:	601a      	str	r2, [r3, #0]
 80029d4:	62d9      	str	r1, [r3, #44]	; 0x2c
 80029d6:	6298      	str	r0, [r3, #40]	; 0x28
 80029d8:	2601      	movs	r6, #1
 80029da:	615e      	str	r6, [r3, #20]
 80029dc:	f8d3 c008 	ldr.w	ip, [r3, #8]
 80029e0:	699f      	ldr	r7, [r3, #24]
 80029e2:	68a8      	ldr	r0, [r5, #8]
 80029e4:	69a9      	ldr	r1, [r5, #24]
 80029e6:	f427 7740 	bic.w	r7, r7, #768	; 0x300
 80029ea:	692a      	ldr	r2, [r5, #16]
 80029ec:	f027 0703 	bic.w	r7, r7, #3
 80029f0:	ea40 2101 	orr.w	r1, r0, r1, lsl #8
 80029f4:	4339      	orrs	r1, r7
 80029f6:	69ef      	ldr	r7, [r5, #28]
 80029f8:	68e8      	ldr	r0, [r5, #12]
 80029fa:	0112      	lsls	r2, r2, #4
 80029fc:	ea42 2207 	orr.w	r2, r2, r7, lsl #8
 8002a00:	f8d5 a020 	ldr.w	sl, [r5, #32]
 8002a04:	f8d5 9014 	ldr.w	r9, [r5, #20]
 8002a08:	6a1f      	ldr	r7, [r3, #32]
 8002a0a:	4302      	orrs	r2, r0
 8002a0c:	6868      	ldr	r0, [r5, #4]
 8002a0e:	f8d5 e000 	ldr.w	lr, [r5]
 8002a12:	f421 417c 	bic.w	r1, r1, #64512	; 0xfc00
 8002a16:	ea40 1009 	orr.w	r0, r0, r9, lsl #4
 8002a1a:	f021 01fc 	bic.w	r1, r1, #252	; 0xfc
 8002a1e:	ea42 320a 	orr.w	r2, r2, sl, lsl #12
 8002a22:	f027 0722 	bic.w	r7, r7, #34	; 0x22
 8002a26:	4307      	orrs	r7, r0
 8002a28:	ea4c 050e 	orr.w	r5, ip, lr
 8002a2c:	430a      	orrs	r2, r1
 8002a2e:	609d      	str	r5, [r3, #8]
 8002a30:	2000      	movs	r0, #0
 8002a32:	619a      	str	r2, [r3, #24]
 8002a34:	621f      	str	r7, [r3, #32]
 8002a36:	f884 603d 	strb.w	r6, [r4, #61]	; 0x3d
 8002a3a:	e8bd 86f8 	ldmia.w	sp!, {r3, r4, r5, r6, r7, r9, sl, pc}
 8002a3e:	f880 203c 	strb.w	r2, [r0, #60]	; 0x3c
 8002a42:	f7fe ff85 	bl	8001950 <HAL_TIM_Encoder_MspInit>
 8002a46:	e7a5      	b.n	8002994 <HAL_TIM_Encoder_Init+0x18>
 8002a48:	68a6      	ldr	r6, [r4, #8]
 8002a4a:	f022 0270 	bic.w	r2, r2, #112	; 0x70
 8002a4e:	4332      	orrs	r2, r6
 8002a50:	6926      	ldr	r6, [r4, #16]
 8002a52:	f422 7240 	bic.w	r2, r2, #768	; 0x300
 8002a56:	4332      	orrs	r2, r6
 8002a58:	e7b8      	b.n	80029cc <HAL_TIM_Encoder_Init+0x50>
 8002a5a:	2001      	movs	r0, #1
 8002a5c:	4770      	bx	lr
 8002a5e:	68a6      	ldr	r6, [r4, #8]
 8002a60:	f022 0270 	bic.w	r2, r2, #112	; 0x70
 8002a64:	4332      	orrs	r2, r6
 8002a66:	6926      	ldr	r6, [r4, #16]
 8002a68:	f422 7240 	bic.w	r2, r2, #768	; 0x300
 8002a6c:	4332      	orrs	r2, r6
 8002a6e:	f022 0280 	bic.w	r2, r2, #128	; 0x80
 8002a72:	433a      	orrs	r2, r7
 8002a74:	601a      	str	r2, [r3, #0]
 8002a76:	62d9      	str	r1, [r3, #44]	; 0x2c
 8002a78:	6298      	str	r0, [r3, #40]	; 0x28
 8002a7a:	6962      	ldr	r2, [r4, #20]
 8002a7c:	631a      	str	r2, [r3, #48]	; 0x30
 8002a7e:	e7ab      	b.n	80029d8 <HAL_TIM_Encoder_Init+0x5c>
 8002a80:	40012c00 	.word	0x40012c00

08002a84 <HAL_TIM_Encoder_Start_IT>:
 8002a84:	6803      	ldr	r3, [r0, #0]
 8002a86:	2900      	cmp	r1, #0
 8002a88:	d02c      	beq.n	8002ae4 <HAL_TIM_Encoder_Start_IT+0x60>
 8002a8a:	2904      	cmp	r1, #4
 8002a8c:	d01d      	beq.n	8002aca <HAL_TIM_Encoder_Start_IT+0x46>
 8002a8e:	6a1a      	ldr	r2, [r3, #32]
 8002a90:	f022 0201 	bic.w	r2, r2, #1
 8002a94:	621a      	str	r2, [r3, #32]
 8002a96:	6a1a      	ldr	r2, [r3, #32]
 8002a98:	f042 0201 	orr.w	r2, r2, #1
 8002a9c:	621a      	str	r2, [r3, #32]
 8002a9e:	6a1a      	ldr	r2, [r3, #32]
 8002aa0:	f022 0210 	bic.w	r2, r2, #16
 8002aa4:	621a      	str	r2, [r3, #32]
 8002aa6:	6a1a      	ldr	r2, [r3, #32]
 8002aa8:	f042 0210 	orr.w	r2, r2, #16
 8002aac:	621a      	str	r2, [r3, #32]
 8002aae:	68da      	ldr	r2, [r3, #12]
 8002ab0:	f042 0202 	orr.w	r2, r2, #2
 8002ab4:	60da      	str	r2, [r3, #12]
 8002ab6:	68da      	ldr	r2, [r3, #12]
 8002ab8:	f042 0204 	orr.w	r2, r2, #4
 8002abc:	60da      	str	r2, [r3, #12]
 8002abe:	681a      	ldr	r2, [r3, #0]
 8002ac0:	2000      	movs	r0, #0
 8002ac2:	f042 0201 	orr.w	r2, r2, #1
 8002ac6:	601a      	str	r2, [r3, #0]
 8002ac8:	4770      	bx	lr
 8002aca:	6a1a      	ldr	r2, [r3, #32]
 8002acc:	f022 0210 	bic.w	r2, r2, #16
 8002ad0:	621a      	str	r2, [r3, #32]
 8002ad2:	6a1a      	ldr	r2, [r3, #32]
 8002ad4:	f042 0210 	orr.w	r2, r2, #16
 8002ad8:	621a      	str	r2, [r3, #32]
 8002ada:	68da      	ldr	r2, [r3, #12]
 8002adc:	f042 0204 	orr.w	r2, r2, #4
 8002ae0:	60da      	str	r2, [r3, #12]
 8002ae2:	e7ec      	b.n	8002abe <HAL_TIM_Encoder_Start_IT+0x3a>
 8002ae4:	6a1a      	ldr	r2, [r3, #32]
 8002ae6:	f022 0201 	bic.w	r2, r2, #1
 8002aea:	621a      	str	r2, [r3, #32]
 8002aec:	6a1a      	ldr	r2, [r3, #32]
 8002aee:	f042 0201 	orr.w	r2, r2, #1
 8002af2:	621a      	str	r2, [r3, #32]
 8002af4:	68da      	ldr	r2, [r3, #12]
 8002af6:	f042 0202 	orr.w	r2, r2, #2
 8002afa:	60da      	str	r2, [r3, #12]
 8002afc:	e7df      	b.n	8002abe <HAL_TIM_Encoder_Start_IT+0x3a>
 8002afe:	bf00      	nop

08002b00 <HAL_TIM_OC_ConfigChannel>:
 8002b00:	f890 303c 	ldrb.w	r3, [r0, #60]	; 0x3c
 8002b04:	2b01      	cmp	r3, #1
 8002b06:	f000 8093 	beq.w	8002c30 <HAL_TIM_OC_ConfigChannel+0x130>
 8002b0a:	b4f0      	push	{r4, r5, r6, r7}
 8002b0c:	2302      	movs	r3, #2
 8002b0e:	2401      	movs	r4, #1
 8002b10:	f880 303d 	strb.w	r3, [r0, #61]	; 0x3d
 8002b14:	f880 403c 	strb.w	r4, [r0, #60]	; 0x3c
 8002b18:	2a0c      	cmp	r2, #12
 8002b1a:	d829      	bhi.n	8002b70 <HAL_TIM_OC_ConfigChannel+0x70>
 8002b1c:	e8df f002 	tbb	[pc, r2]
 8002b20:	28282831 	.word	0x28282831
 8002b24:	2828284e 	.word	0x2828284e
 8002b28:	2828286b 	.word	0x2828286b
 8002b2c:	07          	.byte	0x07
 8002b2d:	00          	.byte	0x00
 8002b2e:	6803      	ldr	r3, [r0, #0]
 8002b30:	688f      	ldr	r7, [r1, #8]
 8002b32:	6a1d      	ldr	r5, [r3, #32]
 8002b34:	680e      	ldr	r6, [r1, #0]
 8002b36:	f425 5580 	bic.w	r5, r5, #4096	; 0x1000
 8002b3a:	621d      	str	r5, [r3, #32]
 8002b3c:	6a1a      	ldr	r2, [r3, #32]
 8002b3e:	4d53      	ldr	r5, [pc, #332]	; (8002c8c <HAL_TIM_OC_ConfigChannel+0x18c>)
 8002b40:	f8d3 c004 	ldr.w	ip, [r3, #4]
 8002b44:	69dc      	ldr	r4, [r3, #28]
 8002b46:	f422 5200 	bic.w	r2, r2, #8192	; 0x2000
 8002b4a:	f424 44e6 	bic.w	r4, r4, #29440	; 0x7300
 8002b4e:	42ab      	cmp	r3, r5
 8002b50:	ea42 3207 	orr.w	r2, r2, r7, lsl #12
 8002b54:	ea44 2406 	orr.w	r4, r4, r6, lsl #8
 8002b58:	d104      	bne.n	8002b64 <HAL_TIM_OC_ConfigChannel+0x64>
 8002b5a:	694d      	ldr	r5, [r1, #20]
 8002b5c:	f42c 4c80 	bic.w	ip, ip, #16384	; 0x4000
 8002b60:	ea4c 1c85 	orr.w	ip, ip, r5, lsl #6
 8002b64:	6849      	ldr	r1, [r1, #4]
 8002b66:	f8c3 c004 	str.w	ip, [r3, #4]
 8002b6a:	61dc      	str	r4, [r3, #28]
 8002b6c:	6419      	str	r1, [r3, #64]	; 0x40
 8002b6e:	621a      	str	r2, [r3, #32]
 8002b70:	2300      	movs	r3, #0
 8002b72:	bcf0      	pop	{r4, r5, r6, r7}
 8002b74:	2201      	movs	r2, #1
 8002b76:	f880 303c 	strb.w	r3, [r0, #60]	; 0x3c
 8002b7a:	f880 203d 	strb.w	r2, [r0, #61]	; 0x3d
 8002b7e:	4618      	mov	r0, r3
 8002b80:	4770      	bx	lr
 8002b82:	6803      	ldr	r3, [r0, #0]
 8002b84:	688f      	ldr	r7, [r1, #8]
 8002b86:	6a1d      	ldr	r5, [r3, #32]
 8002b88:	680e      	ldr	r6, [r1, #0]
 8002b8a:	f025 0501 	bic.w	r5, r5, #1
 8002b8e:	621d      	str	r5, [r3, #32]
 8002b90:	6a1a      	ldr	r2, [r3, #32]
 8002b92:	4d3e      	ldr	r5, [pc, #248]	; (8002c8c <HAL_TIM_OC_ConfigChannel+0x18c>)
 8002b94:	f8d3 c004 	ldr.w	ip, [r3, #4]
 8002b98:	699c      	ldr	r4, [r3, #24]
 8002b9a:	f022 0202 	bic.w	r2, r2, #2
 8002b9e:	f024 0473 	bic.w	r4, r4, #115	; 0x73
 8002ba2:	42ab      	cmp	r3, r5
 8002ba4:	ea42 0207 	orr.w	r2, r2, r7
 8002ba8:	ea44 0406 	orr.w	r4, r4, r6
 8002bac:	d051      	beq.n	8002c52 <HAL_TIM_OC_ConfigChannel+0x152>
 8002bae:	6849      	ldr	r1, [r1, #4]
 8002bb0:	f8c3 c004 	str.w	ip, [r3, #4]
 8002bb4:	619c      	str	r4, [r3, #24]
 8002bb6:	6359      	str	r1, [r3, #52]	; 0x34
 8002bb8:	621a      	str	r2, [r3, #32]
 8002bba:	e7d9      	b.n	8002b70 <HAL_TIM_OC_ConfigChannel+0x70>
 8002bbc:	6803      	ldr	r3, [r0, #0]
 8002bbe:	688f      	ldr	r7, [r1, #8]
 8002bc0:	6a1d      	ldr	r5, [r3, #32]
 8002bc2:	680e      	ldr	r6, [r1, #0]
 8002bc4:	f025 0510 	bic.w	r5, r5, #16
 8002bc8:	621d      	str	r5, [r3, #32]
 8002bca:	6a1a      	ldr	r2, [r3, #32]
 8002bcc:	4d2f      	ldr	r5, [pc, #188]	; (8002c8c <HAL_TIM_OC_ConfigChannel+0x18c>)
 8002bce:	f8d3 c004 	ldr.w	ip, [r3, #4]
 8002bd2:	699c      	ldr	r4, [r3, #24]
 8002bd4:	f022 0220 	bic.w	r2, r2, #32
 8002bd8:	f424 44e6 	bic.w	r4, r4, #29440	; 0x7300
 8002bdc:	42ab      	cmp	r3, r5
 8002bde:	ea42 1207 	orr.w	r2, r2, r7, lsl #4
 8002be2:	ea44 2406 	orr.w	r4, r4, r6, lsl #8
 8002be6:	d042      	beq.n	8002c6e <HAL_TIM_OC_ConfigChannel+0x16e>
 8002be8:	6849      	ldr	r1, [r1, #4]
 8002bea:	f8c3 c004 	str.w	ip, [r3, #4]
 8002bee:	619c      	str	r4, [r3, #24]
 8002bf0:	6399      	str	r1, [r3, #56]	; 0x38
 8002bf2:	621a      	str	r2, [r3, #32]
 8002bf4:	e7bc      	b.n	8002b70 <HAL_TIM_OC_ConfigChannel+0x70>
 8002bf6:	6803      	ldr	r3, [r0, #0]
 8002bf8:	688f      	ldr	r7, [r1, #8]
 8002bfa:	6a1d      	ldr	r5, [r3, #32]
 8002bfc:	680e      	ldr	r6, [r1, #0]
 8002bfe:	f425 7580 	bic.w	r5, r5, #256	; 0x100
 8002c02:	621d      	str	r5, [r3, #32]
 8002c04:	6a1a      	ldr	r2, [r3, #32]
 8002c06:	4d21      	ldr	r5, [pc, #132]	; (8002c8c <HAL_TIM_OC_ConfigChannel+0x18c>)
 8002c08:	f8d3 c004 	ldr.w	ip, [r3, #4]
 8002c0c:	69dc      	ldr	r4, [r3, #28]
 8002c0e:	f422 7200 	bic.w	r2, r2, #512	; 0x200
 8002c12:	f024 0473 	bic.w	r4, r4, #115	; 0x73
 8002c16:	42ab      	cmp	r3, r5
 8002c18:	ea42 2207 	orr.w	r2, r2, r7, lsl #8
 8002c1c:	ea44 0406 	orr.w	r4, r4, r6
 8002c20:	d008      	beq.n	8002c34 <HAL_TIM_OC_ConfigChannel+0x134>
 8002c22:	6849      	ldr	r1, [r1, #4]
 8002c24:	f8c3 c004 	str.w	ip, [r3, #4]
 8002c28:	61dc      	str	r4, [r3, #28]
 8002c2a:	63d9      	str	r1, [r3, #60]	; 0x3c
 8002c2c:	621a      	str	r2, [r3, #32]
 8002c2e:	e79f      	b.n	8002b70 <HAL_TIM_OC_ConfigChannel+0x70>
 8002c30:	2002      	movs	r0, #2
 8002c32:	4770      	bx	lr
 8002c34:	68ce      	ldr	r6, [r1, #12]
 8002c36:	f422 6200 	bic.w	r2, r2, #2048	; 0x800
 8002c3a:	e9d1 7505 	ldrd	r7, r5, [r1, #20]
 8002c3e:	f42c 5c40 	bic.w	ip, ip, #12288	; 0x3000
 8002c42:	ea42 2206 	orr.w	r2, r2, r6, lsl #8
 8002c46:	433d      	orrs	r5, r7
 8002c48:	f422 6280 	bic.w	r2, r2, #1024	; 0x400
 8002c4c:	ea4c 1c05 	orr.w	ip, ip, r5, lsl #4
 8002c50:	e7e7      	b.n	8002c22 <HAL_TIM_OC_ConfigChannel+0x122>
 8002c52:	68cf      	ldr	r7, [r1, #12]
 8002c54:	f022 0208 	bic.w	r2, r2, #8
 8002c58:	e9d1 5605 	ldrd	r5, r6, [r1, #20]
 8002c5c:	f42c 7c40 	bic.w	ip, ip, #768	; 0x300
 8002c60:	433a      	orrs	r2, r7
 8002c62:	4335      	orrs	r5, r6
 8002c64:	f022 0204 	bic.w	r2, r2, #4
 8002c68:	ea45 0c0c 	orr.w	ip, r5, ip
 8002c6c:	e79f      	b.n	8002bae <HAL_TIM_OC_ConfigChannel+0xae>
 8002c6e:	68ce      	ldr	r6, [r1, #12]
 8002c70:	f022 0280 	bic.w	r2, r2, #128	; 0x80
 8002c74:	e9d1 7505 	ldrd	r7, r5, [r1, #20]
 8002c78:	f42c 6c40 	bic.w	ip, ip, #3072	; 0xc00
 8002c7c:	ea42 1206 	orr.w	r2, r2, r6, lsl #4
 8002c80:	433d      	orrs	r5, r7
 8002c82:	f022 0240 	bic.w	r2, r2, #64	; 0x40
 8002c86:	ea4c 0c85 	orr.w	ip, ip, r5, lsl #2
 8002c8a:	e7ad      	b.n	8002be8 <HAL_TIM_OC_ConfigChannel+0xe8>
 8002c8c:	40012c00 	.word	0x40012c00

08002c90 <HAL_TIM_PWM_ConfigChannel>:
 8002c90:	f890 303c 	ldrb.w	r3, [r0, #60]	; 0x3c
 8002c94:	2b01      	cmp	r3, #1
 8002c96:	f000 80c5 	beq.w	8002e24 <HAL_TIM_PWM_ConfigChannel+0x194>
 8002c9a:	b4f0      	push	{r4, r5, r6, r7}
 8002c9c:	2302      	movs	r3, #2
 8002c9e:	2401      	movs	r4, #1
 8002ca0:	f880 303d 	strb.w	r3, [r0, #61]	; 0x3d
 8002ca4:	f880 403c 	strb.w	r4, [r0, #60]	; 0x3c
 8002ca8:	2a0c      	cmp	r2, #12
 8002caa:	d836      	bhi.n	8002d1a <HAL_TIM_PWM_ConfigChannel+0x8a>
 8002cac:	e8df f002 	tbb	[pc, r2]
 8002cb0:	3535353e 	.word	0x3535353e
 8002cb4:	35353567 	.word	0x35353567
 8002cb8:	35353591 	.word	0x35353591
 8002cbc:	07          	.byte	0x07
 8002cbd:	00          	.byte	0x00
 8002cbe:	6803      	ldr	r3, [r0, #0]
 8002cc0:	688f      	ldr	r7, [r1, #8]
 8002cc2:	6a1d      	ldr	r5, [r3, #32]
 8002cc4:	680e      	ldr	r6, [r1, #0]
 8002cc6:	f425 5580 	bic.w	r5, r5, #4096	; 0x1000
 8002cca:	621d      	str	r5, [r3, #32]
 8002ccc:	6a1a      	ldr	r2, [r3, #32]
 8002cce:	4d6c      	ldr	r5, [pc, #432]	; (8002e80 <HAL_TIM_PWM_ConfigChannel+0x1f0>)
 8002cd0:	f8d3 c004 	ldr.w	ip, [r3, #4]
 8002cd4:	69dc      	ldr	r4, [r3, #28]
 8002cd6:	f422 5200 	bic.w	r2, r2, #8192	; 0x2000
 8002cda:	f424 44e6 	bic.w	r4, r4, #29440	; 0x7300
 8002cde:	42ab      	cmp	r3, r5
 8002ce0:	ea42 3207 	orr.w	r2, r2, r7, lsl #12
 8002ce4:	ea44 2406 	orr.w	r4, r4, r6, lsl #8
 8002ce8:	d104      	bne.n	8002cf4 <HAL_TIM_PWM_ConfigChannel+0x64>
 8002cea:	694d      	ldr	r5, [r1, #20]
 8002cec:	f42c 4c80 	bic.w	ip, ip, #16384	; 0x4000
 8002cf0:	ea4c 1c85 	orr.w	ip, ip, r5, lsl #6
 8002cf4:	684d      	ldr	r5, [r1, #4]
 8002cf6:	f8c3 c004 	str.w	ip, [r3, #4]
 8002cfa:	61dc      	str	r4, [r3, #28]
 8002cfc:	641d      	str	r5, [r3, #64]	; 0x40
 8002cfe:	621a      	str	r2, [r3, #32]
 8002d00:	69dc      	ldr	r4, [r3, #28]
 8002d02:	690d      	ldr	r5, [r1, #16]
 8002d04:	f444 6400 	orr.w	r4, r4, #2048	; 0x800
 8002d08:	61dc      	str	r4, [r3, #28]
 8002d0a:	69d9      	ldr	r1, [r3, #28]
 8002d0c:	f421 6180 	bic.w	r1, r1, #1024	; 0x400
 8002d10:	61d9      	str	r1, [r3, #28]
 8002d12:	69da      	ldr	r2, [r3, #28]
 8002d14:	ea42 2205 	orr.w	r2, r2, r5, lsl #8
 8002d18:	61da      	str	r2, [r3, #28]
 8002d1a:	2300      	movs	r3, #0
 8002d1c:	bcf0      	pop	{r4, r5, r6, r7}
 8002d1e:	2201      	movs	r2, #1
 8002d20:	f880 303c 	strb.w	r3, [r0, #60]	; 0x3c
 8002d24:	f880 203d 	strb.w	r2, [r0, #61]	; 0x3d
 8002d28:	4618      	mov	r0, r3
 8002d2a:	4770      	bx	lr
 8002d2c:	6803      	ldr	r3, [r0, #0]
 8002d2e:	688f      	ldr	r7, [r1, #8]
 8002d30:	6a1d      	ldr	r5, [r3, #32]
 8002d32:	680e      	ldr	r6, [r1, #0]
 8002d34:	f025 0501 	bic.w	r5, r5, #1
 8002d38:	621d      	str	r5, [r3, #32]
 8002d3a:	6a1a      	ldr	r2, [r3, #32]
 8002d3c:	4d50      	ldr	r5, [pc, #320]	; (8002e80 <HAL_TIM_PWM_ConfigChannel+0x1f0>)
 8002d3e:	f8d3 c004 	ldr.w	ip, [r3, #4]
 8002d42:	699c      	ldr	r4, [r3, #24]
 8002d44:	f022 0202 	bic.w	r2, r2, #2
 8002d48:	f024 0473 	bic.w	r4, r4, #115	; 0x73
 8002d4c:	42ab      	cmp	r3, r5
 8002d4e:	ea42 0207 	orr.w	r2, r2, r7
 8002d52:	ea44 0406 	orr.w	r4, r4, r6
 8002d56:	d076      	beq.n	8002e46 <HAL_TIM_PWM_ConfigChannel+0x1b6>
 8002d58:	684d      	ldr	r5, [r1, #4]
 8002d5a:	f8c3 c004 	str.w	ip, [r3, #4]
 8002d5e:	619c      	str	r4, [r3, #24]
 8002d60:	635d      	str	r5, [r3, #52]	; 0x34
 8002d62:	621a      	str	r2, [r3, #32]
 8002d64:	699c      	ldr	r4, [r3, #24]
 8002d66:	690d      	ldr	r5, [r1, #16]
 8002d68:	f044 0408 	orr.w	r4, r4, #8
 8002d6c:	619c      	str	r4, [r3, #24]
 8002d6e:	6999      	ldr	r1, [r3, #24]
 8002d70:	f021 0104 	bic.w	r1, r1, #4
 8002d74:	6199      	str	r1, [r3, #24]
 8002d76:	699a      	ldr	r2, [r3, #24]
 8002d78:	432a      	orrs	r2, r5
 8002d7a:	619a      	str	r2, [r3, #24]
 8002d7c:	e7cd      	b.n	8002d1a <HAL_TIM_PWM_ConfigChannel+0x8a>
 8002d7e:	6803      	ldr	r3, [r0, #0]
 8002d80:	688f      	ldr	r7, [r1, #8]
 8002d82:	6a1d      	ldr	r5, [r3, #32]
 8002d84:	680e      	ldr	r6, [r1, #0]
 8002d86:	f025 0510 	bic.w	r5, r5, #16
 8002d8a:	621d      	str	r5, [r3, #32]
 8002d8c:	6a1a      	ldr	r2, [r3, #32]
 8002d8e:	4d3c      	ldr	r5, [pc, #240]	; (8002e80 <HAL_TIM_PWM_ConfigChannel+0x1f0>)
 8002d90:	f8d3 c004 	ldr.w	ip, [r3, #4]
 8002d94:	699c      	ldr	r4, [r3, #24]
 8002d96:	f022 0220 	bic.w	r2, r2, #32
 8002d9a:	f424 44e6 	bic.w	r4, r4, #29440	; 0x7300
 8002d9e:	42ab      	cmp	r3, r5
 8002da0:	ea42 1207 	orr.w	r2, r2, r7, lsl #4
 8002da4:	ea44 2406 	orr.w	r4, r4, r6, lsl #8
 8002da8:	d05b      	beq.n	8002e62 <HAL_TIM_PWM_ConfigChannel+0x1d2>
 8002daa:	684d      	ldr	r5, [r1, #4]
 8002dac:	f8c3 c004 	str.w	ip, [r3, #4]
 8002db0:	619c      	str	r4, [r3, #24]
 8002db2:	639d      	str	r5, [r3, #56]	; 0x38
 8002db4:	621a      	str	r2, [r3, #32]
 8002db6:	699c      	ldr	r4, [r3, #24]
 8002db8:	690d      	ldr	r5, [r1, #16]
 8002dba:	f444 6400 	orr.w	r4, r4, #2048	; 0x800
 8002dbe:	619c      	str	r4, [r3, #24]
 8002dc0:	6999      	ldr	r1, [r3, #24]
 8002dc2:	f421 6180 	bic.w	r1, r1, #1024	; 0x400
 8002dc6:	6199      	str	r1, [r3, #24]
 8002dc8:	699a      	ldr	r2, [r3, #24]
 8002dca:	ea42 2205 	orr.w	r2, r2, r5, lsl #8
 8002dce:	619a      	str	r2, [r3, #24]
 8002dd0:	e7a3      	b.n	8002d1a <HAL_TIM_PWM_ConfigChannel+0x8a>
 8002dd2:	6803      	ldr	r3, [r0, #0]
 8002dd4:	688f      	ldr	r7, [r1, #8]
 8002dd6:	6a1d      	ldr	r5, [r3, #32]
 8002dd8:	680e      	ldr	r6, [r1, #0]
 8002dda:	f425 7580 	bic.w	r5, r5, #256	; 0x100
 8002dde:	621d      	str	r5, [r3, #32]
 8002de0:	6a1a      	ldr	r2, [r3, #32]
 8002de2:	4d27      	ldr	r5, [pc, #156]	; (8002e80 <HAL_TIM_PWM_ConfigChannel+0x1f0>)
 8002de4:	f8d3 c004 	ldr.w	ip, [r3, #4]
 8002de8:	69dc      	ldr	r4, [r3, #28]
 8002dea:	f422 7200 	bic.w	r2, r2, #512	; 0x200
 8002dee:	f024 0473 	bic.w	r4, r4, #115	; 0x73
 8002df2:	42ab      	cmp	r3, r5
 8002df4:	ea42 2207 	orr.w	r2, r2, r7, lsl #8
 8002df8:	ea44 0406 	orr.w	r4, r4, r6
 8002dfc:	d014      	beq.n	8002e28 <HAL_TIM_PWM_ConfigChannel+0x198>
 8002dfe:	684d      	ldr	r5, [r1, #4]
 8002e00:	f8c3 c004 	str.w	ip, [r3, #4]
 8002e04:	61dc      	str	r4, [r3, #28]
 8002e06:	63dd      	str	r5, [r3, #60]	; 0x3c
 8002e08:	621a      	str	r2, [r3, #32]
 8002e0a:	69dc      	ldr	r4, [r3, #28]
 8002e0c:	690d      	ldr	r5, [r1, #16]
 8002e0e:	f044 0408 	orr.w	r4, r4, #8
 8002e12:	61dc      	str	r4, [r3, #28]
 8002e14:	69d9      	ldr	r1, [r3, #28]
 8002e16:	f021 0104 	bic.w	r1, r1, #4
 8002e1a:	61d9      	str	r1, [r3, #28]
 8002e1c:	69da      	ldr	r2, [r3, #28]
 8002e1e:	432a      	orrs	r2, r5
 8002e20:	61da      	str	r2, [r3, #28]
 8002e22:	e77a      	b.n	8002d1a <HAL_TIM_PWM_ConfigChannel+0x8a>
 8002e24:	2002      	movs	r0, #2
 8002e26:	4770      	bx	lr
 8002e28:	68ce      	ldr	r6, [r1, #12]
 8002e2a:	f422 6200 	bic.w	r2, r2, #2048	; 0x800
 8002e2e:	e9d1 7505 	ldrd	r7, r5, [r1, #20]
 8002e32:	f42c 5c40 	bic.w	ip, ip, #12288	; 0x3000
 8002e36:	ea42 2206 	orr.w	r2, r2, r6, lsl #8
 8002e3a:	433d      	orrs	r5, r7
 8002e3c:	f422 6280 	bic.w	r2, r2, #1024	; 0x400
 8002e40:	ea4c 1c05 	orr.w	ip, ip, r5, lsl #4
 8002e44:	e7db      	b.n	8002dfe <HAL_TIM_PWM_ConfigChannel+0x16e>
 8002e46:	68cf      	ldr	r7, [r1, #12]
 8002e48:	f022 0208 	bic.w	r2, r2, #8
 8002e4c:	e9d1 5605 	ldrd	r5, r6, [r1, #20]
 8002e50:	f42c 7c40 	bic.w	ip, ip, #768	; 0x300
 8002e54:	433a      	orrs	r2, r7
 8002e56:	4335      	orrs	r5, r6
 8002e58:	f022 0204 	bic.w	r2, r2, #4
 8002e5c:	ea45 0c0c 	orr.w	ip, r5, ip
 8002e60:	e77a      	b.n	8002d58 <HAL_TIM_PWM_ConfigChannel+0xc8>
 8002e62:	68ce      	ldr	r6, [r1, #12]
 8002e64:	f022 0280 	bic.w	r2, r2, #128	; 0x80
 8002e68:	e9d1 7505 	ldrd	r7, r5, [r1, #20]
 8002e6c:	f42c 6c40 	bic.w	ip, ip, #3072	; 0xc00
 8002e70:	ea42 1206 	orr.w	r2, r2, r6, lsl #4
 8002e74:	433d      	orrs	r5, r7
 8002e76:	f022 0240 	bic.w	r2, r2, #64	; 0x40
 8002e7a:	ea4c 0c85 	orr.w	ip, ip, r5, lsl #2
 8002e7e:	e794      	b.n	8002daa <HAL_TIM_PWM_ConfigChannel+0x11a>
 8002e80:	40012c00 	.word	0x40012c00

08002e84 <HAL_TIM_ConfigClockSource>:
 8002e84:	f890 303c 	ldrb.w	r3, [r0, #60]	; 0x3c
 8002e88:	2b01      	cmp	r3, #1
 8002e8a:	d05a      	beq.n	8002f42 <HAL_TIM_ConfigClockSource+0xbe>
 8002e8c:	2202      	movs	r2, #2
 8002e8e:	b4f0      	push	{r4, r5, r6, r7}
 8002e90:	2501      	movs	r5, #1
 8002e92:	6803      	ldr	r3, [r0, #0]
 8002e94:	f880 203d 	strb.w	r2, [r0, #61]	; 0x3d
 8002e98:	689a      	ldr	r2, [r3, #8]
 8002e9a:	680c      	ldr	r4, [r1, #0]
 8002e9c:	f422 427f 	bic.w	r2, r2, #65280	; 0xff00
 8002ea0:	f022 0277 	bic.w	r2, r2, #119	; 0x77
 8002ea4:	2c40      	cmp	r4, #64	; 0x40
 8002ea6:	f880 503c 	strb.w	r5, [r0, #60]	; 0x3c
 8002eaa:	609a      	str	r2, [r3, #8]
 8002eac:	d074      	beq.n	8002f98 <HAL_TIM_ConfigClockSource+0x114>
 8002eae:	d94a      	bls.n	8002f46 <HAL_TIM_ConfigClockSource+0xc2>
 8002eb0:	2c60      	cmp	r4, #96	; 0x60
 8002eb2:	d02d      	beq.n	8002f10 <HAL_TIM_ConfigClockSource+0x8c>
 8002eb4:	d956      	bls.n	8002f64 <HAL_TIM_ConfigClockSource+0xe0>
 8002eb6:	2c70      	cmp	r4, #112	; 0x70
 8002eb8:	d01a      	beq.n	8002ef0 <HAL_TIM_ConfigClockSource+0x6c>
 8002eba:	f5b4 5f00 	cmp.w	r4, #8192	; 0x2000
 8002ebe:	d10e      	bne.n	8002ede <HAL_TIM_ConfigClockSource+0x5a>
 8002ec0:	e9d1 5201 	ldrd	r5, r2, [r1, #4]
 8002ec4:	68cc      	ldr	r4, [r1, #12]
 8002ec6:	6899      	ldr	r1, [r3, #8]
 8002ec8:	432a      	orrs	r2, r5
 8002eca:	ea42 2204 	orr.w	r2, r2, r4, lsl #8
 8002ece:	f421 417f 	bic.w	r1, r1, #65280	; 0xff00
 8002ed2:	430a      	orrs	r2, r1
 8002ed4:	609a      	str	r2, [r3, #8]
 8002ed6:	689a      	ldr	r2, [r3, #8]
 8002ed8:	f442 4280 	orr.w	r2, r2, #16384	; 0x4000
 8002edc:	609a      	str	r2, [r3, #8]
 8002ede:	2300      	movs	r3, #0
 8002ee0:	bcf0      	pop	{r4, r5, r6, r7}
 8002ee2:	2201      	movs	r2, #1
 8002ee4:	f880 303c 	strb.w	r3, [r0, #60]	; 0x3c
 8002ee8:	f880 203d 	strb.w	r2, [r0, #61]	; 0x3d
 8002eec:	4618      	mov	r0, r3
 8002eee:	4770      	bx	lr
 8002ef0:	e9d1 5201 	ldrd	r5, r2, [r1, #4]
 8002ef4:	68cc      	ldr	r4, [r1, #12]
 8002ef6:	6899      	ldr	r1, [r3, #8]
 8002ef8:	432a      	orrs	r2, r5
 8002efa:	ea42 2204 	orr.w	r2, r2, r4, lsl #8
 8002efe:	f421 417f 	bic.w	r1, r1, #65280	; 0xff00
 8002f02:	430a      	orrs	r2, r1
 8002f04:	609a      	str	r2, [r3, #8]
 8002f06:	689a      	ldr	r2, [r3, #8]
 8002f08:	f042 0277 	orr.w	r2, r2, #119	; 0x77
 8002f0c:	609a      	str	r2, [r3, #8]
 8002f0e:	e7e6      	b.n	8002ede <HAL_TIM_ConfigClockSource+0x5a>
 8002f10:	6a1c      	ldr	r4, [r3, #32]
 8002f12:	684d      	ldr	r5, [r1, #4]
 8002f14:	f024 0410 	bic.w	r4, r4, #16
 8002f18:	68ce      	ldr	r6, [r1, #12]
 8002f1a:	621c      	str	r4, [r3, #32]
 8002f1c:	6999      	ldr	r1, [r3, #24]
 8002f1e:	6a1a      	ldr	r2, [r3, #32]
 8002f20:	f421 4170 	bic.w	r1, r1, #61440	; 0xf000
 8002f24:	f022 02a0 	bic.w	r2, r2, #160	; 0xa0
 8002f28:	ea42 1205 	orr.w	r2, r2, r5, lsl #4
 8002f2c:	ea41 3106 	orr.w	r1, r1, r6, lsl #12
 8002f30:	6199      	str	r1, [r3, #24]
 8002f32:	621a      	str	r2, [r3, #32]
 8002f34:	689a      	ldr	r2, [r3, #8]
 8002f36:	f022 0270 	bic.w	r2, r2, #112	; 0x70
 8002f3a:	f042 0267 	orr.w	r2, r2, #103	; 0x67
 8002f3e:	609a      	str	r2, [r3, #8]
 8002f40:	e7cd      	b.n	8002ede <HAL_TIM_ConfigClockSource+0x5a>
 8002f42:	2002      	movs	r0, #2
 8002f44:	4770      	bx	lr
 8002f46:	2c10      	cmp	r4, #16
 8002f48:	d004      	beq.n	8002f54 <HAL_TIM_ConfigClockSource+0xd0>
 8002f4a:	d93d      	bls.n	8002fc8 <HAL_TIM_ConfigClockSource+0x144>
 8002f4c:	2c20      	cmp	r4, #32
 8002f4e:	d001      	beq.n	8002f54 <HAL_TIM_ConfigClockSource+0xd0>
 8002f50:	2c30      	cmp	r4, #48	; 0x30
 8002f52:	d1c4      	bne.n	8002ede <HAL_TIM_ConfigClockSource+0x5a>
 8002f54:	689a      	ldr	r2, [r3, #8]
 8002f56:	f044 0407 	orr.w	r4, r4, #7
 8002f5a:	f022 0270 	bic.w	r2, r2, #112	; 0x70
 8002f5e:	4314      	orrs	r4, r2
 8002f60:	609c      	str	r4, [r3, #8]
 8002f62:	e7bc      	b.n	8002ede <HAL_TIM_ConfigClockSource+0x5a>
 8002f64:	2c50      	cmp	r4, #80	; 0x50
 8002f66:	d1ba      	bne.n	8002ede <HAL_TIM_ConfigClockSource+0x5a>
 8002f68:	6a1d      	ldr	r5, [r3, #32]
 8002f6a:	6a1e      	ldr	r6, [r3, #32]
 8002f6c:	684c      	ldr	r4, [r1, #4]
 8002f6e:	f026 0601 	bic.w	r6, r6, #1
 8002f72:	68cf      	ldr	r7, [r1, #12]
 8002f74:	621e      	str	r6, [r3, #32]
 8002f76:	699a      	ldr	r2, [r3, #24]
 8002f78:	f025 010a 	bic.w	r1, r5, #10
 8002f7c:	f022 02f0 	bic.w	r2, r2, #240	; 0xf0
 8002f80:	ea42 1207 	orr.w	r2, r2, r7, lsl #4
 8002f84:	4321      	orrs	r1, r4
 8002f86:	619a      	str	r2, [r3, #24]
 8002f88:	6219      	str	r1, [r3, #32]
 8002f8a:	689a      	ldr	r2, [r3, #8]
 8002f8c:	f022 0270 	bic.w	r2, r2, #112	; 0x70
 8002f90:	f042 0257 	orr.w	r2, r2, #87	; 0x57
 8002f94:	609a      	str	r2, [r3, #8]
 8002f96:	e7a2      	b.n	8002ede <HAL_TIM_ConfigClockSource+0x5a>
 8002f98:	6a1d      	ldr	r5, [r3, #32]
 8002f9a:	6a1e      	ldr	r6, [r3, #32]
 8002f9c:	684c      	ldr	r4, [r1, #4]
 8002f9e:	f026 0601 	bic.w	r6, r6, #1
 8002fa2:	68cf      	ldr	r7, [r1, #12]
 8002fa4:	621e      	str	r6, [r3, #32]
 8002fa6:	699a      	ldr	r2, [r3, #24]
 8002fa8:	f025 010a 	bic.w	r1, r5, #10
 8002fac:	f022 02f0 	bic.w	r2, r2, #240	; 0xf0
 8002fb0:	ea42 1207 	orr.w	r2, r2, r7, lsl #4
 8002fb4:	4321      	orrs	r1, r4
 8002fb6:	619a      	str	r2, [r3, #24]
 8002fb8:	6219      	str	r1, [r3, #32]
 8002fba:	689a      	ldr	r2, [r3, #8]
 8002fbc:	f022 0270 	bic.w	r2, r2, #112	; 0x70
 8002fc0:	f042 0247 	orr.w	r2, r2, #71	; 0x47
 8002fc4:	609a      	str	r2, [r3, #8]
 8002fc6:	e78a      	b.n	8002ede <HAL_TIM_ConfigClockSource+0x5a>
 8002fc8:	2c00      	cmp	r4, #0
 8002fca:	d0c3      	beq.n	8002f54 <HAL_TIM_ConfigClockSource+0xd0>
 8002fcc:	e787      	b.n	8002ede <HAL_TIM_ConfigClockSource+0x5a>
 8002fce:	bf00      	nop

08002fd0 <HAL_TIM_OC_DelayElapsedCallback>:
 8002fd0:	4770      	bx	lr
 8002fd2:	bf00      	nop

08002fd4 <HAL_TIM_IC_CaptureCallback>:
 8002fd4:	4770      	bx	lr
 8002fd6:	bf00      	nop

08002fd8 <HAL_TIM_PWM_PulseFinishedCallback>:
 8002fd8:	4770      	bx	lr
 8002fda:	bf00      	nop

08002fdc <HAL_TIM_TriggerCallback>:
 8002fdc:	4770      	bx	lr
 8002fde:	bf00      	nop

08002fe0 <HAL_TIM_IRQHandler>:
 8002fe0:	6803      	ldr	r3, [r0, #0]
 8002fe2:	b510      	push	{r4, lr}
 8002fe4:	691a      	ldr	r2, [r3, #16]
 8002fe6:	4604      	mov	r4, r0
 8002fe8:	0791      	lsls	r1, r2, #30
 8002fea:	d502      	bpl.n	8002ff2 <HAL_TIM_IRQHandler+0x12>
 8002fec:	68da      	ldr	r2, [r3, #12]
 8002fee:	0792      	lsls	r2, r2, #30
 8002ff0:	d45f      	bmi.n	80030b2 <HAL_TIM_IRQHandler+0xd2>
 8002ff2:	691a      	ldr	r2, [r3, #16]
 8002ff4:	0750      	lsls	r0, r2, #29
 8002ff6:	d502      	bpl.n	8002ffe <HAL_TIM_IRQHandler+0x1e>
 8002ff8:	68da      	ldr	r2, [r3, #12]
 8002ffa:	0751      	lsls	r1, r2, #29
 8002ffc:	d446      	bmi.n	800308c <HAL_TIM_IRQHandler+0xac>
 8002ffe:	691a      	ldr	r2, [r3, #16]
 8003000:	0712      	lsls	r2, r2, #28
 8003002:	d502      	bpl.n	800300a <HAL_TIM_IRQHandler+0x2a>
 8003004:	68da      	ldr	r2, [r3, #12]
 8003006:	0710      	lsls	r0, r2, #28
 8003008:	d42e      	bmi.n	8003068 <HAL_TIM_IRQHandler+0x88>
 800300a:	691a      	ldr	r2, [r3, #16]
 800300c:	06d2      	lsls	r2, r2, #27
 800300e:	d502      	bpl.n	8003016 <HAL_TIM_IRQHandler+0x36>
 8003010:	68da      	ldr	r2, [r3, #12]
 8003012:	06d0      	lsls	r0, r2, #27
 8003014:	d418      	bmi.n	8003048 <HAL_TIM_IRQHandler+0x68>
 8003016:	691a      	ldr	r2, [r3, #16]
 8003018:	07d1      	lsls	r1, r2, #31
 800301a:	d502      	bpl.n	8003022 <HAL_TIM_IRQHandler+0x42>
 800301c:	68da      	ldr	r2, [r3, #12]
 800301e:	07d2      	lsls	r2, r2, #31
 8003020:	d45d      	bmi.n	80030de <HAL_TIM_IRQHandler+0xfe>
 8003022:	691a      	ldr	r2, [r3, #16]
 8003024:	0610      	lsls	r0, r2, #24
 8003026:	d502      	bpl.n	800302e <HAL_TIM_IRQHandler+0x4e>
 8003028:	68da      	ldr	r2, [r3, #12]
 800302a:	0611      	lsls	r1, r2, #24
 800302c:	d45f      	bmi.n	80030ee <HAL_TIM_IRQHandler+0x10e>
 800302e:	691a      	ldr	r2, [r3, #16]
 8003030:	0652      	lsls	r2, r2, #25
 8003032:	d502      	bpl.n	800303a <HAL_TIM_IRQHandler+0x5a>
 8003034:	68da      	ldr	r2, [r3, #12]
 8003036:	0650      	lsls	r0, r2, #25
 8003038:	d461      	bmi.n	80030fe <HAL_TIM_IRQHandler+0x11e>
 800303a:	691a      	ldr	r2, [r3, #16]
 800303c:	0691      	lsls	r1, r2, #26
 800303e:	d502      	bpl.n	8003046 <HAL_TIM_IRQHandler+0x66>
 8003040:	68da      	ldr	r2, [r3, #12]
 8003042:	0692      	lsls	r2, r2, #26
 8003044:	d443      	bmi.n	80030ce <HAL_TIM_IRQHandler+0xee>
 8003046:	bd10      	pop	{r4, pc}
 8003048:	f06f 0110 	mvn.w	r1, #16
 800304c:	2208      	movs	r2, #8
 800304e:	6119      	str	r1, [r3, #16]
 8003050:	69db      	ldr	r3, [r3, #28]
 8003052:	4620      	mov	r0, r4
 8003054:	f413 7f40 	tst.w	r3, #768	; 0x300
 8003058:	7722      	strb	r2, [r4, #28]
 800305a:	d064      	beq.n	8003126 <HAL_TIM_IRQHandler+0x146>
 800305c:	f7ff ffba 	bl	8002fd4 <HAL_TIM_IC_CaptureCallback>
 8003060:	2200      	movs	r2, #0
 8003062:	6823      	ldr	r3, [r4, #0]
 8003064:	7722      	strb	r2, [r4, #28]
 8003066:	e7d6      	b.n	8003016 <HAL_TIM_IRQHandler+0x36>
 8003068:	f06f 0108 	mvn.w	r1, #8
 800306c:	2204      	movs	r2, #4
 800306e:	6119      	str	r1, [r3, #16]
 8003070:	69db      	ldr	r3, [r3, #28]
 8003072:	4620      	mov	r0, r4
 8003074:	0799      	lsls	r1, r3, #30
 8003076:	7722      	strb	r2, [r4, #28]
 8003078:	d152      	bne.n	8003120 <HAL_TIM_IRQHandler+0x140>
 800307a:	f7ff ffa9 	bl	8002fd0 <HAL_TIM_OC_DelayElapsedCallback>
 800307e:	4620      	mov	r0, r4
 8003080:	f7ff ffaa 	bl	8002fd8 <HAL_TIM_PWM_PulseFinishedCallback>
 8003084:	2200      	movs	r2, #0
 8003086:	6823      	ldr	r3, [r4, #0]
 8003088:	7722      	strb	r2, [r4, #28]
 800308a:	e7be      	b.n	800300a <HAL_TIM_IRQHandler+0x2a>
 800308c:	f06f 0104 	mvn.w	r1, #4
 8003090:	2202      	movs	r2, #2
 8003092:	6119      	str	r1, [r3, #16]
 8003094:	699b      	ldr	r3, [r3, #24]
 8003096:	4620      	mov	r0, r4
 8003098:	f413 7f40 	tst.w	r3, #768	; 0x300
 800309c:	7722      	strb	r2, [r4, #28]
 800309e:	d13c      	bne.n	800311a <HAL_TIM_IRQHandler+0x13a>
 80030a0:	f7ff ff96 	bl	8002fd0 <HAL_TIM_OC_DelayElapsedCallback>
 80030a4:	4620      	mov	r0, r4
 80030a6:	f7ff ff97 	bl	8002fd8 <HAL_TIM_PWM_PulseFinishedCallback>
 80030aa:	2200      	movs	r2, #0
 80030ac:	6823      	ldr	r3, [r4, #0]
 80030ae:	7722      	strb	r2, [r4, #28]
 80030b0:	e7a5      	b.n	8002ffe <HAL_TIM_IRQHandler+0x1e>
 80030b2:	f06f 0102 	mvn.w	r1, #2
 80030b6:	2201      	movs	r2, #1
 80030b8:	6119      	str	r1, [r3, #16]
 80030ba:	699b      	ldr	r3, [r3, #24]
 80030bc:	7702      	strb	r2, [r0, #28]
 80030be:	079b      	lsls	r3, r3, #30
 80030c0:	d025      	beq.n	800310e <HAL_TIM_IRQHandler+0x12e>
 80030c2:	f7ff ff87 	bl	8002fd4 <HAL_TIM_IC_CaptureCallback>
 80030c6:	2200      	movs	r2, #0
 80030c8:	6823      	ldr	r3, [r4, #0]
 80030ca:	7722      	strb	r2, [r4, #28]
 80030cc:	e791      	b.n	8002ff2 <HAL_TIM_IRQHandler+0x12>
 80030ce:	f06f 0220 	mvn.w	r2, #32
 80030d2:	4620      	mov	r0, r4
 80030d4:	e8bd 4010 	ldmia.w	sp!, {r4, lr}
 80030d8:	611a      	str	r2, [r3, #16]
 80030da:	f000 b877 	b.w	80031cc <HAL_TIMEx_CommutCallback>
 80030de:	f06f 0201 	mvn.w	r2, #1
 80030e2:	4620      	mov	r0, r4
 80030e4:	611a      	str	r2, [r3, #16]
 80030e6:	f7fd fecf 	bl	8000e88 <HAL_TIM_PeriodElapsedCallback>
 80030ea:	6823      	ldr	r3, [r4, #0]
 80030ec:	e799      	b.n	8003022 <HAL_TIM_IRQHandler+0x42>
 80030ee:	f06f 0280 	mvn.w	r2, #128	; 0x80
 80030f2:	4620      	mov	r0, r4
 80030f4:	611a      	str	r2, [r3, #16]
 80030f6:	f000 f86b 	bl	80031d0 <HAL_TIMEx_BreakCallback>
 80030fa:	6823      	ldr	r3, [r4, #0]
 80030fc:	e797      	b.n	800302e <HAL_TIM_IRQHandler+0x4e>
 80030fe:	f06f 0240 	mvn.w	r2, #64	; 0x40
 8003102:	4620      	mov	r0, r4
 8003104:	611a      	str	r2, [r3, #16]
 8003106:	f7ff ff69 	bl	8002fdc <HAL_TIM_TriggerCallback>
 800310a:	6823      	ldr	r3, [r4, #0]
 800310c:	e795      	b.n	800303a <HAL_TIM_IRQHandler+0x5a>
 800310e:	f7ff ff5f 	bl	8002fd0 <HAL_TIM_OC_DelayElapsedCallback>
 8003112:	4620      	mov	r0, r4
 8003114:	f7ff ff60 	bl	8002fd8 <HAL_TIM_PWM_PulseFinishedCallback>
 8003118:	e7d5      	b.n	80030c6 <HAL_TIM_IRQHandler+0xe6>
 800311a:	f7ff ff5b 	bl	8002fd4 <HAL_TIM_IC_CaptureCallback>
 800311e:	e7c4      	b.n	80030aa <HAL_TIM_IRQHandler+0xca>
 8003120:	f7ff ff58 	bl	8002fd4 <HAL_TIM_IC_CaptureCallback>
 8003124:	e7ae      	b.n	8003084 <HAL_TIM_IRQHandler+0xa4>
 8003126:	f7ff ff53 	bl	8002fd0 <HAL_TIM_OC_DelayElapsedCallback>
 800312a:	4620      	mov	r0, r4
 800312c:	f7ff ff54 	bl	8002fd8 <HAL_TIM_PWM_PulseFinishedCallback>
 8003130:	e796      	b.n	8003060 <HAL_TIM_IRQHandler+0x80>
 8003132:	bf00      	nop

08003134 <HAL_TIMEx_MasterConfigSynchronization>:
 8003134:	f890 203c 	ldrb.w	r2, [r0, #60]	; 0x3c
 8003138:	2a01      	cmp	r2, #1
 800313a:	d01a      	beq.n	8003172 <HAL_TIMEx_MasterConfigSynchronization+0x3e>
 800313c:	2202      	movs	r2, #2
 800313e:	b4f0      	push	{r4, r5, r6, r7}
 8003140:	4603      	mov	r3, r0
 8003142:	2500      	movs	r5, #0
 8003144:	2601      	movs	r6, #1
 8003146:	6804      	ldr	r4, [r0, #0]
 8003148:	f880 203d 	strb.w	r2, [r0, #61]	; 0x3d
 800314c:	6860      	ldr	r0, [r4, #4]
 800314e:	e9d1 2700 	ldrd	r2, r7, [r1]
 8003152:	f020 0170 	bic.w	r1, r0, #112	; 0x70
 8003156:	4311      	orrs	r1, r2
 8003158:	68a2      	ldr	r2, [r4, #8]
 800315a:	4628      	mov	r0, r5
 800315c:	f022 0280 	bic.w	r2, r2, #128	; 0x80
 8003160:	433a      	orrs	r2, r7
 8003162:	6061      	str	r1, [r4, #4]
 8003164:	60a2      	str	r2, [r4, #8]
 8003166:	f883 603d 	strb.w	r6, [r3, #61]	; 0x3d
 800316a:	f883 503c 	strb.w	r5, [r3, #60]	; 0x3c
 800316e:	bcf0      	pop	{r4, r5, r6, r7}
 8003170:	4770      	bx	lr
 8003172:	2002      	movs	r0, #2
 8003174:	4770      	bx	lr
 8003176:	bf00      	nop

08003178 <HAL_TIMEx_ConfigBreakDeadTime>:
 8003178:	f890 303c 	ldrb.w	r3, [r0, #60]	; 0x3c
 800317c:	2b01      	cmp	r3, #1
 800317e:	d022      	beq.n	80031c6 <HAL_TIMEx_ConfigBreakDeadTime+0x4e>
 8003180:	4602      	mov	r2, r0
 8003182:	e9d1 0302 	ldrd	r0, r3, [r1, #8]
 8003186:	b410      	push	{r4}
 8003188:	2400      	movs	r4, #0
 800318a:	f423 7340 	bic.w	r3, r3, #768	; 0x300
 800318e:	4303      	orrs	r3, r0
 8003190:	6848      	ldr	r0, [r1, #4]
 8003192:	f423 6380 	bic.w	r3, r3, #1024	; 0x400
 8003196:	4303      	orrs	r3, r0
 8003198:	6808      	ldr	r0, [r1, #0]
 800319a:	f423 6300 	bic.w	r3, r3, #2048	; 0x800
 800319e:	4303      	orrs	r3, r0
 80031a0:	6908      	ldr	r0, [r1, #16]
 80031a2:	f423 5380 	bic.w	r3, r3, #4096	; 0x1000
 80031a6:	4303      	orrs	r3, r0
 80031a8:	6948      	ldr	r0, [r1, #20]
 80031aa:	f423 5300 	bic.w	r3, r3, #8192	; 0x2000
 80031ae:	4303      	orrs	r3, r0
 80031b0:	69c8      	ldr	r0, [r1, #28]
 80031b2:	f423 4380 	bic.w	r3, r3, #16384	; 0x4000
 80031b6:	6811      	ldr	r1, [r2, #0]
 80031b8:	4303      	orrs	r3, r0
 80031ba:	644b      	str	r3, [r1, #68]	; 0x44
 80031bc:	4620      	mov	r0, r4
 80031be:	f882 403c 	strb.w	r4, [r2, #60]	; 0x3c
 80031c2:	bc10      	pop	{r4}
 80031c4:	4770      	bx	lr
 80031c6:	2002      	movs	r0, #2
 80031c8:	4770      	bx	lr
 80031ca:	bf00      	nop

080031cc <HAL_TIMEx_CommutCallback>:
 80031cc:	4770      	bx	lr
 80031ce:	bf00      	nop

080031d0 <HAL_TIMEx_BreakCallback>:
 80031d0:	4770      	bx	lr
 80031d2:	bf00      	nop

080031d4 <HAL_UART_Init>:
 80031d4:	2800      	cmp	r0, #0
 80031d6:	d05e      	beq.n	8003296 <HAL_UART_Init+0xc2>
 80031d8:	b538      	push	{r3, r4, r5, lr}
 80031da:	f890 3039 	ldrb.w	r3, [r0, #57]	; 0x39
 80031de:	4604      	mov	r4, r0
 80031e0:	f003 02ff 	and.w	r2, r3, #255	; 0xff
 80031e4:	2b00      	cmp	r3, #0
 80031e6:	d051      	beq.n	800328c <HAL_UART_Init+0xb8>
 80031e8:	2224      	movs	r2, #36	; 0x24
 80031ea:	6823      	ldr	r3, [r4, #0]
 80031ec:	f884 2039 	strb.w	r2, [r4, #57]	; 0x39
 80031f0:	68da      	ldr	r2, [r3, #12]
 80031f2:	68e0      	ldr	r0, [r4, #12]
 80031f4:	f422 5200 	bic.w	r2, r2, #8192	; 0x2000
 80031f8:	60da      	str	r2, [r3, #12]
 80031fa:	6919      	ldr	r1, [r3, #16]
 80031fc:	68a2      	ldr	r2, [r4, #8]
 80031fe:	f421 5140 	bic.w	r1, r1, #12288	; 0x3000
 8003202:	4301      	orrs	r1, r0
 8003204:	6119      	str	r1, [r3, #16]
 8003206:	68d9      	ldr	r1, [r3, #12]
 8003208:	e9d4 5004 	ldrd	r5, r0, [r4, #16]
 800320c:	f421 51b0 	bic.w	r1, r1, #5632	; 0x1600
 8003210:	432a      	orrs	r2, r5
 8003212:	f021 010c 	bic.w	r1, r1, #12
 8003216:	4302      	orrs	r2, r0
 8003218:	430a      	orrs	r2, r1
 800321a:	60da      	str	r2, [r3, #12]
 800321c:	695a      	ldr	r2, [r3, #20]
 800321e:	69a0      	ldr	r0, [r4, #24]
 8003220:	491f      	ldr	r1, [pc, #124]	; (80032a0 <HAL_UART_Init+0xcc>)
 8003222:	f422 7240 	bic.w	r2, r2, #768	; 0x300
 8003226:	4302      	orrs	r2, r0
 8003228:	428b      	cmp	r3, r1
 800322a:	615a      	str	r2, [r3, #20]
 800322c:	d035      	beq.n	800329a <HAL_UART_Init+0xc6>
 800322e:	f7ff f9f3 	bl	8002618 <HAL_RCC_GetPCLK1Freq>
 8003232:	6862      	ldr	r2, [r4, #4]
 8003234:	eb00 0080 	add.w	r0, r0, r0, lsl #2
 8003238:	0092      	lsls	r2, r2, #2
 800323a:	eb00 0080 	add.w	r0, r0, r0, lsl #2
 800323e:	fbb0 f0f2 	udiv	r0, r0, r2
 8003242:	2264      	movs	r2, #100	; 0x64
 8003244:	4d17      	ldr	r5, [pc, #92]	; (80032a4 <HAL_UART_Init+0xd0>)
 8003246:	6823      	ldr	r3, [r4, #0]
 8003248:	fba5 c100 	umull	ip, r1, r5, r0
 800324c:	0949      	lsrs	r1, r1, #5
 800324e:	fb02 0211 	mls	r2, r2, r1, r0
 8003252:	0112      	lsls	r2, r2, #4
 8003254:	3232      	adds	r2, #50	; 0x32
 8003256:	fba5 0202 	umull	r0, r2, r5, r2
 800325a:	0109      	lsls	r1, r1, #4
 800325c:	eb01 1252 	add.w	r2, r1, r2, lsr #5
 8003260:	2500      	movs	r5, #0
 8003262:	2120      	movs	r1, #32
 8003264:	609a      	str	r2, [r3, #8]
 8003266:	691a      	ldr	r2, [r3, #16]
 8003268:	4628      	mov	r0, r5
 800326a:	f422 4290 	bic.w	r2, r2, #18432	; 0x4800
 800326e:	611a      	str	r2, [r3, #16]
 8003270:	695a      	ldr	r2, [r3, #20]
 8003272:	f022 022a 	bic.w	r2, r2, #42	; 0x2a
 8003276:	615a      	str	r2, [r3, #20]
 8003278:	68da      	ldr	r2, [r3, #12]
 800327a:	f442 5200 	orr.w	r2, r2, #8192	; 0x2000
 800327e:	60da      	str	r2, [r3, #12]
 8003280:	63e5      	str	r5, [r4, #60]	; 0x3c
 8003282:	f884 1039 	strb.w	r1, [r4, #57]	; 0x39
 8003286:	f884 103a 	strb.w	r1, [r4, #58]	; 0x3a
 800328a:	bd38      	pop	{r3, r4, r5, pc}
 800328c:	f880 2038 	strb.w	r2, [r0, #56]	; 0x38
 8003290:	f7fe fc04 	bl	8001a9c <HAL_UART_MspInit>
 8003294:	e7a8      	b.n	80031e8 <HAL_UART_Init+0x14>
 8003296:	2001      	movs	r0, #1
 8003298:	4770      	bx	lr
 800329a:	f7ff f9cd 	bl	8002638 <HAL_RCC_GetPCLK2Freq>
 800329e:	e7c8      	b.n	8003232 <HAL_UART_Init+0x5e>
 80032a0:	40013800 	.word	0x40013800
 80032a4:	51eb851f 	.word	0x51eb851f

080032a8 <HAL_UART_Transmit>:
 80032a8:	b5f0      	push	{r4, r5, r6, r7, lr}
 80032aa:	4604      	mov	r4, r0
 80032ac:	f890 0039 	ldrb.w	r0, [r0, #57]	; 0x39
 80032b0:	b083      	sub	sp, #12
 80032b2:	2820      	cmp	r0, #32
 80032b4:	d12d      	bne.n	8003312 <HAL_UART_Transmit+0x6a>
 80032b6:	460e      	mov	r6, r1
 80032b8:	2900      	cmp	r1, #0
 80032ba:	d02d      	beq.n	8003318 <HAL_UART_Transmit+0x70>
 80032bc:	9201      	str	r2, [sp, #4]
 80032be:	b35a      	cbz	r2, 8003318 <HAL_UART_Transmit+0x70>
 80032c0:	461f      	mov	r7, r3
 80032c2:	f894 3038 	ldrb.w	r3, [r4, #56]	; 0x38
 80032c6:	2b01      	cmp	r3, #1
 80032c8:	d023      	beq.n	8003312 <HAL_UART_Transmit+0x6a>
 80032ca:	2000      	movs	r0, #0
 80032cc:	2101      	movs	r1, #1
 80032ce:	2321      	movs	r3, #33	; 0x21
 80032d0:	63e0      	str	r0, [r4, #60]	; 0x3c
 80032d2:	f884 1038 	strb.w	r1, [r4, #56]	; 0x38
 80032d6:	f884 3039 	strb.w	r3, [r4, #57]	; 0x39
 80032da:	f7fe fd09 	bl	8001cf0 <HAL_GetTick>
 80032de:	4605      	mov	r5, r0
 80032e0:	9a01      	ldr	r2, [sp, #4]
 80032e2:	84a2      	strh	r2, [r4, #36]	; 0x24
 80032e4:	84e2      	strh	r2, [r4, #38]	; 0x26
 80032e6:	6822      	ldr	r2, [r4, #0]
 80032e8:	8ce3      	ldrh	r3, [r4, #38]	; 0x26
 80032ea:	b29b      	uxth	r3, r3
 80032ec:	2b00      	cmp	r3, #0
 80032ee:	d039      	beq.n	8003364 <HAL_UART_Transmit+0xbc>
 80032f0:	8ce0      	ldrh	r0, [r4, #38]	; 0x26
 80032f2:	68a1      	ldr	r1, [r4, #8]
 80032f4:	3801      	subs	r0, #1
 80032f6:	b280      	uxth	r0, r0
 80032f8:	f5b1 5f80 	cmp.w	r1, #4096	; 0x1000
 80032fc:	84e0      	strh	r0, [r4, #38]	; 0x26
 80032fe:	d019      	beq.n	8003334 <HAL_UART_Transmit+0x8c>
 8003300:	1c78      	adds	r0, r7, #1
 8003302:	d13b      	bne.n	800337c <HAL_UART_Transmit+0xd4>
 8003304:	6810      	ldr	r0, [r2, #0]
 8003306:	0601      	lsls	r1, r0, #24
 8003308:	d5fc      	bpl.n	8003304 <HAL_UART_Transmit+0x5c>
 800330a:	7833      	ldrb	r3, [r6, #0]
 800330c:	3601      	adds	r6, #1
 800330e:	6053      	str	r3, [r2, #4]
 8003310:	e7ea      	b.n	80032e8 <HAL_UART_Transmit+0x40>
 8003312:	2002      	movs	r0, #2
 8003314:	b003      	add	sp, #12
 8003316:	bdf0      	pop	{r4, r5, r6, r7, pc}
 8003318:	2001      	movs	r0, #1
 800331a:	b003      	add	sp, #12
 800331c:	bdf0      	pop	{r4, r5, r6, r7, pc}
 800331e:	6813      	ldr	r3, [r2, #0]
 8003320:	061b      	lsls	r3, r3, #24
 8003322:	d40c      	bmi.n	800333e <HAL_UART_Transmit+0x96>
 8003324:	2f00      	cmp	r7, #0
 8003326:	d033      	beq.n	8003390 <HAL_UART_Transmit+0xe8>
 8003328:	f7fe fce2 	bl	8001cf0 <HAL_GetTick>
 800332c:	1b40      	subs	r0, r0, r5
 800332e:	4287      	cmp	r7, r0
 8003330:	6822      	ldr	r2, [r4, #0]
 8003332:	d32d      	bcc.n	8003390 <HAL_UART_Transmit+0xe8>
 8003334:	1c78      	adds	r0, r7, #1
 8003336:	d1f2      	bne.n	800331e <HAL_UART_Transmit+0x76>
 8003338:	6810      	ldr	r0, [r2, #0]
 800333a:	0601      	lsls	r1, r0, #24
 800333c:	d5fc      	bpl.n	8003338 <HAL_UART_Transmit+0x90>
 800333e:	8833      	ldrh	r3, [r6, #0]
 8003340:	6921      	ldr	r1, [r4, #16]
 8003342:	f3c3 0308 	ubfx	r3, r3, #0, #9
 8003346:	6053      	str	r3, [r2, #4]
 8003348:	2900      	cmp	r1, #0
 800334a:	d134      	bne.n	80033b6 <HAL_UART_Transmit+0x10e>
 800334c:	3602      	adds	r6, #2
 800334e:	e7cb      	b.n	80032e8 <HAL_UART_Transmit+0x40>
 8003350:	6813      	ldr	r3, [r2, #0]
 8003352:	065b      	lsls	r3, r3, #25
 8003354:	d40b      	bmi.n	800336e <HAL_UART_Transmit+0xc6>
 8003356:	b1df      	cbz	r7, 8003390 <HAL_UART_Transmit+0xe8>
 8003358:	f7fe fcca 	bl	8001cf0 <HAL_GetTick>
 800335c:	1b40      	subs	r0, r0, r5
 800335e:	4287      	cmp	r7, r0
 8003360:	6822      	ldr	r2, [r4, #0]
 8003362:	d315      	bcc.n	8003390 <HAL_UART_Transmit+0xe8>
 8003364:	1c78      	adds	r0, r7, #1
 8003366:	d1f3      	bne.n	8003350 <HAL_UART_Transmit+0xa8>
 8003368:	6813      	ldr	r3, [r2, #0]
 800336a:	0659      	lsls	r1, r3, #25
 800336c:	d5fc      	bpl.n	8003368 <HAL_UART_Transmit+0xc0>
 800336e:	2320      	movs	r3, #32
 8003370:	2000      	movs	r0, #0
 8003372:	f884 3039 	strb.w	r3, [r4, #57]	; 0x39
 8003376:	f884 0038 	strb.w	r0, [r4, #56]	; 0x38
 800337a:	e7cb      	b.n	8003314 <HAL_UART_Transmit+0x6c>
 800337c:	6813      	ldr	r3, [r2, #0]
 800337e:	061b      	lsls	r3, r3, #24
 8003380:	d4c3      	bmi.n	800330a <HAL_UART_Transmit+0x62>
 8003382:	b12f      	cbz	r7, 8003390 <HAL_UART_Transmit+0xe8>
 8003384:	f7fe fcb4 	bl	8001cf0 <HAL_GetTick>
 8003388:	1b40      	subs	r0, r0, r5
 800338a:	4287      	cmp	r7, r0
 800338c:	6822      	ldr	r2, [r4, #0]
 800338e:	d2b7      	bcs.n	8003300 <HAL_UART_Transmit+0x58>
 8003390:	2120      	movs	r1, #32
 8003392:	2500      	movs	r5, #0
 8003394:	2003      	movs	r0, #3
 8003396:	68d3      	ldr	r3, [r2, #12]
 8003398:	f423 73d0 	bic.w	r3, r3, #416	; 0x1a0
 800339c:	60d3      	str	r3, [r2, #12]
 800339e:	6953      	ldr	r3, [r2, #20]
 80033a0:	f023 0301 	bic.w	r3, r3, #1
 80033a4:	6153      	str	r3, [r2, #20]
 80033a6:	f884 1039 	strb.w	r1, [r4, #57]	; 0x39
 80033aa:	f884 5038 	strb.w	r5, [r4, #56]	; 0x38
 80033ae:	f884 103a 	strb.w	r1, [r4, #58]	; 0x3a
 80033b2:	b003      	add	sp, #12
 80033b4:	bdf0      	pop	{r4, r5, r6, r7, pc}
 80033b6:	3601      	adds	r6, #1
 80033b8:	e796      	b.n	80032e8 <HAL_UART_Transmit+0x40>
 80033ba:	bf00      	nop

080033bc <HAL_UART_Receive>:
 80033bc:	e92d 41f0 	stmdb	sp!, {r4, r5, r6, r7, r8, lr}
 80033c0:	4605      	mov	r5, r0
 80033c2:	f890 003a 	ldrb.w	r0, [r0, #58]	; 0x3a
 80033c6:	b082      	sub	sp, #8
 80033c8:	2820      	cmp	r0, #32
 80033ca:	d133      	bne.n	8003434 <HAL_UART_Receive+0x78>
 80033cc:	460f      	mov	r7, r1
 80033ce:	2900      	cmp	r1, #0
 80033d0:	d034      	beq.n	800343c <HAL_UART_Receive+0x80>
 80033d2:	9201      	str	r2, [sp, #4]
 80033d4:	2a00      	cmp	r2, #0
 80033d6:	d031      	beq.n	800343c <HAL_UART_Receive+0x80>
 80033d8:	4698      	mov	r8, r3
 80033da:	f895 3038 	ldrb.w	r3, [r5, #56]	; 0x38
 80033de:	2b01      	cmp	r3, #1
 80033e0:	d028      	beq.n	8003434 <HAL_UART_Receive+0x78>
 80033e2:	2000      	movs	r0, #0
 80033e4:	2101      	movs	r1, #1
 80033e6:	2322      	movs	r3, #34	; 0x22
 80033e8:	63e8      	str	r0, [r5, #60]	; 0x3c
 80033ea:	f885 1038 	strb.w	r1, [r5, #56]	; 0x38
 80033ee:	f885 303a 	strb.w	r3, [r5, #58]	; 0x3a
 80033f2:	f7fe fc7d 	bl	8001cf0 <HAL_GetTick>
 80033f6:	4606      	mov	r6, r0
 80033f8:	9a01      	ldr	r2, [sp, #4]
 80033fa:	85aa      	strh	r2, [r5, #44]	; 0x2c
 80033fc:	85ea      	strh	r2, [r5, #46]	; 0x2e
 80033fe:	8de8      	ldrh	r0, [r5, #46]	; 0x2e
 8003400:	b280      	uxth	r0, r0
 8003402:	2800      	cmp	r0, #0
 8003404:	d061      	beq.n	80034ca <HAL_UART_Receive+0x10e>
 8003406:	8dea      	ldrh	r2, [r5, #46]	; 0x2e
 8003408:	68ab      	ldr	r3, [r5, #8]
 800340a:	3a01      	subs	r2, #1
 800340c:	b292      	uxth	r2, r2
 800340e:	f5b3 5f80 	cmp.w	r3, #4096	; 0x1000
 8003412:	85ea      	strh	r2, [r5, #46]	; 0x2e
 8003414:	d021      	beq.n	800345a <HAL_UART_Receive+0x9e>
 8003416:	f1b8 3fff 	cmp.w	r8, #4294967295	; 0xffffffff
 800341a:	682c      	ldr	r4, [r5, #0]
 800341c:	d12c      	bne.n	8003478 <HAL_UART_Receive+0xbc>
 800341e:	6822      	ldr	r2, [r4, #0]
 8003420:	0692      	lsls	r2, r2, #26
 8003422:	d5fc      	bpl.n	800341e <HAL_UART_Receive+0x62>
 8003424:	692b      	ldr	r3, [r5, #16]
 8003426:	1c7a      	adds	r2, r7, #1
 8003428:	2b00      	cmp	r3, #0
 800342a:	d143      	bne.n	80034b4 <HAL_UART_Receive+0xf8>
 800342c:	6863      	ldr	r3, [r4, #4]
 800342e:	703b      	strb	r3, [r7, #0]
 8003430:	4617      	mov	r7, r2
 8003432:	e7e4      	b.n	80033fe <HAL_UART_Receive+0x42>
 8003434:	2002      	movs	r0, #2
 8003436:	b002      	add	sp, #8
 8003438:	e8bd 81f0 	ldmia.w	sp!, {r4, r5, r6, r7, r8, pc}
 800343c:	2001      	movs	r0, #1
 800343e:	b002      	add	sp, #8
 8003440:	e8bd 81f0 	ldmia.w	sp!, {r4, r5, r6, r7, r8, pc}
 8003444:	680b      	ldr	r3, [r1, #0]
 8003446:	0698      	lsls	r0, r3, #26
 8003448:	d40e      	bmi.n	8003468 <HAL_UART_Receive+0xac>
 800344a:	f1b8 0f00 	cmp.w	r8, #0
 800344e:	d043      	beq.n	80034d8 <HAL_UART_Receive+0x11c>
 8003450:	f7fe fc4e 	bl	8001cf0 <HAL_GetTick>
 8003454:	1b80      	subs	r0, r0, r6
 8003456:	4580      	cmp	r8, r0
 8003458:	d33d      	bcc.n	80034d6 <HAL_UART_Receive+0x11a>
 800345a:	f1b8 3fff 	cmp.w	r8, #4294967295	; 0xffffffff
 800345e:	6829      	ldr	r1, [r5, #0]
 8003460:	d1f0      	bne.n	8003444 <HAL_UART_Receive+0x88>
 8003462:	680a      	ldr	r2, [r1, #0]
 8003464:	0694      	lsls	r4, r2, #26
 8003466:	d5fc      	bpl.n	8003462 <HAL_UART_Receive+0xa6>
 8003468:	692b      	ldr	r3, [r5, #16]
 800346a:	bb4b      	cbnz	r3, 80034c0 <HAL_UART_Receive+0x104>
 800346c:	684b      	ldr	r3, [r1, #4]
 800346e:	f3c3 0308 	ubfx	r3, r3, #0, #9
 8003472:	f827 3b02 	strh.w	r3, [r7], #2
 8003476:	e7c2      	b.n	80033fe <HAL_UART_Receive+0x42>
 8003478:	6823      	ldr	r3, [r4, #0]
 800347a:	069b      	lsls	r3, r3, #26
 800347c:	d4d2      	bmi.n	8003424 <HAL_UART_Receive+0x68>
 800347e:	f1b8 0f00 	cmp.w	r8, #0
 8003482:	d005      	beq.n	8003490 <HAL_UART_Receive+0xd4>
 8003484:	f7fe fc34 	bl	8001cf0 <HAL_GetTick>
 8003488:	1b80      	subs	r0, r0, r6
 800348a:	4580      	cmp	r8, r0
 800348c:	d2c3      	bcs.n	8003416 <HAL_UART_Receive+0x5a>
 800348e:	682c      	ldr	r4, [r5, #0]
 8003490:	2220      	movs	r2, #32
 8003492:	2100      	movs	r1, #0
 8003494:	68e3      	ldr	r3, [r4, #12]
 8003496:	2003      	movs	r0, #3
 8003498:	f423 73d0 	bic.w	r3, r3, #416	; 0x1a0
 800349c:	60e3      	str	r3, [r4, #12]
 800349e:	6963      	ldr	r3, [r4, #20]
 80034a0:	f023 0301 	bic.w	r3, r3, #1
 80034a4:	6163      	str	r3, [r4, #20]
 80034a6:	f885 2039 	strb.w	r2, [r5, #57]	; 0x39
 80034aa:	f885 1038 	strb.w	r1, [r5, #56]	; 0x38
 80034ae:	f885 203a 	strb.w	r2, [r5, #58]	; 0x3a
 80034b2:	e7c0      	b.n	8003436 <HAL_UART_Receive+0x7a>
 80034b4:	6863      	ldr	r3, [r4, #4]
 80034b6:	f003 037f 	and.w	r3, r3, #127	; 0x7f
 80034ba:	703b      	strb	r3, [r7, #0]
 80034bc:	4617      	mov	r7, r2
 80034be:	e79e      	b.n	80033fe <HAL_UART_Receive+0x42>
 80034c0:	684b      	ldr	r3, [r1, #4]
 80034c2:	b2db      	uxtb	r3, r3
 80034c4:	f827 3b01 	strh.w	r3, [r7], #1
 80034c8:	e799      	b.n	80033fe <HAL_UART_Receive+0x42>
 80034ca:	2320      	movs	r3, #32
 80034cc:	f885 0038 	strb.w	r0, [r5, #56]	; 0x38
 80034d0:	f885 303a 	strb.w	r3, [r5, #58]	; 0x3a
 80034d4:	e7af      	b.n	8003436 <HAL_UART_Receive+0x7a>
 80034d6:	6829      	ldr	r1, [r5, #0]
 80034d8:	2220      	movs	r2, #32
 80034da:	2400      	movs	r4, #0
 80034dc:	68cb      	ldr	r3, [r1, #12]
 80034de:	2003      	movs	r0, #3
 80034e0:	f423 73d0 	bic.w	r3, r3, #416	; 0x1a0
 80034e4:	60cb      	str	r3, [r1, #12]
 80034e6:	694b      	ldr	r3, [r1, #20]
 80034e8:	f023 0301 	bic.w	r3, r3, #1
 80034ec:	614b      	str	r3, [r1, #20]
 80034ee:	f885 2039 	strb.w	r2, [r5, #57]	; 0x39
 80034f2:	f885 4038 	strb.w	r4, [r5, #56]	; 0x38
 80034f6:	f885 203a 	strb.w	r2, [r5, #58]	; 0x3a
 80034fa:	e79c      	b.n	8003436 <HAL_UART_Receive+0x7a>

080034fc <HAL_UART_Receive_IT>:
 80034fc:	f890 303a 	ldrb.w	r3, [r0, #58]	; 0x3a
 8003500:	2b20      	cmp	r3, #32
 8003502:	d120      	bne.n	8003546 <HAL_UART_Receive_IT+0x4a>
 8003504:	b309      	cbz	r1, 800354a <HAL_UART_Receive_IT+0x4e>
 8003506:	b302      	cbz	r2, 800354a <HAL_UART_Receive_IT+0x4e>
 8003508:	f890 3038 	ldrb.w	r3, [r0, #56]	; 0x38
 800350c:	2b01      	cmp	r3, #1
 800350e:	d01a      	beq.n	8003546 <HAL_UART_Receive_IT+0x4a>
 8003510:	b430      	push	{r4, r5}
 8003512:	2300      	movs	r3, #0
 8003514:	2522      	movs	r5, #34	; 0x22
 8003516:	6804      	ldr	r4, [r0, #0]
 8003518:	85c2      	strh	r2, [r0, #46]	; 0x2e
 800351a:	63c3      	str	r3, [r0, #60]	; 0x3c
 800351c:	f880 503a 	strb.w	r5, [r0, #58]	; 0x3a
 8003520:	68e5      	ldr	r5, [r4, #12]
 8003522:	8582      	strh	r2, [r0, #44]	; 0x2c
 8003524:	f445 7580 	orr.w	r5, r5, #256	; 0x100
 8003528:	f880 3038 	strb.w	r3, [r0, #56]	; 0x38
 800352c:	6281      	str	r1, [r0, #40]	; 0x28
 800352e:	60e5      	str	r5, [r4, #12]
 8003530:	6962      	ldr	r2, [r4, #20]
 8003532:	4618      	mov	r0, r3
 8003534:	f042 0201 	orr.w	r2, r2, #1
 8003538:	6162      	str	r2, [r4, #20]
 800353a:	68e3      	ldr	r3, [r4, #12]
 800353c:	f043 0320 	orr.w	r3, r3, #32
 8003540:	60e3      	str	r3, [r4, #12]
 8003542:	bc30      	pop	{r4, r5}
 8003544:	4770      	bx	lr
 8003546:	2002      	movs	r0, #2
 8003548:	4770      	bx	lr
 800354a:	2001      	movs	r0, #1
 800354c:	4770      	bx	lr
 800354e:	bf00      	nop

08003550 <HAL_UART_TxCpltCallback>:
 8003550:	4770      	bx	lr
 8003552:	bf00      	nop

08003554 <UART_Receive_IT.part.1>:
 8003554:	b510      	push	{r4, lr}
 8003556:	6884      	ldr	r4, [r0, #8]
 8003558:	6901      	ldr	r1, [r0, #16]
 800355a:	f5b4 5f80 	cmp.w	r4, #4096	; 0x1000
 800355e:	6a83      	ldr	r3, [r0, #40]	; 0x28
 8003560:	6802      	ldr	r2, [r0, #0]
 8003562:	d020      	beq.n	80035a6 <UART_Receive_IT.part.1+0x52>
 8003564:	1c5c      	adds	r4, r3, #1
 8003566:	6852      	ldr	r2, [r2, #4]
 8003568:	6284      	str	r4, [r0, #40]	; 0x28
 800356a:	b9c9      	cbnz	r1, 80035a0 <UART_Receive_IT.part.1+0x4c>
 800356c:	701a      	strb	r2, [r3, #0]
 800356e:	8dc3      	ldrh	r3, [r0, #46]	; 0x2e
 8003570:	3b01      	subs	r3, #1
 8003572:	b29b      	uxth	r3, r3
 8003574:	85c3      	strh	r3, [r0, #46]	; 0x2e
 8003576:	b98b      	cbnz	r3, 800359c <UART_Receive_IT.part.1+0x48>
 8003578:	2420      	movs	r4, #32
 800357a:	6802      	ldr	r2, [r0, #0]
 800357c:	68d1      	ldr	r1, [r2, #12]
 800357e:	f021 0120 	bic.w	r1, r1, #32
 8003582:	60d1      	str	r1, [r2, #12]
 8003584:	68d1      	ldr	r1, [r2, #12]
 8003586:	f421 7180 	bic.w	r1, r1, #256	; 0x100
 800358a:	60d1      	str	r1, [r2, #12]
 800358c:	6951      	ldr	r1, [r2, #20]
 800358e:	f021 0101 	bic.w	r1, r1, #1
 8003592:	6151      	str	r1, [r2, #20]
 8003594:	f880 403a 	strb.w	r4, [r0, #58]	; 0x3a
 8003598:	f7fd fec4 	bl	8001324 <HAL_UART_RxCpltCallback>
 800359c:	2000      	movs	r0, #0
 800359e:	bd10      	pop	{r4, pc}
 80035a0:	f002 027f 	and.w	r2, r2, #127	; 0x7f
 80035a4:	e7e2      	b.n	800356c <UART_Receive_IT.part.1+0x18>
 80035a6:	6852      	ldr	r2, [r2, #4]
 80035a8:	b929      	cbnz	r1, 80035b6 <UART_Receive_IT.part.1+0x62>
 80035aa:	f3c2 0208 	ubfx	r2, r2, #0, #9
 80035ae:	f823 2b02 	strh.w	r2, [r3], #2
 80035b2:	6283      	str	r3, [r0, #40]	; 0x28
 80035b4:	e7db      	b.n	800356e <UART_Receive_IT.part.1+0x1a>
 80035b6:	b2d2      	uxtb	r2, r2
 80035b8:	f823 2b01 	strh.w	r2, [r3], #1
 80035bc:	6283      	str	r3, [r0, #40]	; 0x28
 80035be:	e7d6      	b.n	800356e <UART_Receive_IT.part.1+0x1a>

080035c0 <HAL_UART_ErrorCallback>:
 80035c0:	4770      	bx	lr
 80035c2:	bf00      	nop

080035c4 <HAL_UART_IRQHandler>:
 80035c4:	6803      	ldr	r3, [r0, #0]
 80035c6:	b570      	push	{r4, r5, r6, lr}
 80035c8:	681a      	ldr	r2, [r3, #0]
 80035ca:	4604      	mov	r4, r0
 80035cc:	0716      	lsls	r6, r2, #28
 80035ce:	68dd      	ldr	r5, [r3, #12]
 80035d0:	6959      	ldr	r1, [r3, #20]
 80035d2:	d04a      	beq.n	800366a <HAL_UART_IRQHandler+0xa6>
 80035d4:	f011 0101 	ands.w	r1, r1, #1
 80035d8:	d050      	beq.n	800367c <HAL_UART_IRQHandler+0xb8>
 80035da:	07d6      	lsls	r6, r2, #31
 80035dc:	d505      	bpl.n	80035ea <HAL_UART_IRQHandler+0x26>
 80035de:	05e8      	lsls	r0, r5, #23
 80035e0:	d503      	bpl.n	80035ea <HAL_UART_IRQHandler+0x26>
 80035e2:	6be0      	ldr	r0, [r4, #60]	; 0x3c
 80035e4:	f040 0001 	orr.w	r0, r0, #1
 80035e8:	63e0      	str	r0, [r4, #60]	; 0x3c
 80035ea:	0756      	lsls	r6, r2, #29
 80035ec:	f002 0002 	and.w	r0, r2, #2
 80035f0:	d576      	bpl.n	80036e0 <HAL_UART_IRQHandler+0x11c>
 80035f2:	b161      	cbz	r1, 800360e <HAL_UART_IRQHandler+0x4a>
 80035f4:	6be1      	ldr	r1, [r4, #60]	; 0x3c
 80035f6:	f002 0608 	and.w	r6, r2, #8
 80035fa:	f041 0102 	orr.w	r1, r1, #2
 80035fe:	63e1      	str	r1, [r4, #60]	; 0x3c
 8003600:	2800      	cmp	r0, #0
 8003602:	d172      	bne.n	80036ea <HAL_UART_IRQHandler+0x126>
 8003604:	b11e      	cbz	r6, 800360e <HAL_UART_IRQHandler+0x4a>
 8003606:	6be1      	ldr	r1, [r4, #60]	; 0x3c
 8003608:	f041 0108 	orr.w	r1, r1, #8
 800360c:	63e1      	str	r1, [r4, #60]	; 0x3c
 800360e:	6be1      	ldr	r1, [r4, #60]	; 0x3c
 8003610:	2900      	cmp	r1, #0
 8003612:	d032      	beq.n	800367a <HAL_UART_IRQHandler+0xb6>
 8003614:	0696      	lsls	r6, r2, #26
 8003616:	d501      	bpl.n	800361c <HAL_UART_IRQHandler+0x58>
 8003618:	06a8      	lsls	r0, r5, #26
 800361a:	d474      	bmi.n	8003706 <HAL_UART_IRQHandler+0x142>
 800361c:	695d      	ldr	r5, [r3, #20]
 800361e:	6be1      	ldr	r1, [r4, #60]	; 0x3c
 8003620:	0709      	lsls	r1, r1, #28
 8003622:	d402      	bmi.n	800362a <HAL_UART_IRQHandler+0x66>
 8003624:	f015 0540 	ands.w	r5, r5, #64	; 0x40
 8003628:	d07a      	beq.n	8003720 <HAL_UART_IRQHandler+0x15c>
 800362a:	2120      	movs	r1, #32
 800362c:	68da      	ldr	r2, [r3, #12]
 800362e:	f422 7290 	bic.w	r2, r2, #288	; 0x120
 8003632:	60da      	str	r2, [r3, #12]
 8003634:	695a      	ldr	r2, [r3, #20]
 8003636:	f022 0201 	bic.w	r2, r2, #1
 800363a:	615a      	str	r2, [r3, #20]
 800363c:	f884 103a 	strb.w	r1, [r4, #58]	; 0x3a
 8003640:	695a      	ldr	r2, [r3, #20]
 8003642:	0652      	lsls	r2, r2, #25
 8003644:	d55b      	bpl.n	80036fe <HAL_UART_IRQHandler+0x13a>
 8003646:	695a      	ldr	r2, [r3, #20]
 8003648:	6b61      	ldr	r1, [r4, #52]	; 0x34
 800364a:	f022 0240 	bic.w	r2, r2, #64	; 0x40
 800364e:	615a      	str	r2, [r3, #20]
 8003650:	2900      	cmp	r1, #0
 8003652:	d054      	beq.n	80036fe <HAL_UART_IRQHandler+0x13a>
 8003654:	4b3b      	ldr	r3, [pc, #236]	; (8003744 <HAL_UART_IRQHandler+0x180>)
 8003656:	4608      	mov	r0, r1
 8003658:	634b      	str	r3, [r1, #52]	; 0x34
 800365a:	f7fe fbcf 	bl	8001dfc <HAL_DMA_Abort_IT>
 800365e:	b160      	cbz	r0, 800367a <HAL_UART_IRQHandler+0xb6>
 8003660:	6b60      	ldr	r0, [r4, #52]	; 0x34
 8003662:	e8bd 4070 	ldmia.w	sp!, {r4, r5, r6, lr}
 8003666:	6b43      	ldr	r3, [r0, #52]	; 0x34
 8003668:	4718      	bx	r3
 800366a:	0696      	lsls	r6, r2, #26
 800366c:	d509      	bpl.n	8003682 <HAL_UART_IRQHandler+0xbe>
 800366e:	06a9      	lsls	r1, r5, #26
 8003670:	d507      	bpl.n	8003682 <HAL_UART_IRQHandler+0xbe>
 8003672:	f890 303a 	ldrb.w	r3, [r0, #58]	; 0x3a
 8003676:	2b22      	cmp	r3, #34	; 0x22
 8003678:	d04e      	beq.n	8003718 <HAL_UART_IRQHandler+0x154>
 800367a:	bd70      	pop	{r4, r5, r6, pc}
 800367c:	f415 7f90 	tst.w	r5, #288	; 0x120
 8003680:	d1ab      	bne.n	80035da <HAL_UART_IRQHandler+0x16>
 8003682:	0616      	lsls	r6, r2, #24
 8003684:	d40e      	bmi.n	80036a4 <HAL_UART_IRQHandler+0xe0>
 8003686:	0651      	lsls	r1, r2, #25
 8003688:	d5f7      	bpl.n	800367a <HAL_UART_IRQHandler+0xb6>
 800368a:	066a      	lsls	r2, r5, #25
 800368c:	d5f5      	bpl.n	800367a <HAL_UART_IRQHandler+0xb6>
 800368e:	2120      	movs	r1, #32
 8003690:	68da      	ldr	r2, [r3, #12]
 8003692:	4620      	mov	r0, r4
 8003694:	f022 0240 	bic.w	r2, r2, #64	; 0x40
 8003698:	60da      	str	r2, [r3, #12]
 800369a:	f884 1039 	strb.w	r1, [r4, #57]	; 0x39
 800369e:	f7ff ff57 	bl	8003550 <HAL_UART_TxCpltCallback>
 80036a2:	bd70      	pop	{r4, r5, r6, pc}
 80036a4:	0628      	lsls	r0, r5, #24
 80036a6:	d5ee      	bpl.n	8003686 <HAL_UART_IRQHandler+0xc2>
 80036a8:	f894 2039 	ldrb.w	r2, [r4, #57]	; 0x39
 80036ac:	2a21      	cmp	r2, #33	; 0x21
 80036ae:	d1e4      	bne.n	800367a <HAL_UART_IRQHandler+0xb6>
 80036b0:	68a1      	ldr	r1, [r4, #8]
 80036b2:	6a22      	ldr	r2, [r4, #32]
 80036b4:	f5b1 5f80 	cmp.w	r1, #4096	; 0x1000
 80036b8:	d037      	beq.n	800372a <HAL_UART_IRQHandler+0x166>
 80036ba:	1c51      	adds	r1, r2, #1
 80036bc:	6221      	str	r1, [r4, #32]
 80036be:	7812      	ldrb	r2, [r2, #0]
 80036c0:	605a      	str	r2, [r3, #4]
 80036c2:	8ce2      	ldrh	r2, [r4, #38]	; 0x26
 80036c4:	3a01      	subs	r2, #1
 80036c6:	b292      	uxth	r2, r2
 80036c8:	84e2      	strh	r2, [r4, #38]	; 0x26
 80036ca:	2a00      	cmp	r2, #0
 80036cc:	d1d5      	bne.n	800367a <HAL_UART_IRQHandler+0xb6>
 80036ce:	68da      	ldr	r2, [r3, #12]
 80036d0:	f022 0280 	bic.w	r2, r2, #128	; 0x80
 80036d4:	60da      	str	r2, [r3, #12]
 80036d6:	68da      	ldr	r2, [r3, #12]
 80036d8:	f042 0240 	orr.w	r2, r2, #64	; 0x40
 80036dc:	60da      	str	r2, [r3, #12]
 80036de:	bd70      	pop	{r4, r5, r6, pc}
 80036e0:	b140      	cbz	r0, 80036f4 <HAL_UART_IRQHandler+0x130>
 80036e2:	2900      	cmp	r1, #0
 80036e4:	d093      	beq.n	800360e <HAL_UART_IRQHandler+0x4a>
 80036e6:	f002 0608 	and.w	r6, r2, #8
 80036ea:	6be1      	ldr	r1, [r4, #60]	; 0x3c
 80036ec:	f041 0104 	orr.w	r1, r1, #4
 80036f0:	63e1      	str	r1, [r4, #60]	; 0x3c
 80036f2:	e787      	b.n	8003604 <HAL_UART_IRQHandler+0x40>
 80036f4:	0710      	lsls	r0, r2, #28
 80036f6:	d58a      	bpl.n	800360e <HAL_UART_IRQHandler+0x4a>
 80036f8:	2900      	cmp	r1, #0
 80036fa:	d184      	bne.n	8003606 <HAL_UART_IRQHandler+0x42>
 80036fc:	e787      	b.n	800360e <HAL_UART_IRQHandler+0x4a>
 80036fe:	4620      	mov	r0, r4
 8003700:	f7ff ff5e 	bl	80035c0 <HAL_UART_ErrorCallback>
 8003704:	bd70      	pop	{r4, r5, r6, pc}
 8003706:	f894 203a 	ldrb.w	r2, [r4, #58]	; 0x3a
 800370a:	2a22      	cmp	r2, #34	; 0x22
 800370c:	d186      	bne.n	800361c <HAL_UART_IRQHandler+0x58>
 800370e:	4620      	mov	r0, r4
 8003710:	f7ff ff20 	bl	8003554 <UART_Receive_IT.part.1>
 8003714:	6823      	ldr	r3, [r4, #0]
 8003716:	e781      	b.n	800361c <HAL_UART_IRQHandler+0x58>
 8003718:	e8bd 4070 	ldmia.w	sp!, {r4, r5, r6, lr}
 800371c:	f7ff bf1a 	b.w	8003554 <UART_Receive_IT.part.1>
 8003720:	4620      	mov	r0, r4
 8003722:	f7ff ff4d 	bl	80035c0 <HAL_UART_ErrorCallback>
 8003726:	63e5      	str	r5, [r4, #60]	; 0x3c
 8003728:	bd70      	pop	{r4, r5, r6, pc}
 800372a:	8811      	ldrh	r1, [r2, #0]
 800372c:	6920      	ldr	r0, [r4, #16]
 800372e:	f3c1 0108 	ubfx	r1, r1, #0, #9
 8003732:	6059      	str	r1, [r3, #4]
 8003734:	b910      	cbnz	r0, 800373c <HAL_UART_IRQHandler+0x178>
 8003736:	3202      	adds	r2, #2
 8003738:	6222      	str	r2, [r4, #32]
 800373a:	e7c2      	b.n	80036c2 <HAL_UART_IRQHandler+0xfe>
 800373c:	3201      	adds	r2, #1
 800373e:	6222      	str	r2, [r4, #32]
 8003740:	e7bf      	b.n	80036c2 <HAL_UART_IRQHandler+0xfe>
 8003742:	bf00      	nop
 8003744:	08003749 	.word	0x08003749

08003748 <UART_DMAAbortOnError>:
 8003748:	2200      	movs	r2, #0
 800374a:	b508      	push	{r3, lr}
 800374c:	6a43      	ldr	r3, [r0, #36]	; 0x24
 800374e:	85da      	strh	r2, [r3, #46]	; 0x2e
 8003750:	4618      	mov	r0, r3
 8003752:	84da      	strh	r2, [r3, #38]	; 0x26
 8003754:	f7ff ff34 	bl	80035c0 <HAL_UART_ErrorCallback>
 8003758:	bd08      	pop	{r3, pc}
 800375a:	bf00      	nop

0800375c <atof>:
 800375c:	2100      	movs	r1, #0
 800375e:	f001 bde3 	b.w	8005328 <strtod>
	...

08003764 <__errno>:
 8003764:	4b01      	ldr	r3, [pc, #4]	; (800376c <__errno+0x8>)
 8003766:	6818      	ldr	r0, [r3, #0]
 8003768:	4770      	bx	lr
 800376a:	bf00      	nop
 800376c:	20000024 	.word	0x20000024

08003770 <__libc_init_array>:
 8003770:	b570      	push	{r4, r5, r6, lr}
 8003772:	2500      	movs	r5, #0
 8003774:	4e0c      	ldr	r6, [pc, #48]	; (80037a8 <__libc_init_array+0x38>)
 8003776:	4c0d      	ldr	r4, [pc, #52]	; (80037ac <__libc_init_array+0x3c>)
 8003778:	1ba4      	subs	r4, r4, r6
 800377a:	10a4      	asrs	r4, r4, #2
 800377c:	42a5      	cmp	r5, r4
 800377e:	d109      	bne.n	8003794 <__libc_init_array+0x24>
 8003780:	f004 fb24 	bl	8007dcc <_init>
 8003784:	2500      	movs	r5, #0
 8003786:	4e0a      	ldr	r6, [pc, #40]	; (80037b0 <__libc_init_array+0x40>)
 8003788:	4c0a      	ldr	r4, [pc, #40]	; (80037b4 <__libc_init_array+0x44>)
 800378a:	1ba4      	subs	r4, r4, r6
 800378c:	10a4      	asrs	r4, r4, #2
 800378e:	42a5      	cmp	r5, r4
 8003790:	d105      	bne.n	800379e <__libc_init_array+0x2e>
 8003792:	bd70      	pop	{r4, r5, r6, pc}
 8003794:	f856 3025 	ldr.w	r3, [r6, r5, lsl #2]
 8003798:	4798      	blx	r3
 800379a:	3501      	adds	r5, #1
 800379c:	e7ee      	b.n	800377c <__libc_init_array+0xc>
 800379e:	f856 3025 	ldr.w	r3, [r6, r5, lsl #2]
 80037a2:	4798      	blx	r3
 80037a4:	3501      	adds	r5, #1
 80037a6:	e7f2      	b.n	800378e <__libc_init_array+0x1e>
 80037a8:	08008270 	.word	0x08008270
 80037ac:	08008270 	.word	0x08008270
 80037b0:	08008270 	.word	0x08008270
 80037b4:	08008274 	.word	0x08008274

080037b8 <memset>:
 80037b8:	4603      	mov	r3, r0
 80037ba:	4402      	add	r2, r0
 80037bc:	4293      	cmp	r3, r2
 80037be:	d100      	bne.n	80037c2 <memset+0xa>
 80037c0:	4770      	bx	lr
 80037c2:	f803 1b01 	strb.w	r1, [r3], #1
 80037c6:	e7f9      	b.n	80037bc <memset+0x4>

080037c8 <__cvt>:
 80037c8:	2b00      	cmp	r3, #0
 80037ca:	e92d 47f0 	stmdb	sp!, {r4, r5, r6, r7, r8, r9, sl, lr}
 80037ce:	461e      	mov	r6, r3
 80037d0:	bfbb      	ittet	lt
 80037d2:	f103 4300 	addlt.w	r3, r3, #2147483648	; 0x80000000
 80037d6:	461e      	movlt	r6, r3
 80037d8:	2300      	movge	r3, #0
 80037da:	232d      	movlt	r3, #45	; 0x2d
 80037dc:	b088      	sub	sp, #32
 80037de:	9f14      	ldr	r7, [sp, #80]	; 0x50
 80037e0:	e9dd 1a12 	ldrd	r1, sl, [sp, #72]	; 0x48
 80037e4:	f027 0720 	bic.w	r7, r7, #32
 80037e8:	2f46      	cmp	r7, #70	; 0x46
 80037ea:	4614      	mov	r4, r2
 80037ec:	9d10      	ldr	r5, [sp, #64]	; 0x40
 80037ee:	700b      	strb	r3, [r1, #0]
 80037f0:	d004      	beq.n	80037fc <__cvt+0x34>
 80037f2:	2f45      	cmp	r7, #69	; 0x45
 80037f4:	d100      	bne.n	80037f8 <__cvt+0x30>
 80037f6:	3501      	adds	r5, #1
 80037f8:	2302      	movs	r3, #2
 80037fa:	e000      	b.n	80037fe <__cvt+0x36>
 80037fc:	2303      	movs	r3, #3
 80037fe:	aa07      	add	r2, sp, #28
 8003800:	9204      	str	r2, [sp, #16]
 8003802:	aa06      	add	r2, sp, #24
 8003804:	e9cd a202 	strd	sl, r2, [sp, #8]
 8003808:	e9cd 3500 	strd	r3, r5, [sp]
 800380c:	4622      	mov	r2, r4
 800380e:	4633      	mov	r3, r6
 8003810:	f001 ff7a 	bl	8005708 <_dtoa_r>
 8003814:	2f47      	cmp	r7, #71	; 0x47
 8003816:	4680      	mov	r8, r0
 8003818:	d102      	bne.n	8003820 <__cvt+0x58>
 800381a:	9b11      	ldr	r3, [sp, #68]	; 0x44
 800381c:	07db      	lsls	r3, r3, #31
 800381e:	d526      	bpl.n	800386e <__cvt+0xa6>
 8003820:	2f46      	cmp	r7, #70	; 0x46
 8003822:	eb08 0905 	add.w	r9, r8, r5
 8003826:	d111      	bne.n	800384c <__cvt+0x84>
 8003828:	f898 3000 	ldrb.w	r3, [r8]
 800382c:	2b30      	cmp	r3, #48	; 0x30
 800382e:	d10a      	bne.n	8003846 <__cvt+0x7e>
 8003830:	2200      	movs	r2, #0
 8003832:	2300      	movs	r3, #0
 8003834:	4620      	mov	r0, r4
 8003836:	4631      	mov	r1, r6
 8003838:	f7fd f8b6 	bl	80009a8 <__aeabi_dcmpeq>
 800383c:	b918      	cbnz	r0, 8003846 <__cvt+0x7e>
 800383e:	f1c5 0501 	rsb	r5, r5, #1
 8003842:	f8ca 5000 	str.w	r5, [sl]
 8003846:	f8da 3000 	ldr.w	r3, [sl]
 800384a:	4499      	add	r9, r3
 800384c:	2200      	movs	r2, #0
 800384e:	2300      	movs	r3, #0
 8003850:	4620      	mov	r0, r4
 8003852:	4631      	mov	r1, r6
 8003854:	f7fd f8a8 	bl	80009a8 <__aeabi_dcmpeq>
 8003858:	b938      	cbnz	r0, 800386a <__cvt+0xa2>
 800385a:	2230      	movs	r2, #48	; 0x30
 800385c:	9b07      	ldr	r3, [sp, #28]
 800385e:	454b      	cmp	r3, r9
 8003860:	d205      	bcs.n	800386e <__cvt+0xa6>
 8003862:	1c59      	adds	r1, r3, #1
 8003864:	9107      	str	r1, [sp, #28]
 8003866:	701a      	strb	r2, [r3, #0]
 8003868:	e7f8      	b.n	800385c <__cvt+0x94>
 800386a:	f8cd 901c 	str.w	r9, [sp, #28]
 800386e:	4640      	mov	r0, r8
 8003870:	9b07      	ldr	r3, [sp, #28]
 8003872:	9a15      	ldr	r2, [sp, #84]	; 0x54
 8003874:	eba3 0308 	sub.w	r3, r3, r8
 8003878:	6013      	str	r3, [r2, #0]
 800387a:	b008      	add	sp, #32
 800387c:	e8bd 87f0 	ldmia.w	sp!, {r4, r5, r6, r7, r8, r9, sl, pc}

08003880 <__exponent>:
 8003880:	b5f7      	push	{r0, r1, r2, r4, r5, r6, r7, lr}
 8003882:	2900      	cmp	r1, #0
 8003884:	bfb4      	ite	lt
 8003886:	232d      	movlt	r3, #45	; 0x2d
 8003888:	232b      	movge	r3, #43	; 0x2b
 800388a:	4604      	mov	r4, r0
 800388c:	bfb8      	it	lt
 800388e:	4249      	neglt	r1, r1
 8003890:	2909      	cmp	r1, #9
 8003892:	f804 2b02 	strb.w	r2, [r4], #2
 8003896:	7043      	strb	r3, [r0, #1]
 8003898:	dd21      	ble.n	80038de <__exponent+0x5e>
 800389a:	f10d 0307 	add.w	r3, sp, #7
 800389e:	461f      	mov	r7, r3
 80038a0:	260a      	movs	r6, #10
 80038a2:	fb91 f5f6 	sdiv	r5, r1, r6
 80038a6:	fb06 1115 	mls	r1, r6, r5, r1
 80038aa:	2d09      	cmp	r5, #9
 80038ac:	f101 0130 	add.w	r1, r1, #48	; 0x30
 80038b0:	f803 1c01 	strb.w	r1, [r3, #-1]
 80038b4:	f103 32ff 	add.w	r2, r3, #4294967295	; 0xffffffff
 80038b8:	4629      	mov	r1, r5
 80038ba:	dc09      	bgt.n	80038d0 <__exponent+0x50>
 80038bc:	3130      	adds	r1, #48	; 0x30
 80038be:	3b02      	subs	r3, #2
 80038c0:	f802 1c01 	strb.w	r1, [r2, #-1]
 80038c4:	42bb      	cmp	r3, r7
 80038c6:	4622      	mov	r2, r4
 80038c8:	d304      	bcc.n	80038d4 <__exponent+0x54>
 80038ca:	1a10      	subs	r0, r2, r0
 80038cc:	b003      	add	sp, #12
 80038ce:	bdf0      	pop	{r4, r5, r6, r7, pc}
 80038d0:	4613      	mov	r3, r2
 80038d2:	e7e6      	b.n	80038a2 <__exponent+0x22>
 80038d4:	f813 2b01 	ldrb.w	r2, [r3], #1
 80038d8:	f804 2b01 	strb.w	r2, [r4], #1
 80038dc:	e7f2      	b.n	80038c4 <__exponent+0x44>
 80038de:	2330      	movs	r3, #48	; 0x30
 80038e0:	4419      	add	r1, r3
 80038e2:	7083      	strb	r3, [r0, #2]
 80038e4:	1d02      	adds	r2, r0, #4
 80038e6:	70c1      	strb	r1, [r0, #3]
 80038e8:	e7ef      	b.n	80038ca <__exponent+0x4a>
	...

080038ec <_printf_float>:
 80038ec:	e92d 4ff0 	stmdb	sp!, {r4, r5, r6, r7, r8, r9, sl, fp, lr}
 80038f0:	b091      	sub	sp, #68	; 0x44
 80038f2:	460c      	mov	r4, r1
 80038f4:	9f1a      	ldr	r7, [sp, #104]	; 0x68
 80038f6:	4693      	mov	fp, r2
 80038f8:	461e      	mov	r6, r3
 80038fa:	4605      	mov	r5, r0
 80038fc:	f003 f960 	bl	8006bc0 <_localeconv_r>
 8003900:	6803      	ldr	r3, [r0, #0]
 8003902:	4618      	mov	r0, r3
 8003904:	9309      	str	r3, [sp, #36]	; 0x24
 8003906:	f7fc fc23 	bl	8000150 <strlen>
 800390a:	2300      	movs	r3, #0
 800390c:	930e      	str	r3, [sp, #56]	; 0x38
 800390e:	683b      	ldr	r3, [r7, #0]
 8003910:	900a      	str	r0, [sp, #40]	; 0x28
 8003912:	3307      	adds	r3, #7
 8003914:	f023 0307 	bic.w	r3, r3, #7
 8003918:	f103 0208 	add.w	r2, r3, #8
 800391c:	f894 8018 	ldrb.w	r8, [r4, #24]
 8003920:	f8d4 a000 	ldr.w	sl, [r4]
 8003924:	603a      	str	r2, [r7, #0]
 8003926:	e9d3 2300 	ldrd	r2, r3, [r3]
 800392a:	e9c4 2312 	strd	r2, r3, [r4, #72]	; 0x48
 800392e:	e9d4 7912 	ldrd	r7, r9, [r4, #72]	; 0x48
 8003932:	f029 4300 	bic.w	r3, r9, #2147483648	; 0x80000000
 8003936:	930b      	str	r3, [sp, #44]	; 0x2c
 8003938:	f04f 32ff 	mov.w	r2, #4294967295	; 0xffffffff
 800393c:	4ba6      	ldr	r3, [pc, #664]	; (8003bd8 <_printf_float+0x2ec>)
 800393e:	4638      	mov	r0, r7
 8003940:	990b      	ldr	r1, [sp, #44]	; 0x2c
 8003942:	f7fd f863 	bl	8000a0c <__aeabi_dcmpun>
 8003946:	bb68      	cbnz	r0, 80039a4 <_printf_float+0xb8>
 8003948:	f04f 32ff 	mov.w	r2, #4294967295	; 0xffffffff
 800394c:	4ba2      	ldr	r3, [pc, #648]	; (8003bd8 <_printf_float+0x2ec>)
 800394e:	4638      	mov	r0, r7
 8003950:	990b      	ldr	r1, [sp, #44]	; 0x2c
 8003952:	f7fd f83d 	bl	80009d0 <__aeabi_dcmple>
 8003956:	bb28      	cbnz	r0, 80039a4 <_printf_float+0xb8>
 8003958:	2200      	movs	r2, #0
 800395a:	2300      	movs	r3, #0
 800395c:	4638      	mov	r0, r7
 800395e:	4649      	mov	r1, r9
 8003960:	f7fd f82c 	bl	80009bc <__aeabi_dcmplt>
 8003964:	b110      	cbz	r0, 800396c <_printf_float+0x80>
 8003966:	232d      	movs	r3, #45	; 0x2d
 8003968:	f884 3043 	strb.w	r3, [r4, #67]	; 0x43
 800396c:	4f9b      	ldr	r7, [pc, #620]	; (8003bdc <_printf_float+0x2f0>)
 800396e:	4b9c      	ldr	r3, [pc, #624]	; (8003be0 <_printf_float+0x2f4>)
 8003970:	f1b8 0f47 	cmp.w	r8, #71	; 0x47
 8003974:	bf98      	it	ls
 8003976:	461f      	movls	r7, r3
 8003978:	2303      	movs	r3, #3
 800397a:	f04f 0900 	mov.w	r9, #0
 800397e:	6123      	str	r3, [r4, #16]
 8003980:	f02a 0304 	bic.w	r3, sl, #4
 8003984:	6023      	str	r3, [r4, #0]
 8003986:	9600      	str	r6, [sp, #0]
 8003988:	465b      	mov	r3, fp
 800398a:	aa0f      	add	r2, sp, #60	; 0x3c
 800398c:	4621      	mov	r1, r4
 800398e:	4628      	mov	r0, r5
 8003990:	f000 f9e2 	bl	8003d58 <_printf_common>
 8003994:	3001      	adds	r0, #1
 8003996:	f040 8090 	bne.w	8003aba <_printf_float+0x1ce>
 800399a:	f04f 30ff 	mov.w	r0, #4294967295	; 0xffffffff
 800399e:	b011      	add	sp, #68	; 0x44
 80039a0:	e8bd 8ff0 	ldmia.w	sp!, {r4, r5, r6, r7, r8, r9, sl, fp, pc}
 80039a4:	463a      	mov	r2, r7
 80039a6:	464b      	mov	r3, r9
 80039a8:	4638      	mov	r0, r7
 80039aa:	4649      	mov	r1, r9
 80039ac:	f7fd f82e 	bl	8000a0c <__aeabi_dcmpun>
 80039b0:	b110      	cbz	r0, 80039b8 <_printf_float+0xcc>
 80039b2:	4f8c      	ldr	r7, [pc, #560]	; (8003be4 <_printf_float+0x2f8>)
 80039b4:	4b8c      	ldr	r3, [pc, #560]	; (8003be8 <_printf_float+0x2fc>)
 80039b6:	e7db      	b.n	8003970 <_printf_float+0x84>
 80039b8:	6863      	ldr	r3, [r4, #4]
 80039ba:	f44a 6280 	orr.w	r2, sl, #1024	; 0x400
 80039be:	1c59      	adds	r1, r3, #1
 80039c0:	a80d      	add	r0, sp, #52	; 0x34
 80039c2:	a90e      	add	r1, sp, #56	; 0x38
 80039c4:	d140      	bne.n	8003a48 <_printf_float+0x15c>
 80039c6:	2306      	movs	r3, #6
 80039c8:	6063      	str	r3, [r4, #4]
 80039ca:	f04f 0c00 	mov.w	ip, #0
 80039ce:	f10d 0333 	add.w	r3, sp, #51	; 0x33
 80039d2:	e9cd 2301 	strd	r2, r3, [sp, #4]
 80039d6:	6863      	ldr	r3, [r4, #4]
 80039d8:	6022      	str	r2, [r4, #0]
 80039da:	e9cd 0803 	strd	r0, r8, [sp, #12]
 80039de:	9300      	str	r3, [sp, #0]
 80039e0:	463a      	mov	r2, r7
 80039e2:	464b      	mov	r3, r9
 80039e4:	e9cd 1c05 	strd	r1, ip, [sp, #20]
 80039e8:	4628      	mov	r0, r5
 80039ea:	f7ff feed 	bl	80037c8 <__cvt>
 80039ee:	f008 03df 	and.w	r3, r8, #223	; 0xdf
 80039f2:	2b47      	cmp	r3, #71	; 0x47
 80039f4:	4607      	mov	r7, r0
 80039f6:	d109      	bne.n	8003a0c <_printf_float+0x120>
 80039f8:	9b0d      	ldr	r3, [sp, #52]	; 0x34
 80039fa:	1cd8      	adds	r0, r3, #3
 80039fc:	db02      	blt.n	8003a04 <_printf_float+0x118>
 80039fe:	6862      	ldr	r2, [r4, #4]
 8003a00:	4293      	cmp	r3, r2
 8003a02:	dd47      	ble.n	8003a94 <_printf_float+0x1a8>
 8003a04:	f1a8 0802 	sub.w	r8, r8, #2
 8003a08:	fa5f f888 	uxtb.w	r8, r8
 8003a0c:	f1b8 0f65 	cmp.w	r8, #101	; 0x65
 8003a10:	990d      	ldr	r1, [sp, #52]	; 0x34
 8003a12:	d824      	bhi.n	8003a5e <_printf_float+0x172>
 8003a14:	3901      	subs	r1, #1
 8003a16:	4642      	mov	r2, r8
 8003a18:	f104 0050 	add.w	r0, r4, #80	; 0x50
 8003a1c:	910d      	str	r1, [sp, #52]	; 0x34
 8003a1e:	f7ff ff2f 	bl	8003880 <__exponent>
 8003a22:	9a0e      	ldr	r2, [sp, #56]	; 0x38
 8003a24:	4681      	mov	r9, r0
 8003a26:	1813      	adds	r3, r2, r0
 8003a28:	2a01      	cmp	r2, #1
 8003a2a:	6123      	str	r3, [r4, #16]
 8003a2c:	dc02      	bgt.n	8003a34 <_printf_float+0x148>
 8003a2e:	6822      	ldr	r2, [r4, #0]
 8003a30:	07d1      	lsls	r1, r2, #31
 8003a32:	d501      	bpl.n	8003a38 <_printf_float+0x14c>
 8003a34:	3301      	adds	r3, #1
 8003a36:	6123      	str	r3, [r4, #16]
 8003a38:	f89d 3033 	ldrb.w	r3, [sp, #51]	; 0x33
 8003a3c:	2b00      	cmp	r3, #0
 8003a3e:	d0a2      	beq.n	8003986 <_printf_float+0x9a>
 8003a40:	232d      	movs	r3, #45	; 0x2d
 8003a42:	f884 3043 	strb.w	r3, [r4, #67]	; 0x43
 8003a46:	e79e      	b.n	8003986 <_printf_float+0x9a>
 8003a48:	f1b8 0f67 	cmp.w	r8, #103	; 0x67
 8003a4c:	f000 816e 	beq.w	8003d2c <_printf_float+0x440>
 8003a50:	f1b8 0f47 	cmp.w	r8, #71	; 0x47
 8003a54:	d1b9      	bne.n	80039ca <_printf_float+0xde>
 8003a56:	2b00      	cmp	r3, #0
 8003a58:	d1b7      	bne.n	80039ca <_printf_float+0xde>
 8003a5a:	2301      	movs	r3, #1
 8003a5c:	e7b4      	b.n	80039c8 <_printf_float+0xdc>
 8003a5e:	f1b8 0f66 	cmp.w	r8, #102	; 0x66
 8003a62:	d119      	bne.n	8003a98 <_printf_float+0x1ac>
 8003a64:	2900      	cmp	r1, #0
 8003a66:	6863      	ldr	r3, [r4, #4]
 8003a68:	dd0c      	ble.n	8003a84 <_printf_float+0x198>
 8003a6a:	6121      	str	r1, [r4, #16]
 8003a6c:	b913      	cbnz	r3, 8003a74 <_printf_float+0x188>
 8003a6e:	6822      	ldr	r2, [r4, #0]
 8003a70:	07d2      	lsls	r2, r2, #31
 8003a72:	d502      	bpl.n	8003a7a <_printf_float+0x18e>
 8003a74:	3301      	adds	r3, #1
 8003a76:	440b      	add	r3, r1
 8003a78:	6123      	str	r3, [r4, #16]
 8003a7a:	9b0d      	ldr	r3, [sp, #52]	; 0x34
 8003a7c:	f04f 0900 	mov.w	r9, #0
 8003a80:	65a3      	str	r3, [r4, #88]	; 0x58
 8003a82:	e7d9      	b.n	8003a38 <_printf_float+0x14c>
 8003a84:	b913      	cbnz	r3, 8003a8c <_printf_float+0x1a0>
 8003a86:	6822      	ldr	r2, [r4, #0]
 8003a88:	07d0      	lsls	r0, r2, #31
 8003a8a:	d501      	bpl.n	8003a90 <_printf_float+0x1a4>
 8003a8c:	3302      	adds	r3, #2
 8003a8e:	e7f3      	b.n	8003a78 <_printf_float+0x18c>
 8003a90:	2301      	movs	r3, #1
 8003a92:	e7f1      	b.n	8003a78 <_printf_float+0x18c>
 8003a94:	f04f 0867 	mov.w	r8, #103	; 0x67
 8003a98:	e9dd 320d 	ldrd	r3, r2, [sp, #52]	; 0x34
 8003a9c:	4293      	cmp	r3, r2
 8003a9e:	db05      	blt.n	8003aac <_printf_float+0x1c0>
 8003aa0:	6822      	ldr	r2, [r4, #0]
 8003aa2:	6123      	str	r3, [r4, #16]
 8003aa4:	07d1      	lsls	r1, r2, #31
 8003aa6:	d5e8      	bpl.n	8003a7a <_printf_float+0x18e>
 8003aa8:	3301      	adds	r3, #1
 8003aaa:	e7e5      	b.n	8003a78 <_printf_float+0x18c>
 8003aac:	2b00      	cmp	r3, #0
 8003aae:	bfcc      	ite	gt
 8003ab0:	2301      	movgt	r3, #1
 8003ab2:	f1c3 0302 	rsble	r3, r3, #2
 8003ab6:	4413      	add	r3, r2
 8003ab8:	e7de      	b.n	8003a78 <_printf_float+0x18c>
 8003aba:	6823      	ldr	r3, [r4, #0]
 8003abc:	055a      	lsls	r2, r3, #21
 8003abe:	d407      	bmi.n	8003ad0 <_printf_float+0x1e4>
 8003ac0:	6923      	ldr	r3, [r4, #16]
 8003ac2:	463a      	mov	r2, r7
 8003ac4:	4659      	mov	r1, fp
 8003ac6:	4628      	mov	r0, r5
 8003ac8:	47b0      	blx	r6
 8003aca:	3001      	adds	r0, #1
 8003acc:	d129      	bne.n	8003b22 <_printf_float+0x236>
 8003ace:	e764      	b.n	800399a <_printf_float+0xae>
 8003ad0:	f1b8 0f65 	cmp.w	r8, #101	; 0x65
 8003ad4:	f240 80d7 	bls.w	8003c86 <_printf_float+0x39a>
 8003ad8:	e9d4 0112 	ldrd	r0, r1, [r4, #72]	; 0x48
 8003adc:	2200      	movs	r2, #0
 8003ade:	2300      	movs	r3, #0
 8003ae0:	f7fc ff62 	bl	80009a8 <__aeabi_dcmpeq>
 8003ae4:	b388      	cbz	r0, 8003b4a <_printf_float+0x25e>
 8003ae6:	2301      	movs	r3, #1
 8003ae8:	4a40      	ldr	r2, [pc, #256]	; (8003bec <_printf_float+0x300>)
 8003aea:	4659      	mov	r1, fp
 8003aec:	4628      	mov	r0, r5
 8003aee:	47b0      	blx	r6
 8003af0:	3001      	adds	r0, #1
 8003af2:	f43f af52 	beq.w	800399a <_printf_float+0xae>
 8003af6:	e9dd 230d 	ldrd	r2, r3, [sp, #52]	; 0x34
 8003afa:	429a      	cmp	r2, r3
 8003afc:	db02      	blt.n	8003b04 <_printf_float+0x218>
 8003afe:	6823      	ldr	r3, [r4, #0]
 8003b00:	07d8      	lsls	r0, r3, #31
 8003b02:	d50e      	bpl.n	8003b22 <_printf_float+0x236>
 8003b04:	e9dd 2309 	ldrd	r2, r3, [sp, #36]	; 0x24
 8003b08:	4659      	mov	r1, fp
 8003b0a:	4628      	mov	r0, r5
 8003b0c:	47b0      	blx	r6
 8003b0e:	3001      	adds	r0, #1
 8003b10:	f43f af43 	beq.w	800399a <_printf_float+0xae>
 8003b14:	2700      	movs	r7, #0
 8003b16:	f104 081a 	add.w	r8, r4, #26
 8003b1a:	9b0e      	ldr	r3, [sp, #56]	; 0x38
 8003b1c:	3b01      	subs	r3, #1
 8003b1e:	42bb      	cmp	r3, r7
 8003b20:	dc09      	bgt.n	8003b36 <_printf_float+0x24a>
 8003b22:	6823      	ldr	r3, [r4, #0]
 8003b24:	079f      	lsls	r7, r3, #30
 8003b26:	f100 80fd 	bmi.w	8003d24 <_printf_float+0x438>
 8003b2a:	68e0      	ldr	r0, [r4, #12]
 8003b2c:	9b0f      	ldr	r3, [sp, #60]	; 0x3c
 8003b2e:	4298      	cmp	r0, r3
 8003b30:	bfb8      	it	lt
 8003b32:	4618      	movlt	r0, r3
 8003b34:	e733      	b.n	800399e <_printf_float+0xb2>
 8003b36:	2301      	movs	r3, #1
 8003b38:	4642      	mov	r2, r8
 8003b3a:	4659      	mov	r1, fp
 8003b3c:	4628      	mov	r0, r5
 8003b3e:	47b0      	blx	r6
 8003b40:	3001      	adds	r0, #1
 8003b42:	f43f af2a 	beq.w	800399a <_printf_float+0xae>
 8003b46:	3701      	adds	r7, #1
 8003b48:	e7e7      	b.n	8003b1a <_printf_float+0x22e>
 8003b4a:	9b0d      	ldr	r3, [sp, #52]	; 0x34
 8003b4c:	2b00      	cmp	r3, #0
 8003b4e:	dc2b      	bgt.n	8003ba8 <_printf_float+0x2bc>
 8003b50:	2301      	movs	r3, #1
 8003b52:	4a26      	ldr	r2, [pc, #152]	; (8003bec <_printf_float+0x300>)
 8003b54:	4659      	mov	r1, fp
 8003b56:	4628      	mov	r0, r5
 8003b58:	47b0      	blx	r6
 8003b5a:	3001      	adds	r0, #1
 8003b5c:	f43f af1d 	beq.w	800399a <_printf_float+0xae>
 8003b60:	9b0d      	ldr	r3, [sp, #52]	; 0x34
 8003b62:	b923      	cbnz	r3, 8003b6e <_printf_float+0x282>
 8003b64:	9b0e      	ldr	r3, [sp, #56]	; 0x38
 8003b66:	b913      	cbnz	r3, 8003b6e <_printf_float+0x282>
 8003b68:	6823      	ldr	r3, [r4, #0]
 8003b6a:	07d9      	lsls	r1, r3, #31
 8003b6c:	d5d9      	bpl.n	8003b22 <_printf_float+0x236>
 8003b6e:	e9dd 2309 	ldrd	r2, r3, [sp, #36]	; 0x24
 8003b72:	4659      	mov	r1, fp
 8003b74:	4628      	mov	r0, r5
 8003b76:	47b0      	blx	r6
 8003b78:	3001      	adds	r0, #1
 8003b7a:	f43f af0e 	beq.w	800399a <_printf_float+0xae>
 8003b7e:	f04f 0800 	mov.w	r8, #0
 8003b82:	f104 091a 	add.w	r9, r4, #26
 8003b86:	9b0d      	ldr	r3, [sp, #52]	; 0x34
 8003b88:	425b      	negs	r3, r3
 8003b8a:	4543      	cmp	r3, r8
 8003b8c:	dc01      	bgt.n	8003b92 <_printf_float+0x2a6>
 8003b8e:	9b0e      	ldr	r3, [sp, #56]	; 0x38
 8003b90:	e797      	b.n	8003ac2 <_printf_float+0x1d6>
 8003b92:	2301      	movs	r3, #1
 8003b94:	464a      	mov	r2, r9
 8003b96:	4659      	mov	r1, fp
 8003b98:	4628      	mov	r0, r5
 8003b9a:	47b0      	blx	r6
 8003b9c:	3001      	adds	r0, #1
 8003b9e:	f43f aefc 	beq.w	800399a <_printf_float+0xae>
 8003ba2:	f108 0801 	add.w	r8, r8, #1
 8003ba6:	e7ee      	b.n	8003b86 <_printf_float+0x29a>
 8003ba8:	9a0e      	ldr	r2, [sp, #56]	; 0x38
 8003baa:	6da3      	ldr	r3, [r4, #88]	; 0x58
 8003bac:	429a      	cmp	r2, r3
 8003bae:	bfa8      	it	ge
 8003bb0:	461a      	movge	r2, r3
 8003bb2:	2a00      	cmp	r2, #0
 8003bb4:	4690      	mov	r8, r2
 8003bb6:	dd07      	ble.n	8003bc8 <_printf_float+0x2dc>
 8003bb8:	4613      	mov	r3, r2
 8003bba:	4659      	mov	r1, fp
 8003bbc:	463a      	mov	r2, r7
 8003bbe:	4628      	mov	r0, r5
 8003bc0:	47b0      	blx	r6
 8003bc2:	3001      	adds	r0, #1
 8003bc4:	f43f aee9 	beq.w	800399a <_printf_float+0xae>
 8003bc8:	f104 031a 	add.w	r3, r4, #26
 8003bcc:	f04f 0a00 	mov.w	sl, #0
 8003bd0:	ea28 78e8 	bic.w	r8, r8, r8, asr #31
 8003bd4:	930b      	str	r3, [sp, #44]	; 0x2c
 8003bd6:	e015      	b.n	8003c04 <_printf_float+0x318>
 8003bd8:	7fefffff 	.word	0x7fefffff
 8003bdc:	08007f58 	.word	0x08007f58
 8003be0:	08007f54 	.word	0x08007f54
 8003be4:	08007f60 	.word	0x08007f60
 8003be8:	08007f5c 	.word	0x08007f5c
 8003bec:	08007f64 	.word	0x08007f64
 8003bf0:	2301      	movs	r3, #1
 8003bf2:	9a0b      	ldr	r2, [sp, #44]	; 0x2c
 8003bf4:	4659      	mov	r1, fp
 8003bf6:	4628      	mov	r0, r5
 8003bf8:	47b0      	blx	r6
 8003bfa:	3001      	adds	r0, #1
 8003bfc:	f43f aecd 	beq.w	800399a <_printf_float+0xae>
 8003c00:	f10a 0a01 	add.w	sl, sl, #1
 8003c04:	f8d4 9058 	ldr.w	r9, [r4, #88]	; 0x58
 8003c08:	eba9 0308 	sub.w	r3, r9, r8
 8003c0c:	4553      	cmp	r3, sl
 8003c0e:	dcef      	bgt.n	8003bf0 <_printf_float+0x304>
 8003c10:	e9dd 230d 	ldrd	r2, r3, [sp, #52]	; 0x34
 8003c14:	429a      	cmp	r2, r3
 8003c16:	444f      	add	r7, r9
 8003c18:	db14      	blt.n	8003c44 <_printf_float+0x358>
 8003c1a:	6823      	ldr	r3, [r4, #0]
 8003c1c:	07da      	lsls	r2, r3, #31
 8003c1e:	d411      	bmi.n	8003c44 <_printf_float+0x358>
 8003c20:	9b0e      	ldr	r3, [sp, #56]	; 0x38
 8003c22:	990d      	ldr	r1, [sp, #52]	; 0x34
 8003c24:	eba3 0209 	sub.w	r2, r3, r9
 8003c28:	eba3 0901 	sub.w	r9, r3, r1
 8003c2c:	4591      	cmp	r9, r2
 8003c2e:	bfa8      	it	ge
 8003c30:	4691      	movge	r9, r2
 8003c32:	f1b9 0f00 	cmp.w	r9, #0
 8003c36:	dc0d      	bgt.n	8003c54 <_printf_float+0x368>
 8003c38:	2700      	movs	r7, #0
 8003c3a:	ea29 79e9 	bic.w	r9, r9, r9, asr #31
 8003c3e:	f104 081a 	add.w	r8, r4, #26
 8003c42:	e018      	b.n	8003c76 <_printf_float+0x38a>
 8003c44:	e9dd 2309 	ldrd	r2, r3, [sp, #36]	; 0x24
 8003c48:	4659      	mov	r1, fp
 8003c4a:	4628      	mov	r0, r5
 8003c4c:	47b0      	blx	r6
 8003c4e:	3001      	adds	r0, #1
 8003c50:	d1e6      	bne.n	8003c20 <_printf_float+0x334>
 8003c52:	e6a2      	b.n	800399a <_printf_float+0xae>
 8003c54:	464b      	mov	r3, r9
 8003c56:	463a      	mov	r2, r7
 8003c58:	4659      	mov	r1, fp
 8003c5a:	4628      	mov	r0, r5
 8003c5c:	47b0      	blx	r6
 8003c5e:	3001      	adds	r0, #1
 8003c60:	d1ea      	bne.n	8003c38 <_printf_float+0x34c>
 8003c62:	e69a      	b.n	800399a <_printf_float+0xae>
 8003c64:	2301      	movs	r3, #1
 8003c66:	4642      	mov	r2, r8
 8003c68:	4659      	mov	r1, fp
 8003c6a:	4628      	mov	r0, r5
 8003c6c:	47b0      	blx	r6
 8003c6e:	3001      	adds	r0, #1
 8003c70:	f43f ae93 	beq.w	800399a <_printf_float+0xae>
 8003c74:	3701      	adds	r7, #1
 8003c76:	e9dd 230d 	ldrd	r2, r3, [sp, #52]	; 0x34
 8003c7a:	1a9b      	subs	r3, r3, r2
 8003c7c:	eba3 0309 	sub.w	r3, r3, r9
 8003c80:	42bb      	cmp	r3, r7
 8003c82:	dcef      	bgt.n	8003c64 <_printf_float+0x378>
 8003c84:	e74d      	b.n	8003b22 <_printf_float+0x236>
 8003c86:	9a0e      	ldr	r2, [sp, #56]	; 0x38
 8003c88:	2a01      	cmp	r2, #1
 8003c8a:	dc01      	bgt.n	8003c90 <_printf_float+0x3a4>
 8003c8c:	07db      	lsls	r3, r3, #31
 8003c8e:	d538      	bpl.n	8003d02 <_printf_float+0x416>
 8003c90:	2301      	movs	r3, #1
 8003c92:	463a      	mov	r2, r7
 8003c94:	4659      	mov	r1, fp
 8003c96:	4628      	mov	r0, r5
 8003c98:	47b0      	blx	r6
 8003c9a:	3001      	adds	r0, #1
 8003c9c:	f43f ae7d 	beq.w	800399a <_printf_float+0xae>
 8003ca0:	e9dd 2309 	ldrd	r2, r3, [sp, #36]	; 0x24
 8003ca4:	4659      	mov	r1, fp
 8003ca6:	4628      	mov	r0, r5
 8003ca8:	47b0      	blx	r6
 8003caa:	3001      	adds	r0, #1
 8003cac:	f107 0701 	add.w	r7, r7, #1
 8003cb0:	f43f ae73 	beq.w	800399a <_printf_float+0xae>
 8003cb4:	e9d4 0112 	ldrd	r0, r1, [r4, #72]	; 0x48
 8003cb8:	9b0e      	ldr	r3, [sp, #56]	; 0x38
 8003cba:	2200      	movs	r2, #0
 8003cbc:	f103 38ff 	add.w	r8, r3, #4294967295	; 0xffffffff
 8003cc0:	2300      	movs	r3, #0
 8003cc2:	f7fc fe71 	bl	80009a8 <__aeabi_dcmpeq>
 8003cc6:	b9c0      	cbnz	r0, 8003cfa <_printf_float+0x40e>
 8003cc8:	4643      	mov	r3, r8
 8003cca:	463a      	mov	r2, r7
 8003ccc:	4659      	mov	r1, fp
 8003cce:	4628      	mov	r0, r5
 8003cd0:	47b0      	blx	r6
 8003cd2:	3001      	adds	r0, #1
 8003cd4:	d10d      	bne.n	8003cf2 <_printf_float+0x406>
 8003cd6:	e660      	b.n	800399a <_printf_float+0xae>
 8003cd8:	2301      	movs	r3, #1
 8003cda:	4642      	mov	r2, r8
 8003cdc:	4659      	mov	r1, fp
 8003cde:	4628      	mov	r0, r5
 8003ce0:	47b0      	blx	r6
 8003ce2:	3001      	adds	r0, #1
 8003ce4:	f43f ae59 	beq.w	800399a <_printf_float+0xae>
 8003ce8:	3701      	adds	r7, #1
 8003cea:	9b0e      	ldr	r3, [sp, #56]	; 0x38
 8003cec:	3b01      	subs	r3, #1
 8003cee:	42bb      	cmp	r3, r7
 8003cf0:	dcf2      	bgt.n	8003cd8 <_printf_float+0x3ec>
 8003cf2:	464b      	mov	r3, r9
 8003cf4:	f104 0250 	add.w	r2, r4, #80	; 0x50
 8003cf8:	e6e4      	b.n	8003ac4 <_printf_float+0x1d8>
 8003cfa:	2700      	movs	r7, #0
 8003cfc:	f104 081a 	add.w	r8, r4, #26
 8003d00:	e7f3      	b.n	8003cea <_printf_float+0x3fe>
 8003d02:	2301      	movs	r3, #1
 8003d04:	e7e1      	b.n	8003cca <_printf_float+0x3de>
 8003d06:	2301      	movs	r3, #1
 8003d08:	4642      	mov	r2, r8
 8003d0a:	4659      	mov	r1, fp
 8003d0c:	4628      	mov	r0, r5
 8003d0e:	47b0      	blx	r6
 8003d10:	3001      	adds	r0, #1
 8003d12:	f43f ae42 	beq.w	800399a <_printf_float+0xae>
 8003d16:	3701      	adds	r7, #1
 8003d18:	68e3      	ldr	r3, [r4, #12]
 8003d1a:	9a0f      	ldr	r2, [sp, #60]	; 0x3c
 8003d1c:	1a9b      	subs	r3, r3, r2
 8003d1e:	42bb      	cmp	r3, r7
 8003d20:	dcf1      	bgt.n	8003d06 <_printf_float+0x41a>
 8003d22:	e702      	b.n	8003b2a <_printf_float+0x23e>
 8003d24:	2700      	movs	r7, #0
 8003d26:	f104 0819 	add.w	r8, r4, #25
 8003d2a:	e7f5      	b.n	8003d18 <_printf_float+0x42c>
 8003d2c:	2b00      	cmp	r3, #0
 8003d2e:	f43f ae94 	beq.w	8003a5a <_printf_float+0x16e>
 8003d32:	f04f 0c00 	mov.w	ip, #0
 8003d36:	e9cd 1c05 	strd	r1, ip, [sp, #20]
 8003d3a:	f10d 0133 	add.w	r1, sp, #51	; 0x33
 8003d3e:	6022      	str	r2, [r4, #0]
 8003d40:	e9cd 0803 	strd	r0, r8, [sp, #12]
 8003d44:	e9cd 2101 	strd	r2, r1, [sp, #4]
 8003d48:	9300      	str	r3, [sp, #0]
 8003d4a:	463a      	mov	r2, r7
 8003d4c:	464b      	mov	r3, r9
 8003d4e:	4628      	mov	r0, r5
 8003d50:	f7ff fd3a 	bl	80037c8 <__cvt>
 8003d54:	4607      	mov	r7, r0
 8003d56:	e64f      	b.n	80039f8 <_printf_float+0x10c>

08003d58 <_printf_common>:
 8003d58:	e92d 47f0 	stmdb	sp!, {r4, r5, r6, r7, r8, r9, sl, lr}
 8003d5c:	4691      	mov	r9, r2
 8003d5e:	461f      	mov	r7, r3
 8003d60:	688a      	ldr	r2, [r1, #8]
 8003d62:	690b      	ldr	r3, [r1, #16]
 8003d64:	4606      	mov	r6, r0
 8003d66:	4293      	cmp	r3, r2
 8003d68:	bfb8      	it	lt
 8003d6a:	4613      	movlt	r3, r2
 8003d6c:	f8c9 3000 	str.w	r3, [r9]
 8003d70:	f891 2043 	ldrb.w	r2, [r1, #67]	; 0x43
 8003d74:	460c      	mov	r4, r1
 8003d76:	f8dd 8020 	ldr.w	r8, [sp, #32]
 8003d7a:	b112      	cbz	r2, 8003d82 <_printf_common+0x2a>
 8003d7c:	3301      	adds	r3, #1
 8003d7e:	f8c9 3000 	str.w	r3, [r9]
 8003d82:	6823      	ldr	r3, [r4, #0]
 8003d84:	0699      	lsls	r1, r3, #26
 8003d86:	bf42      	ittt	mi
 8003d88:	f8d9 3000 	ldrmi.w	r3, [r9]
 8003d8c:	3302      	addmi	r3, #2
 8003d8e:	f8c9 3000 	strmi.w	r3, [r9]
 8003d92:	6825      	ldr	r5, [r4, #0]
 8003d94:	f015 0506 	ands.w	r5, r5, #6
 8003d98:	d107      	bne.n	8003daa <_printf_common+0x52>
 8003d9a:	f104 0a19 	add.w	sl, r4, #25
 8003d9e:	68e3      	ldr	r3, [r4, #12]
 8003da0:	f8d9 2000 	ldr.w	r2, [r9]
 8003da4:	1a9b      	subs	r3, r3, r2
 8003da6:	42ab      	cmp	r3, r5
 8003da8:	dc29      	bgt.n	8003dfe <_printf_common+0xa6>
 8003daa:	f894 3043 	ldrb.w	r3, [r4, #67]	; 0x43
 8003dae:	6822      	ldr	r2, [r4, #0]
 8003db0:	3300      	adds	r3, #0
 8003db2:	bf18      	it	ne
 8003db4:	2301      	movne	r3, #1
 8003db6:	0692      	lsls	r2, r2, #26
 8003db8:	d42e      	bmi.n	8003e18 <_printf_common+0xc0>
 8003dba:	f104 0243 	add.w	r2, r4, #67	; 0x43
 8003dbe:	4639      	mov	r1, r7
 8003dc0:	4630      	mov	r0, r6
 8003dc2:	47c0      	blx	r8
 8003dc4:	3001      	adds	r0, #1
 8003dc6:	d021      	beq.n	8003e0c <_printf_common+0xb4>
 8003dc8:	6823      	ldr	r3, [r4, #0]
 8003dca:	68e5      	ldr	r5, [r4, #12]
 8003dcc:	f003 0306 	and.w	r3, r3, #6
 8003dd0:	2b04      	cmp	r3, #4
 8003dd2:	bf18      	it	ne
 8003dd4:	2500      	movne	r5, #0
 8003dd6:	f8d9 2000 	ldr.w	r2, [r9]
 8003dda:	f04f 0900 	mov.w	r9, #0
 8003dde:	bf08      	it	eq
 8003de0:	1aad      	subeq	r5, r5, r2
 8003de2:	68a3      	ldr	r3, [r4, #8]
 8003de4:	6922      	ldr	r2, [r4, #16]
 8003de6:	bf08      	it	eq
 8003de8:	ea25 75e5 	biceq.w	r5, r5, r5, asr #31
 8003dec:	4293      	cmp	r3, r2
 8003dee:	bfc4      	itt	gt
 8003df0:	1a9b      	subgt	r3, r3, r2
 8003df2:	18ed      	addgt	r5, r5, r3
 8003df4:	341a      	adds	r4, #26
 8003df6:	454d      	cmp	r5, r9
 8003df8:	d11a      	bne.n	8003e30 <_printf_common+0xd8>
 8003dfa:	2000      	movs	r0, #0
 8003dfc:	e008      	b.n	8003e10 <_printf_common+0xb8>
 8003dfe:	2301      	movs	r3, #1
 8003e00:	4652      	mov	r2, sl
 8003e02:	4639      	mov	r1, r7
 8003e04:	4630      	mov	r0, r6
 8003e06:	47c0      	blx	r8
 8003e08:	3001      	adds	r0, #1
 8003e0a:	d103      	bne.n	8003e14 <_printf_common+0xbc>
 8003e0c:	f04f 30ff 	mov.w	r0, #4294967295	; 0xffffffff
 8003e10:	e8bd 87f0 	ldmia.w	sp!, {r4, r5, r6, r7, r8, r9, sl, pc}
 8003e14:	3501      	adds	r5, #1
 8003e16:	e7c2      	b.n	8003d9e <_printf_common+0x46>
 8003e18:	2030      	movs	r0, #48	; 0x30
 8003e1a:	18e1      	adds	r1, r4, r3
 8003e1c:	f881 0043 	strb.w	r0, [r1, #67]	; 0x43
 8003e20:	1c5a      	adds	r2, r3, #1
 8003e22:	f894 1045 	ldrb.w	r1, [r4, #69]	; 0x45
 8003e26:	4422      	add	r2, r4
 8003e28:	3302      	adds	r3, #2
 8003e2a:	f882 1043 	strb.w	r1, [r2, #67]	; 0x43
 8003e2e:	e7c4      	b.n	8003dba <_printf_common+0x62>
 8003e30:	2301      	movs	r3, #1
 8003e32:	4622      	mov	r2, r4
 8003e34:	4639      	mov	r1, r7
 8003e36:	4630      	mov	r0, r6
 8003e38:	47c0      	blx	r8
 8003e3a:	3001      	adds	r0, #1
 8003e3c:	d0e6      	beq.n	8003e0c <_printf_common+0xb4>
 8003e3e:	f109 0901 	add.w	r9, r9, #1
 8003e42:	e7d8      	b.n	8003df6 <_printf_common+0x9e>

08003e44 <_printf_i>:
 8003e44:	e92d 43f0 	stmdb	sp!, {r4, r5, r6, r7, r8, r9, lr}
 8003e48:	f101 0c43 	add.w	ip, r1, #67	; 0x43
 8003e4c:	460c      	mov	r4, r1
 8003e4e:	7e09      	ldrb	r1, [r1, #24]
 8003e50:	b085      	sub	sp, #20
 8003e52:	296e      	cmp	r1, #110	; 0x6e
 8003e54:	4617      	mov	r7, r2
 8003e56:	4606      	mov	r6, r0
 8003e58:	4698      	mov	r8, r3
 8003e5a:	9a0c      	ldr	r2, [sp, #48]	; 0x30
 8003e5c:	f000 80b3 	beq.w	8003fc6 <_printf_i+0x182>
 8003e60:	d822      	bhi.n	8003ea8 <_printf_i+0x64>
 8003e62:	2963      	cmp	r1, #99	; 0x63
 8003e64:	d036      	beq.n	8003ed4 <_printf_i+0x90>
 8003e66:	d80a      	bhi.n	8003e7e <_printf_i+0x3a>
 8003e68:	2900      	cmp	r1, #0
 8003e6a:	f000 80b9 	beq.w	8003fe0 <_printf_i+0x19c>
 8003e6e:	2958      	cmp	r1, #88	; 0x58
 8003e70:	f000 8083 	beq.w	8003f7a <_printf_i+0x136>
 8003e74:	f104 0542 	add.w	r5, r4, #66	; 0x42
 8003e78:	f884 1042 	strb.w	r1, [r4, #66]	; 0x42
 8003e7c:	e032      	b.n	8003ee4 <_printf_i+0xa0>
 8003e7e:	2964      	cmp	r1, #100	; 0x64
 8003e80:	d001      	beq.n	8003e86 <_printf_i+0x42>
 8003e82:	2969      	cmp	r1, #105	; 0x69
 8003e84:	d1f6      	bne.n	8003e74 <_printf_i+0x30>
 8003e86:	6820      	ldr	r0, [r4, #0]
 8003e88:	6813      	ldr	r3, [r2, #0]
 8003e8a:	0605      	lsls	r5, r0, #24
 8003e8c:	f103 0104 	add.w	r1, r3, #4
 8003e90:	d52a      	bpl.n	8003ee8 <_printf_i+0xa4>
 8003e92:	681b      	ldr	r3, [r3, #0]
 8003e94:	6011      	str	r1, [r2, #0]
 8003e96:	2b00      	cmp	r3, #0
 8003e98:	da03      	bge.n	8003ea2 <_printf_i+0x5e>
 8003e9a:	222d      	movs	r2, #45	; 0x2d
 8003e9c:	425b      	negs	r3, r3
 8003e9e:	f884 2043 	strb.w	r2, [r4, #67]	; 0x43
 8003ea2:	486f      	ldr	r0, [pc, #444]	; (8004060 <_printf_i+0x21c>)
 8003ea4:	220a      	movs	r2, #10
 8003ea6:	e039      	b.n	8003f1c <_printf_i+0xd8>
 8003ea8:	2973      	cmp	r1, #115	; 0x73
 8003eaa:	f000 809d 	beq.w	8003fe8 <_printf_i+0x1a4>
 8003eae:	d808      	bhi.n	8003ec2 <_printf_i+0x7e>
 8003eb0:	296f      	cmp	r1, #111	; 0x6f
 8003eb2:	d020      	beq.n	8003ef6 <_printf_i+0xb2>
 8003eb4:	2970      	cmp	r1, #112	; 0x70
 8003eb6:	d1dd      	bne.n	8003e74 <_printf_i+0x30>
 8003eb8:	6823      	ldr	r3, [r4, #0]
 8003eba:	f043 0320 	orr.w	r3, r3, #32
 8003ebe:	6023      	str	r3, [r4, #0]
 8003ec0:	e003      	b.n	8003eca <_printf_i+0x86>
 8003ec2:	2975      	cmp	r1, #117	; 0x75
 8003ec4:	d017      	beq.n	8003ef6 <_printf_i+0xb2>
 8003ec6:	2978      	cmp	r1, #120	; 0x78
 8003ec8:	d1d4      	bne.n	8003e74 <_printf_i+0x30>
 8003eca:	2378      	movs	r3, #120	; 0x78
 8003ecc:	4865      	ldr	r0, [pc, #404]	; (8004064 <_printf_i+0x220>)
 8003ece:	f884 3045 	strb.w	r3, [r4, #69]	; 0x45
 8003ed2:	e055      	b.n	8003f80 <_printf_i+0x13c>
 8003ed4:	6813      	ldr	r3, [r2, #0]
 8003ed6:	f104 0542 	add.w	r5, r4, #66	; 0x42
 8003eda:	1d19      	adds	r1, r3, #4
 8003edc:	681b      	ldr	r3, [r3, #0]
 8003ede:	6011      	str	r1, [r2, #0]
 8003ee0:	f884 3042 	strb.w	r3, [r4, #66]	; 0x42
 8003ee4:	2301      	movs	r3, #1
 8003ee6:	e08c      	b.n	8004002 <_printf_i+0x1be>
 8003ee8:	681b      	ldr	r3, [r3, #0]
 8003eea:	f010 0f40 	tst.w	r0, #64	; 0x40
 8003eee:	6011      	str	r1, [r2, #0]
 8003ef0:	bf18      	it	ne
 8003ef2:	b21b      	sxthne	r3, r3
 8003ef4:	e7cf      	b.n	8003e96 <_printf_i+0x52>
 8003ef6:	6813      	ldr	r3, [r2, #0]
 8003ef8:	6825      	ldr	r5, [r4, #0]
 8003efa:	1d18      	adds	r0, r3, #4
 8003efc:	6010      	str	r0, [r2, #0]
 8003efe:	0628      	lsls	r0, r5, #24
 8003f00:	d501      	bpl.n	8003f06 <_printf_i+0xc2>
 8003f02:	681b      	ldr	r3, [r3, #0]
 8003f04:	e002      	b.n	8003f0c <_printf_i+0xc8>
 8003f06:	0668      	lsls	r0, r5, #25
 8003f08:	d5fb      	bpl.n	8003f02 <_printf_i+0xbe>
 8003f0a:	881b      	ldrh	r3, [r3, #0]
 8003f0c:	296f      	cmp	r1, #111	; 0x6f
 8003f0e:	bf14      	ite	ne
 8003f10:	220a      	movne	r2, #10
 8003f12:	2208      	moveq	r2, #8
 8003f14:	4852      	ldr	r0, [pc, #328]	; (8004060 <_printf_i+0x21c>)
 8003f16:	2100      	movs	r1, #0
 8003f18:	f884 1043 	strb.w	r1, [r4, #67]	; 0x43
 8003f1c:	6865      	ldr	r5, [r4, #4]
 8003f1e:	2d00      	cmp	r5, #0
 8003f20:	60a5      	str	r5, [r4, #8]
 8003f22:	f2c0 8095 	blt.w	8004050 <_printf_i+0x20c>
 8003f26:	6821      	ldr	r1, [r4, #0]
 8003f28:	f021 0104 	bic.w	r1, r1, #4
 8003f2c:	6021      	str	r1, [r4, #0]
 8003f2e:	2b00      	cmp	r3, #0
 8003f30:	d13d      	bne.n	8003fae <_printf_i+0x16a>
 8003f32:	2d00      	cmp	r5, #0
 8003f34:	f040 808e 	bne.w	8004054 <_printf_i+0x210>
 8003f38:	4665      	mov	r5, ip
 8003f3a:	2a08      	cmp	r2, #8
 8003f3c:	d10b      	bne.n	8003f56 <_printf_i+0x112>
 8003f3e:	6823      	ldr	r3, [r4, #0]
 8003f40:	07db      	lsls	r3, r3, #31
 8003f42:	d508      	bpl.n	8003f56 <_printf_i+0x112>
 8003f44:	6923      	ldr	r3, [r4, #16]
 8003f46:	6862      	ldr	r2, [r4, #4]
 8003f48:	429a      	cmp	r2, r3
 8003f4a:	bfde      	ittt	le
 8003f4c:	2330      	movle	r3, #48	; 0x30
 8003f4e:	f805 3c01 	strble.w	r3, [r5, #-1]
 8003f52:	f105 35ff 	addle.w	r5, r5, #4294967295	; 0xffffffff
 8003f56:	ebac 0305 	sub.w	r3, ip, r5
 8003f5a:	6123      	str	r3, [r4, #16]
 8003f5c:	f8cd 8000 	str.w	r8, [sp]
 8003f60:	463b      	mov	r3, r7
 8003f62:	aa03      	add	r2, sp, #12
 8003f64:	4621      	mov	r1, r4
 8003f66:	4630      	mov	r0, r6
 8003f68:	f7ff fef6 	bl	8003d58 <_printf_common>
 8003f6c:	3001      	adds	r0, #1
 8003f6e:	d14d      	bne.n	800400c <_printf_i+0x1c8>
 8003f70:	f04f 30ff 	mov.w	r0, #4294967295	; 0xffffffff
 8003f74:	b005      	add	sp, #20
 8003f76:	e8bd 83f0 	ldmia.w	sp!, {r4, r5, r6, r7, r8, r9, pc}
 8003f7a:	4839      	ldr	r0, [pc, #228]	; (8004060 <_printf_i+0x21c>)
 8003f7c:	f884 1045 	strb.w	r1, [r4, #69]	; 0x45
 8003f80:	6813      	ldr	r3, [r2, #0]
 8003f82:	6821      	ldr	r1, [r4, #0]
 8003f84:	1d1d      	adds	r5, r3, #4
 8003f86:	681b      	ldr	r3, [r3, #0]
 8003f88:	6015      	str	r5, [r2, #0]
 8003f8a:	060a      	lsls	r2, r1, #24
 8003f8c:	d50b      	bpl.n	8003fa6 <_printf_i+0x162>
 8003f8e:	07ca      	lsls	r2, r1, #31
 8003f90:	bf44      	itt	mi
 8003f92:	f041 0120 	orrmi.w	r1, r1, #32
 8003f96:	6021      	strmi	r1, [r4, #0]
 8003f98:	b91b      	cbnz	r3, 8003fa2 <_printf_i+0x15e>
 8003f9a:	6822      	ldr	r2, [r4, #0]
 8003f9c:	f022 0220 	bic.w	r2, r2, #32
 8003fa0:	6022      	str	r2, [r4, #0]
 8003fa2:	2210      	movs	r2, #16
 8003fa4:	e7b7      	b.n	8003f16 <_printf_i+0xd2>
 8003fa6:	064d      	lsls	r5, r1, #25
 8003fa8:	bf48      	it	mi
 8003faa:	b29b      	uxthmi	r3, r3
 8003fac:	e7ef      	b.n	8003f8e <_printf_i+0x14a>
 8003fae:	4665      	mov	r5, ip
 8003fb0:	fbb3 f1f2 	udiv	r1, r3, r2
 8003fb4:	fb02 3311 	mls	r3, r2, r1, r3
 8003fb8:	5cc3      	ldrb	r3, [r0, r3]
 8003fba:	f805 3d01 	strb.w	r3, [r5, #-1]!
 8003fbe:	460b      	mov	r3, r1
 8003fc0:	2900      	cmp	r1, #0
 8003fc2:	d1f5      	bne.n	8003fb0 <_printf_i+0x16c>
 8003fc4:	e7b9      	b.n	8003f3a <_printf_i+0xf6>
 8003fc6:	6813      	ldr	r3, [r2, #0]
 8003fc8:	6825      	ldr	r5, [r4, #0]
 8003fca:	1d18      	adds	r0, r3, #4
 8003fcc:	6961      	ldr	r1, [r4, #20]
 8003fce:	6010      	str	r0, [r2, #0]
 8003fd0:	0628      	lsls	r0, r5, #24
 8003fd2:	681b      	ldr	r3, [r3, #0]
 8003fd4:	d501      	bpl.n	8003fda <_printf_i+0x196>
 8003fd6:	6019      	str	r1, [r3, #0]
 8003fd8:	e002      	b.n	8003fe0 <_printf_i+0x19c>
 8003fda:	066a      	lsls	r2, r5, #25
 8003fdc:	d5fb      	bpl.n	8003fd6 <_printf_i+0x192>
 8003fde:	8019      	strh	r1, [r3, #0]
 8003fe0:	2300      	movs	r3, #0
 8003fe2:	4665      	mov	r5, ip
 8003fe4:	6123      	str	r3, [r4, #16]
 8003fe6:	e7b9      	b.n	8003f5c <_printf_i+0x118>
 8003fe8:	6813      	ldr	r3, [r2, #0]
 8003fea:	1d19      	adds	r1, r3, #4
 8003fec:	6011      	str	r1, [r2, #0]
 8003fee:	681d      	ldr	r5, [r3, #0]
 8003ff0:	6862      	ldr	r2, [r4, #4]
 8003ff2:	2100      	movs	r1, #0
 8003ff4:	4628      	mov	r0, r5
 8003ff6:	f002 fe6f 	bl	8006cd8 <memchr>
 8003ffa:	b108      	cbz	r0, 8004000 <_printf_i+0x1bc>
 8003ffc:	1b40      	subs	r0, r0, r5
 8003ffe:	6060      	str	r0, [r4, #4]
 8004000:	6863      	ldr	r3, [r4, #4]
 8004002:	6123      	str	r3, [r4, #16]
 8004004:	2300      	movs	r3, #0
 8004006:	f884 3043 	strb.w	r3, [r4, #67]	; 0x43
 800400a:	e7a7      	b.n	8003f5c <_printf_i+0x118>
 800400c:	6923      	ldr	r3, [r4, #16]
 800400e:	462a      	mov	r2, r5
 8004010:	4639      	mov	r1, r7
 8004012:	4630      	mov	r0, r6
 8004014:	47c0      	blx	r8
 8004016:	3001      	adds	r0, #1
 8004018:	d0aa      	beq.n	8003f70 <_printf_i+0x12c>
 800401a:	6823      	ldr	r3, [r4, #0]
 800401c:	079b      	lsls	r3, r3, #30
 800401e:	d413      	bmi.n	8004048 <_printf_i+0x204>
 8004020:	68e0      	ldr	r0, [r4, #12]
 8004022:	9b03      	ldr	r3, [sp, #12]
 8004024:	4298      	cmp	r0, r3
 8004026:	bfb8      	it	lt
 8004028:	4618      	movlt	r0, r3
 800402a:	e7a3      	b.n	8003f74 <_printf_i+0x130>
 800402c:	2301      	movs	r3, #1
 800402e:	464a      	mov	r2, r9
 8004030:	4639      	mov	r1, r7
 8004032:	4630      	mov	r0, r6
 8004034:	47c0      	blx	r8
 8004036:	3001      	adds	r0, #1
 8004038:	d09a      	beq.n	8003f70 <_printf_i+0x12c>
 800403a:	3501      	adds	r5, #1
 800403c:	68e3      	ldr	r3, [r4, #12]
 800403e:	9a03      	ldr	r2, [sp, #12]
 8004040:	1a9b      	subs	r3, r3, r2
 8004042:	42ab      	cmp	r3, r5
 8004044:	dcf2      	bgt.n	800402c <_printf_i+0x1e8>
 8004046:	e7eb      	b.n	8004020 <_printf_i+0x1dc>
 8004048:	2500      	movs	r5, #0
 800404a:	f104 0919 	add.w	r9, r4, #25
 800404e:	e7f5      	b.n	800403c <_printf_i+0x1f8>
 8004050:	2b00      	cmp	r3, #0
 8004052:	d1ac      	bne.n	8003fae <_printf_i+0x16a>
 8004054:	7803      	ldrb	r3, [r0, #0]
 8004056:	f104 0542 	add.w	r5, r4, #66	; 0x42
 800405a:	f884 3042 	strb.w	r3, [r4, #66]	; 0x42
 800405e:	e76c      	b.n	8003f3a <_printf_i+0xf6>
 8004060:	08007f66 	.word	0x08007f66
 8004064:	08007f77 	.word	0x08007f77

08004068 <_scanf_float>:
 8004068:	e92d 4ff0 	stmdb	sp!, {r4, r5, r6, r7, r8, r9, sl, fp, lr}
 800406c:	469a      	mov	sl, r3
 800406e:	688b      	ldr	r3, [r1, #8]
 8004070:	4616      	mov	r6, r2
 8004072:	1e5a      	subs	r2, r3, #1
 8004074:	f5b2 7fae 	cmp.w	r2, #348	; 0x15c
 8004078:	bf88      	it	hi
 800407a:	f46f 72ae 	mvnhi.w	r2, #348	; 0x15c
 800407e:	b087      	sub	sp, #28
 8004080:	bf85      	ittet	hi
 8004082:	189b      	addhi	r3, r3, r2
 8004084:	9301      	strhi	r3, [sp, #4]
 8004086:	2300      	movls	r3, #0
 8004088:	f240 135d 	movwhi	r3, #349	; 0x15d
 800408c:	4688      	mov	r8, r1
 800408e:	f04f 0b00 	mov.w	fp, #0
 8004092:	bf8c      	ite	hi
 8004094:	608b      	strhi	r3, [r1, #8]
 8004096:	9301      	strls	r3, [sp, #4]
 8004098:	680b      	ldr	r3, [r1, #0]
 800409a:	4607      	mov	r7, r0
 800409c:	f443 63f0 	orr.w	r3, r3, #1920	; 0x780
 80040a0:	f848 3b1c 	str.w	r3, [r8], #28
 80040a4:	460c      	mov	r4, r1
 80040a6:	4645      	mov	r5, r8
 80040a8:	465a      	mov	r2, fp
 80040aa:	46d9      	mov	r9, fp
 80040ac:	e9cd bb03 	strd	fp, fp, [sp, #12]
 80040b0:	f8cd b008 	str.w	fp, [sp, #8]
 80040b4:	68a1      	ldr	r1, [r4, #8]
 80040b6:	b181      	cbz	r1, 80040da <_scanf_float+0x72>
 80040b8:	6833      	ldr	r3, [r6, #0]
 80040ba:	781b      	ldrb	r3, [r3, #0]
 80040bc:	2b49      	cmp	r3, #73	; 0x49
 80040be:	d071      	beq.n	80041a4 <_scanf_float+0x13c>
 80040c0:	d84d      	bhi.n	800415e <_scanf_float+0xf6>
 80040c2:	2b39      	cmp	r3, #57	; 0x39
 80040c4:	d840      	bhi.n	8004148 <_scanf_float+0xe0>
 80040c6:	2b31      	cmp	r3, #49	; 0x31
 80040c8:	f080 8088 	bcs.w	80041dc <_scanf_float+0x174>
 80040cc:	2b2d      	cmp	r3, #45	; 0x2d
 80040ce:	f000 8090 	beq.w	80041f2 <_scanf_float+0x18a>
 80040d2:	d815      	bhi.n	8004100 <_scanf_float+0x98>
 80040d4:	2b2b      	cmp	r3, #43	; 0x2b
 80040d6:	f000 808c 	beq.w	80041f2 <_scanf_float+0x18a>
 80040da:	f1b9 0f00 	cmp.w	r9, #0
 80040de:	d003      	beq.n	80040e8 <_scanf_float+0x80>
 80040e0:	6823      	ldr	r3, [r4, #0]
 80040e2:	f423 7380 	bic.w	r3, r3, #256	; 0x100
 80040e6:	6023      	str	r3, [r4, #0]
 80040e8:	3a01      	subs	r2, #1
 80040ea:	2a01      	cmp	r2, #1
 80040ec:	f200 80ea 	bhi.w	80042c4 <_scanf_float+0x25c>
 80040f0:	4545      	cmp	r5, r8
 80040f2:	f200 80dc 	bhi.w	80042ae <_scanf_float+0x246>
 80040f6:	2601      	movs	r6, #1
 80040f8:	4630      	mov	r0, r6
 80040fa:	b007      	add	sp, #28
 80040fc:	e8bd 8ff0 	ldmia.w	sp!, {r4, r5, r6, r7, r8, r9, sl, fp, pc}
 8004100:	2b2e      	cmp	r3, #46	; 0x2e
 8004102:	f000 809f 	beq.w	8004244 <_scanf_float+0x1dc>
 8004106:	2b30      	cmp	r3, #48	; 0x30
 8004108:	d1e7      	bne.n	80040da <_scanf_float+0x72>
 800410a:	6820      	ldr	r0, [r4, #0]
 800410c:	f410 7f80 	tst.w	r0, #256	; 0x100
 8004110:	d064      	beq.n	80041dc <_scanf_float+0x174>
 8004112:	9b01      	ldr	r3, [sp, #4]
 8004114:	f020 0080 	bic.w	r0, r0, #128	; 0x80
 8004118:	6020      	str	r0, [r4, #0]
 800411a:	f109 0901 	add.w	r9, r9, #1
 800411e:	b11b      	cbz	r3, 8004128 <_scanf_float+0xc0>
 8004120:	3b01      	subs	r3, #1
 8004122:	3101      	adds	r1, #1
 8004124:	9301      	str	r3, [sp, #4]
 8004126:	60a1      	str	r1, [r4, #8]
 8004128:	68a3      	ldr	r3, [r4, #8]
 800412a:	3b01      	subs	r3, #1
 800412c:	60a3      	str	r3, [r4, #8]
 800412e:	6923      	ldr	r3, [r4, #16]
 8004130:	3301      	adds	r3, #1
 8004132:	6123      	str	r3, [r4, #16]
 8004134:	6873      	ldr	r3, [r6, #4]
 8004136:	3b01      	subs	r3, #1
 8004138:	2b00      	cmp	r3, #0
 800413a:	6073      	str	r3, [r6, #4]
 800413c:	f340 80ac 	ble.w	8004298 <_scanf_float+0x230>
 8004140:	6833      	ldr	r3, [r6, #0]
 8004142:	3301      	adds	r3, #1
 8004144:	6033      	str	r3, [r6, #0]
 8004146:	e7b5      	b.n	80040b4 <_scanf_float+0x4c>
 8004148:	2b45      	cmp	r3, #69	; 0x45
 800414a:	f000 8085 	beq.w	8004258 <_scanf_float+0x1f0>
 800414e:	2b46      	cmp	r3, #70	; 0x46
 8004150:	d06a      	beq.n	8004228 <_scanf_float+0x1c0>
 8004152:	2b41      	cmp	r3, #65	; 0x41
 8004154:	d1c1      	bne.n	80040da <_scanf_float+0x72>
 8004156:	2a01      	cmp	r2, #1
 8004158:	d1bf      	bne.n	80040da <_scanf_float+0x72>
 800415a:	2202      	movs	r2, #2
 800415c:	e046      	b.n	80041ec <_scanf_float+0x184>
 800415e:	2b65      	cmp	r3, #101	; 0x65
 8004160:	d07a      	beq.n	8004258 <_scanf_float+0x1f0>
 8004162:	d818      	bhi.n	8004196 <_scanf_float+0x12e>
 8004164:	2b54      	cmp	r3, #84	; 0x54
 8004166:	d066      	beq.n	8004236 <_scanf_float+0x1ce>
 8004168:	d811      	bhi.n	800418e <_scanf_float+0x126>
 800416a:	2b4e      	cmp	r3, #78	; 0x4e
 800416c:	d1b5      	bne.n	80040da <_scanf_float+0x72>
 800416e:	2a00      	cmp	r2, #0
 8004170:	d146      	bne.n	8004200 <_scanf_float+0x198>
 8004172:	f1b9 0f00 	cmp.w	r9, #0
 8004176:	d145      	bne.n	8004204 <_scanf_float+0x19c>
 8004178:	6821      	ldr	r1, [r4, #0]
 800417a:	f401 60e0 	and.w	r0, r1, #1792	; 0x700
 800417e:	f5b0 6fe0 	cmp.w	r0, #1792	; 0x700
 8004182:	d13f      	bne.n	8004204 <_scanf_float+0x19c>
 8004184:	f421 61f0 	bic.w	r1, r1, #1920	; 0x780
 8004188:	6021      	str	r1, [r4, #0]
 800418a:	2201      	movs	r2, #1
 800418c:	e02e      	b.n	80041ec <_scanf_float+0x184>
 800418e:	2b59      	cmp	r3, #89	; 0x59
 8004190:	d01e      	beq.n	80041d0 <_scanf_float+0x168>
 8004192:	2b61      	cmp	r3, #97	; 0x61
 8004194:	e7de      	b.n	8004154 <_scanf_float+0xec>
 8004196:	2b6e      	cmp	r3, #110	; 0x6e
 8004198:	d0e9      	beq.n	800416e <_scanf_float+0x106>
 800419a:	d815      	bhi.n	80041c8 <_scanf_float+0x160>
 800419c:	2b66      	cmp	r3, #102	; 0x66
 800419e:	d043      	beq.n	8004228 <_scanf_float+0x1c0>
 80041a0:	2b69      	cmp	r3, #105	; 0x69
 80041a2:	d19a      	bne.n	80040da <_scanf_float+0x72>
 80041a4:	f1bb 0f00 	cmp.w	fp, #0
 80041a8:	d138      	bne.n	800421c <_scanf_float+0x1b4>
 80041aa:	f1b9 0f00 	cmp.w	r9, #0
 80041ae:	d197      	bne.n	80040e0 <_scanf_float+0x78>
 80041b0:	6821      	ldr	r1, [r4, #0]
 80041b2:	f401 60e0 	and.w	r0, r1, #1792	; 0x700
 80041b6:	f5b0 6fe0 	cmp.w	r0, #1792	; 0x700
 80041ba:	d195      	bne.n	80040e8 <_scanf_float+0x80>
 80041bc:	f421 61f0 	bic.w	r1, r1, #1920	; 0x780
 80041c0:	6021      	str	r1, [r4, #0]
 80041c2:	f04f 0b01 	mov.w	fp, #1
 80041c6:	e011      	b.n	80041ec <_scanf_float+0x184>
 80041c8:	2b74      	cmp	r3, #116	; 0x74
 80041ca:	d034      	beq.n	8004236 <_scanf_float+0x1ce>
 80041cc:	2b79      	cmp	r3, #121	; 0x79
 80041ce:	d184      	bne.n	80040da <_scanf_float+0x72>
 80041d0:	f1bb 0f07 	cmp.w	fp, #7
 80041d4:	d181      	bne.n	80040da <_scanf_float+0x72>
 80041d6:	f04f 0b08 	mov.w	fp, #8
 80041da:	e007      	b.n	80041ec <_scanf_float+0x184>
 80041dc:	eb12 0f0b 	cmn.w	r2, fp
 80041e0:	f47f af7b 	bne.w	80040da <_scanf_float+0x72>
 80041e4:	6821      	ldr	r1, [r4, #0]
 80041e6:	f421 71c0 	bic.w	r1, r1, #384	; 0x180
 80041ea:	6021      	str	r1, [r4, #0]
 80041ec:	702b      	strb	r3, [r5, #0]
 80041ee:	3501      	adds	r5, #1
 80041f0:	e79a      	b.n	8004128 <_scanf_float+0xc0>
 80041f2:	6821      	ldr	r1, [r4, #0]
 80041f4:	0608      	lsls	r0, r1, #24
 80041f6:	f57f af70 	bpl.w	80040da <_scanf_float+0x72>
 80041fa:	f021 0180 	bic.w	r1, r1, #128	; 0x80
 80041fe:	e7f4      	b.n	80041ea <_scanf_float+0x182>
 8004200:	2a02      	cmp	r2, #2
 8004202:	d047      	beq.n	8004294 <_scanf_float+0x22c>
 8004204:	f1bb 0f01 	cmp.w	fp, #1
 8004208:	d003      	beq.n	8004212 <_scanf_float+0x1aa>
 800420a:	f1bb 0f04 	cmp.w	fp, #4
 800420e:	f47f af64 	bne.w	80040da <_scanf_float+0x72>
 8004212:	f10b 0b01 	add.w	fp, fp, #1
 8004216:	fa5f fb8b 	uxtb.w	fp, fp
 800421a:	e7e7      	b.n	80041ec <_scanf_float+0x184>
 800421c:	f1bb 0f03 	cmp.w	fp, #3
 8004220:	d0f7      	beq.n	8004212 <_scanf_float+0x1aa>
 8004222:	f1bb 0f05 	cmp.w	fp, #5
 8004226:	e7f2      	b.n	800420e <_scanf_float+0x1a6>
 8004228:	f1bb 0f02 	cmp.w	fp, #2
 800422c:	f47f af55 	bne.w	80040da <_scanf_float+0x72>
 8004230:	f04f 0b03 	mov.w	fp, #3
 8004234:	e7da      	b.n	80041ec <_scanf_float+0x184>
 8004236:	f1bb 0f06 	cmp.w	fp, #6
 800423a:	f47f af4e 	bne.w	80040da <_scanf_float+0x72>
 800423e:	f04f 0b07 	mov.w	fp, #7
 8004242:	e7d3      	b.n	80041ec <_scanf_float+0x184>
 8004244:	6821      	ldr	r1, [r4, #0]
 8004246:	0588      	lsls	r0, r1, #22
 8004248:	f57f af47 	bpl.w	80040da <_scanf_float+0x72>
 800424c:	f421 7120 	bic.w	r1, r1, #640	; 0x280
 8004250:	6021      	str	r1, [r4, #0]
 8004252:	f8cd 9008 	str.w	r9, [sp, #8]
 8004256:	e7c9      	b.n	80041ec <_scanf_float+0x184>
 8004258:	6821      	ldr	r1, [r4, #0]
 800425a:	f401 60a0 	and.w	r0, r1, #1280	; 0x500
 800425e:	f5b0 6f80 	cmp.w	r0, #1024	; 0x400
 8004262:	d006      	beq.n	8004272 <_scanf_float+0x20a>
 8004264:	0548      	lsls	r0, r1, #21
 8004266:	f57f af38 	bpl.w	80040da <_scanf_float+0x72>
 800426a:	f1b9 0f00 	cmp.w	r9, #0
 800426e:	f43f af3b 	beq.w	80040e8 <_scanf_float+0x80>
 8004272:	0588      	lsls	r0, r1, #22
 8004274:	bf58      	it	pl
 8004276:	9802      	ldrpl	r0, [sp, #8]
 8004278:	f421 61f0 	bic.w	r1, r1, #1920	; 0x780
 800427c:	bf58      	it	pl
 800427e:	eba9 0000 	subpl.w	r0, r9, r0
 8004282:	f441 71c0 	orr.w	r1, r1, #384	; 0x180
 8004286:	bf58      	it	pl
 8004288:	e9cd 0503 	strdpl	r0, r5, [sp, #12]
 800428c:	6021      	str	r1, [r4, #0]
 800428e:	f04f 0900 	mov.w	r9, #0
 8004292:	e7ab      	b.n	80041ec <_scanf_float+0x184>
 8004294:	2203      	movs	r2, #3
 8004296:	e7a9      	b.n	80041ec <_scanf_float+0x184>
 8004298:	f8d4 3180 	ldr.w	r3, [r4, #384]	; 0x180
 800429c:	4631      	mov	r1, r6
 800429e:	4638      	mov	r0, r7
 80042a0:	9205      	str	r2, [sp, #20]
 80042a2:	4798      	blx	r3
 80042a4:	9a05      	ldr	r2, [sp, #20]
 80042a6:	2800      	cmp	r0, #0
 80042a8:	f43f af04 	beq.w	80040b4 <_scanf_float+0x4c>
 80042ac:	e715      	b.n	80040da <_scanf_float+0x72>
 80042ae:	f8d4 317c 	ldr.w	r3, [r4, #380]	; 0x17c
 80042b2:	4632      	mov	r2, r6
 80042b4:	f815 1d01 	ldrb.w	r1, [r5, #-1]!
 80042b8:	4638      	mov	r0, r7
 80042ba:	4798      	blx	r3
 80042bc:	6923      	ldr	r3, [r4, #16]
 80042be:	3b01      	subs	r3, #1
 80042c0:	6123      	str	r3, [r4, #16]
 80042c2:	e715      	b.n	80040f0 <_scanf_float+0x88>
 80042c4:	f10b 33ff 	add.w	r3, fp, #4294967295	; 0xffffffff
 80042c8:	2b06      	cmp	r3, #6
 80042ca:	d80a      	bhi.n	80042e2 <_scanf_float+0x27a>
 80042cc:	f1bb 0f02 	cmp.w	fp, #2
 80042d0:	d967      	bls.n	80043a2 <_scanf_float+0x33a>
 80042d2:	f1ab 0b03 	sub.w	fp, fp, #3
 80042d6:	fa5f fb8b 	uxtb.w	fp, fp
 80042da:	eba5 0b0b 	sub.w	fp, r5, fp
 80042de:	455d      	cmp	r5, fp
 80042e0:	d14a      	bne.n	8004378 <_scanf_float+0x310>
 80042e2:	6823      	ldr	r3, [r4, #0]
 80042e4:	05da      	lsls	r2, r3, #23
 80042e6:	d51f      	bpl.n	8004328 <_scanf_float+0x2c0>
 80042e8:	055b      	lsls	r3, r3, #21
 80042ea:	d467      	bmi.n	80043bc <_scanf_float+0x354>
 80042ec:	f815 1c01 	ldrb.w	r1, [r5, #-1]
 80042f0:	6923      	ldr	r3, [r4, #16]
 80042f2:	2965      	cmp	r1, #101	; 0x65
 80042f4:	f103 33ff 	add.w	r3, r3, #4294967295	; 0xffffffff
 80042f8:	f105 3bff 	add.w	fp, r5, #4294967295	; 0xffffffff
 80042fc:	6123      	str	r3, [r4, #16]
 80042fe:	d00d      	beq.n	800431c <_scanf_float+0x2b4>
 8004300:	2945      	cmp	r1, #69	; 0x45
 8004302:	d00b      	beq.n	800431c <_scanf_float+0x2b4>
 8004304:	f8d4 317c 	ldr.w	r3, [r4, #380]	; 0x17c
 8004308:	4632      	mov	r2, r6
 800430a:	4638      	mov	r0, r7
 800430c:	4798      	blx	r3
 800430e:	6923      	ldr	r3, [r4, #16]
 8004310:	f815 1c02 	ldrb.w	r1, [r5, #-2]
 8004314:	3b01      	subs	r3, #1
 8004316:	f1a5 0b02 	sub.w	fp, r5, #2
 800431a:	6123      	str	r3, [r4, #16]
 800431c:	f8d4 317c 	ldr.w	r3, [r4, #380]	; 0x17c
 8004320:	4632      	mov	r2, r6
 8004322:	4638      	mov	r0, r7
 8004324:	4798      	blx	r3
 8004326:	465d      	mov	r5, fp
 8004328:	6826      	ldr	r6, [r4, #0]
 800432a:	f016 0610 	ands.w	r6, r6, #16
 800432e:	d176      	bne.n	800441e <_scanf_float+0x3b6>
 8004330:	702e      	strb	r6, [r5, #0]
 8004332:	6823      	ldr	r3, [r4, #0]
 8004334:	f403 63c0 	and.w	r3, r3, #1536	; 0x600
 8004338:	f5b3 6f80 	cmp.w	r3, #1024	; 0x400
 800433c:	d141      	bne.n	80043c2 <_scanf_float+0x35a>
 800433e:	9b02      	ldr	r3, [sp, #8]
 8004340:	eba9 0303 	sub.w	r3, r9, r3
 8004344:	425a      	negs	r2, r3
 8004346:	2b00      	cmp	r3, #0
 8004348:	d148      	bne.n	80043dc <_scanf_float+0x374>
 800434a:	4641      	mov	r1, r8
 800434c:	2200      	movs	r2, #0
 800434e:	4638      	mov	r0, r7
 8004350:	f000 ffda 	bl	8005308 <_strtod_r>
 8004354:	6825      	ldr	r5, [r4, #0]
 8004356:	4680      	mov	r8, r0
 8004358:	f015 0f02 	tst.w	r5, #2
 800435c:	4689      	mov	r9, r1
 800435e:	f8da 3000 	ldr.w	r3, [sl]
 8004362:	d046      	beq.n	80043f2 <_scanf_float+0x38a>
 8004364:	1d1a      	adds	r2, r3, #4
 8004366:	f8ca 2000 	str.w	r2, [sl]
 800436a:	681b      	ldr	r3, [r3, #0]
 800436c:	e9c3 8900 	strd	r8, r9, [r3]
 8004370:	68e3      	ldr	r3, [r4, #12]
 8004372:	3301      	adds	r3, #1
 8004374:	60e3      	str	r3, [r4, #12]
 8004376:	e6bf      	b.n	80040f8 <_scanf_float+0x90>
 8004378:	f8d4 317c 	ldr.w	r3, [r4, #380]	; 0x17c
 800437c:	4632      	mov	r2, r6
 800437e:	f815 1d01 	ldrb.w	r1, [r5, #-1]!
 8004382:	4638      	mov	r0, r7
 8004384:	4798      	blx	r3
 8004386:	6923      	ldr	r3, [r4, #16]
 8004388:	3b01      	subs	r3, #1
 800438a:	6123      	str	r3, [r4, #16]
 800438c:	e7a7      	b.n	80042de <_scanf_float+0x276>
 800438e:	f8d4 317c 	ldr.w	r3, [r4, #380]	; 0x17c
 8004392:	4632      	mov	r2, r6
 8004394:	f815 1d01 	ldrb.w	r1, [r5, #-1]!
 8004398:	4638      	mov	r0, r7
 800439a:	4798      	blx	r3
 800439c:	6923      	ldr	r3, [r4, #16]
 800439e:	3b01      	subs	r3, #1
 80043a0:	6123      	str	r3, [r4, #16]
 80043a2:	4545      	cmp	r5, r8
 80043a4:	d8f3      	bhi.n	800438e <_scanf_float+0x326>
 80043a6:	e6a6      	b.n	80040f6 <_scanf_float+0x8e>
 80043a8:	f8d4 317c 	ldr.w	r3, [r4, #380]	; 0x17c
 80043ac:	4632      	mov	r2, r6
 80043ae:	f815 1d01 	ldrb.w	r1, [r5, #-1]!
 80043b2:	4638      	mov	r0, r7
 80043b4:	4798      	blx	r3
 80043b6:	6923      	ldr	r3, [r4, #16]
 80043b8:	3b01      	subs	r3, #1
 80043ba:	6123      	str	r3, [r4, #16]
 80043bc:	4545      	cmp	r5, r8
 80043be:	d8f3      	bhi.n	80043a8 <_scanf_float+0x340>
 80043c0:	e699      	b.n	80040f6 <_scanf_float+0x8e>
 80043c2:	9b03      	ldr	r3, [sp, #12]
 80043c4:	2b00      	cmp	r3, #0
 80043c6:	d0c0      	beq.n	800434a <_scanf_float+0x2e2>
 80043c8:	9904      	ldr	r1, [sp, #16]
 80043ca:	230a      	movs	r3, #10
 80043cc:	4632      	mov	r2, r6
 80043ce:	3101      	adds	r1, #1
 80043d0:	4638      	mov	r0, r7
 80043d2:	f001 f837 	bl	8005444 <_strtol_r>
 80043d6:	9b03      	ldr	r3, [sp, #12]
 80043d8:	9d04      	ldr	r5, [sp, #16]
 80043da:	1ac2      	subs	r2, r0, r3
 80043dc:	f204 136f 	addw	r3, r4, #367	; 0x16f
 80043e0:	429d      	cmp	r5, r3
 80043e2:	bf28      	it	cs
 80043e4:	f504 75b7 	addcs.w	r5, r4, #366	; 0x16e
 80043e8:	490e      	ldr	r1, [pc, #56]	; (8004424 <_scanf_float+0x3bc>)
 80043ea:	4628      	mov	r0, r5
 80043ec:	f000 f94a 	bl	8004684 <siprintf>
 80043f0:	e7ab      	b.n	800434a <_scanf_float+0x2e2>
 80043f2:	1d1f      	adds	r7, r3, #4
 80043f4:	f015 0504 	ands.w	r5, r5, #4
 80043f8:	f8ca 7000 	str.w	r7, [sl]
 80043fc:	d1b5      	bne.n	800436a <_scanf_float+0x302>
 80043fe:	681f      	ldr	r7, [r3, #0]
 8004400:	4602      	mov	r2, r0
 8004402:	460b      	mov	r3, r1
 8004404:	f7fc fb02 	bl	8000a0c <__aeabi_dcmpun>
 8004408:	b120      	cbz	r0, 8004414 <_scanf_float+0x3ac>
 800440a:	4628      	mov	r0, r5
 800440c:	f000 f936 	bl	800467c <nanf>
 8004410:	6038      	str	r0, [r7, #0]
 8004412:	e7ad      	b.n	8004370 <_scanf_float+0x308>
 8004414:	4640      	mov	r0, r8
 8004416:	4649      	mov	r1, r9
 8004418:	f7fc fb56 	bl	8000ac8 <__aeabi_d2f>
 800441c:	e7f8      	b.n	8004410 <_scanf_float+0x3a8>
 800441e:	2600      	movs	r6, #0
 8004420:	e66a      	b.n	80040f8 <_scanf_float+0x90>
 8004422:	bf00      	nop
 8004424:	08007f88 	.word	0x08007f88

08004428 <iprintf>:
 8004428:	b40f      	push	{r0, r1, r2, r3}
 800442a:	4b0a      	ldr	r3, [pc, #40]	; (8004454 <iprintf+0x2c>)
 800442c:	b513      	push	{r0, r1, r4, lr}
 800442e:	681c      	ldr	r4, [r3, #0]
 8004430:	b124      	cbz	r4, 800443c <iprintf+0x14>
 8004432:	69a3      	ldr	r3, [r4, #24]
 8004434:	b913      	cbnz	r3, 800443c <iprintf+0x14>
 8004436:	4620      	mov	r0, r4
 8004438:	f002 f80a 	bl	8006450 <__sinit>
 800443c:	ab05      	add	r3, sp, #20
 800443e:	9a04      	ldr	r2, [sp, #16]
 8004440:	68a1      	ldr	r1, [r4, #8]
 8004442:	4620      	mov	r0, r4
 8004444:	9301      	str	r3, [sp, #4]
 8004446:	f003 fa87 	bl	8007958 <_vfiprintf_r>
 800444a:	b002      	add	sp, #8
 800444c:	e8bd 4010 	ldmia.w	sp!, {r4, lr}
 8004450:	b004      	add	sp, #16
 8004452:	4770      	bx	lr
 8004454:	20000024 	.word	0x20000024

08004458 <_puts_r>:
 8004458:	b570      	push	{r4, r5, r6, lr}
 800445a:	460e      	mov	r6, r1
 800445c:	4605      	mov	r5, r0
 800445e:	b118      	cbz	r0, 8004468 <_puts_r+0x10>
 8004460:	6983      	ldr	r3, [r0, #24]
 8004462:	b90b      	cbnz	r3, 8004468 <_puts_r+0x10>
 8004464:	f001 fff4 	bl	8006450 <__sinit>
 8004468:	69ab      	ldr	r3, [r5, #24]
 800446a:	68ac      	ldr	r4, [r5, #8]
 800446c:	b913      	cbnz	r3, 8004474 <_puts_r+0x1c>
 800446e:	4628      	mov	r0, r5
 8004470:	f001 ffee 	bl	8006450 <__sinit>
 8004474:	4b23      	ldr	r3, [pc, #140]	; (8004504 <_puts_r+0xac>)
 8004476:	429c      	cmp	r4, r3
 8004478:	d117      	bne.n	80044aa <_puts_r+0x52>
 800447a:	686c      	ldr	r4, [r5, #4]
 800447c:	89a3      	ldrh	r3, [r4, #12]
 800447e:	071b      	lsls	r3, r3, #28
 8004480:	d51d      	bpl.n	80044be <_puts_r+0x66>
 8004482:	6923      	ldr	r3, [r4, #16]
 8004484:	b1db      	cbz	r3, 80044be <_puts_r+0x66>
 8004486:	3e01      	subs	r6, #1
 8004488:	68a3      	ldr	r3, [r4, #8]
 800448a:	f816 1f01 	ldrb.w	r1, [r6, #1]!
 800448e:	3b01      	subs	r3, #1
 8004490:	60a3      	str	r3, [r4, #8]
 8004492:	b9e9      	cbnz	r1, 80044d0 <_puts_r+0x78>
 8004494:	2b00      	cmp	r3, #0
 8004496:	da2e      	bge.n	80044f6 <_puts_r+0x9e>
 8004498:	4622      	mov	r2, r4
 800449a:	210a      	movs	r1, #10
 800449c:	4628      	mov	r0, r5
 800449e:	f000 ffe3 	bl	8005468 <__swbuf_r>
 80044a2:	3001      	adds	r0, #1
 80044a4:	d011      	beq.n	80044ca <_puts_r+0x72>
 80044a6:	200a      	movs	r0, #10
 80044a8:	e011      	b.n	80044ce <_puts_r+0x76>
 80044aa:	4b17      	ldr	r3, [pc, #92]	; (8004508 <_puts_r+0xb0>)
 80044ac:	429c      	cmp	r4, r3
 80044ae:	d101      	bne.n	80044b4 <_puts_r+0x5c>
 80044b0:	68ac      	ldr	r4, [r5, #8]
 80044b2:	e7e3      	b.n	800447c <_puts_r+0x24>
 80044b4:	4b15      	ldr	r3, [pc, #84]	; (800450c <_puts_r+0xb4>)
 80044b6:	429c      	cmp	r4, r3
 80044b8:	bf08      	it	eq
 80044ba:	68ec      	ldreq	r4, [r5, #12]
 80044bc:	e7de      	b.n	800447c <_puts_r+0x24>
 80044be:	4621      	mov	r1, r4
 80044c0:	4628      	mov	r0, r5
 80044c2:	f001 f823 	bl	800550c <__swsetup_r>
 80044c6:	2800      	cmp	r0, #0
 80044c8:	d0dd      	beq.n	8004486 <_puts_r+0x2e>
 80044ca:	f04f 30ff 	mov.w	r0, #4294967295	; 0xffffffff
 80044ce:	bd70      	pop	{r4, r5, r6, pc}
 80044d0:	2b00      	cmp	r3, #0
 80044d2:	da04      	bge.n	80044de <_puts_r+0x86>
 80044d4:	69a2      	ldr	r2, [r4, #24]
 80044d6:	429a      	cmp	r2, r3
 80044d8:	dc06      	bgt.n	80044e8 <_puts_r+0x90>
 80044da:	290a      	cmp	r1, #10
 80044dc:	d004      	beq.n	80044e8 <_puts_r+0x90>
 80044de:	6823      	ldr	r3, [r4, #0]
 80044e0:	1c5a      	adds	r2, r3, #1
 80044e2:	6022      	str	r2, [r4, #0]
 80044e4:	7019      	strb	r1, [r3, #0]
 80044e6:	e7cf      	b.n	8004488 <_puts_r+0x30>
 80044e8:	4622      	mov	r2, r4
 80044ea:	4628      	mov	r0, r5
 80044ec:	f000 ffbc 	bl	8005468 <__swbuf_r>
 80044f0:	3001      	adds	r0, #1
 80044f2:	d1c9      	bne.n	8004488 <_puts_r+0x30>
 80044f4:	e7e9      	b.n	80044ca <_puts_r+0x72>
 80044f6:	200a      	movs	r0, #10
 80044f8:	6823      	ldr	r3, [r4, #0]
 80044fa:	1c5a      	adds	r2, r3, #1
 80044fc:	6022      	str	r2, [r4, #0]
 80044fe:	7018      	strb	r0, [r3, #0]
 8004500:	e7e5      	b.n	80044ce <_puts_r+0x76>
 8004502:	bf00      	nop
 8004504:	08008010 	.word	0x08008010
 8004508:	08008030 	.word	0x08008030
 800450c:	08007ff0 	.word	0x08007ff0

08004510 <puts>:
 8004510:	4b02      	ldr	r3, [pc, #8]	; (800451c <puts+0xc>)
 8004512:	4601      	mov	r1, r0
 8004514:	6818      	ldr	r0, [r3, #0]
 8004516:	f7ff bf9f 	b.w	8004458 <_puts_r>
 800451a:	bf00      	nop
 800451c:	20000024 	.word	0x20000024

08004520 <setvbuf>:
 8004520:	e92d 43f7 	stmdb	sp!, {r0, r1, r2, r4, r5, r6, r7, r8, r9, lr}
 8004524:	461d      	mov	r5, r3
 8004526:	4b51      	ldr	r3, [pc, #324]	; (800466c <setvbuf+0x14c>)
 8004528:	4604      	mov	r4, r0
 800452a:	681e      	ldr	r6, [r3, #0]
 800452c:	460f      	mov	r7, r1
 800452e:	4690      	mov	r8, r2
 8004530:	b126      	cbz	r6, 800453c <setvbuf+0x1c>
 8004532:	69b3      	ldr	r3, [r6, #24]
 8004534:	b913      	cbnz	r3, 800453c <setvbuf+0x1c>
 8004536:	4630      	mov	r0, r6
 8004538:	f001 ff8a 	bl	8006450 <__sinit>
 800453c:	4b4c      	ldr	r3, [pc, #304]	; (8004670 <setvbuf+0x150>)
 800453e:	429c      	cmp	r4, r3
 8004540:	d152      	bne.n	80045e8 <setvbuf+0xc8>
 8004542:	6874      	ldr	r4, [r6, #4]
 8004544:	f1b8 0f02 	cmp.w	r8, #2
 8004548:	d006      	beq.n	8004558 <setvbuf+0x38>
 800454a:	f1b8 0f01 	cmp.w	r8, #1
 800454e:	f200 8089 	bhi.w	8004664 <setvbuf+0x144>
 8004552:	2d00      	cmp	r5, #0
 8004554:	f2c0 8086 	blt.w	8004664 <setvbuf+0x144>
 8004558:	4621      	mov	r1, r4
 800455a:	4630      	mov	r0, r6
 800455c:	f001 ff0e 	bl	800637c <_fflush_r>
 8004560:	6b61      	ldr	r1, [r4, #52]	; 0x34
 8004562:	b141      	cbz	r1, 8004576 <setvbuf+0x56>
 8004564:	f104 0344 	add.w	r3, r4, #68	; 0x44
 8004568:	4299      	cmp	r1, r3
 800456a:	d002      	beq.n	8004572 <setvbuf+0x52>
 800456c:	4630      	mov	r0, r6
 800456e:	f002 ffd3 	bl	8007518 <_free_r>
 8004572:	2300      	movs	r3, #0
 8004574:	6363      	str	r3, [r4, #52]	; 0x34
 8004576:	2300      	movs	r3, #0
 8004578:	61a3      	str	r3, [r4, #24]
 800457a:	6063      	str	r3, [r4, #4]
 800457c:	89a3      	ldrh	r3, [r4, #12]
 800457e:	061b      	lsls	r3, r3, #24
 8004580:	d503      	bpl.n	800458a <setvbuf+0x6a>
 8004582:	6921      	ldr	r1, [r4, #16]
 8004584:	4630      	mov	r0, r6
 8004586:	f002 ffc7 	bl	8007518 <_free_r>
 800458a:	89a3      	ldrh	r3, [r4, #12]
 800458c:	f1b8 0f02 	cmp.w	r8, #2
 8004590:	f423 634a 	bic.w	r3, r3, #3232	; 0xca0
 8004594:	f023 0303 	bic.w	r3, r3, #3
 8004598:	81a3      	strh	r3, [r4, #12]
 800459a:	d05d      	beq.n	8004658 <setvbuf+0x138>
 800459c:	ab01      	add	r3, sp, #4
 800459e:	466a      	mov	r2, sp
 80045a0:	4621      	mov	r1, r4
 80045a2:	4630      	mov	r0, r6
 80045a4:	f002 fb1a 	bl	8006bdc <__swhatbuf_r>
 80045a8:	89a3      	ldrh	r3, [r4, #12]
 80045aa:	4318      	orrs	r0, r3
 80045ac:	81a0      	strh	r0, [r4, #12]
 80045ae:	bb2d      	cbnz	r5, 80045fc <setvbuf+0xdc>
 80045b0:	9d00      	ldr	r5, [sp, #0]
 80045b2:	4628      	mov	r0, r5
 80045b4:	f002 fb76 	bl	8006ca4 <malloc>
 80045b8:	4607      	mov	r7, r0
 80045ba:	2800      	cmp	r0, #0
 80045bc:	d14e      	bne.n	800465c <setvbuf+0x13c>
 80045be:	f8dd 9000 	ldr.w	r9, [sp]
 80045c2:	45a9      	cmp	r9, r5
 80045c4:	d13c      	bne.n	8004640 <setvbuf+0x120>
 80045c6:	f04f 30ff 	mov.w	r0, #4294967295	; 0xffffffff
 80045ca:	89a3      	ldrh	r3, [r4, #12]
 80045cc:	f043 0302 	orr.w	r3, r3, #2
 80045d0:	81a3      	strh	r3, [r4, #12]
 80045d2:	2300      	movs	r3, #0
 80045d4:	60a3      	str	r3, [r4, #8]
 80045d6:	f104 0347 	add.w	r3, r4, #71	; 0x47
 80045da:	6023      	str	r3, [r4, #0]
 80045dc:	6123      	str	r3, [r4, #16]
 80045de:	2301      	movs	r3, #1
 80045e0:	6163      	str	r3, [r4, #20]
 80045e2:	b003      	add	sp, #12
 80045e4:	e8bd 83f0 	ldmia.w	sp!, {r4, r5, r6, r7, r8, r9, pc}
 80045e8:	4b22      	ldr	r3, [pc, #136]	; (8004674 <setvbuf+0x154>)
 80045ea:	429c      	cmp	r4, r3
 80045ec:	d101      	bne.n	80045f2 <setvbuf+0xd2>
 80045ee:	68b4      	ldr	r4, [r6, #8]
 80045f0:	e7a8      	b.n	8004544 <setvbuf+0x24>
 80045f2:	4b21      	ldr	r3, [pc, #132]	; (8004678 <setvbuf+0x158>)
 80045f4:	429c      	cmp	r4, r3
 80045f6:	bf08      	it	eq
 80045f8:	68f4      	ldreq	r4, [r6, #12]
 80045fa:	e7a3      	b.n	8004544 <setvbuf+0x24>
 80045fc:	2f00      	cmp	r7, #0
 80045fe:	d0d8      	beq.n	80045b2 <setvbuf+0x92>
 8004600:	69b3      	ldr	r3, [r6, #24]
 8004602:	b913      	cbnz	r3, 800460a <setvbuf+0xea>
 8004604:	4630      	mov	r0, r6
 8004606:	f001 ff23 	bl	8006450 <__sinit>
 800460a:	f1b8 0f01 	cmp.w	r8, #1
 800460e:	bf08      	it	eq
 8004610:	89a3      	ldrheq	r3, [r4, #12]
 8004612:	6027      	str	r7, [r4, #0]
 8004614:	bf04      	itt	eq
 8004616:	f043 0301 	orreq.w	r3, r3, #1
 800461a:	81a3      	strheq	r3, [r4, #12]
 800461c:	89a3      	ldrh	r3, [r4, #12]
 800461e:	e9c4 7504 	strd	r7, r5, [r4, #16]
 8004622:	f013 0008 	ands.w	r0, r3, #8
 8004626:	d01b      	beq.n	8004660 <setvbuf+0x140>
 8004628:	f013 0001 	ands.w	r0, r3, #1
 800462c:	f04f 0300 	mov.w	r3, #0
 8004630:	bf1f      	itttt	ne
 8004632:	426d      	negne	r5, r5
 8004634:	60a3      	strne	r3, [r4, #8]
 8004636:	61a5      	strne	r5, [r4, #24]
 8004638:	4618      	movne	r0, r3
 800463a:	bf08      	it	eq
 800463c:	60a5      	streq	r5, [r4, #8]
 800463e:	e7d0      	b.n	80045e2 <setvbuf+0xc2>
 8004640:	4648      	mov	r0, r9
 8004642:	f002 fb2f 	bl	8006ca4 <malloc>
 8004646:	4607      	mov	r7, r0
 8004648:	2800      	cmp	r0, #0
 800464a:	d0bc      	beq.n	80045c6 <setvbuf+0xa6>
 800464c:	89a3      	ldrh	r3, [r4, #12]
 800464e:	464d      	mov	r5, r9
 8004650:	f043 0380 	orr.w	r3, r3, #128	; 0x80
 8004654:	81a3      	strh	r3, [r4, #12]
 8004656:	e7d3      	b.n	8004600 <setvbuf+0xe0>
 8004658:	2000      	movs	r0, #0
 800465a:	e7b6      	b.n	80045ca <setvbuf+0xaa>
 800465c:	46a9      	mov	r9, r5
 800465e:	e7f5      	b.n	800464c <setvbuf+0x12c>
 8004660:	60a0      	str	r0, [r4, #8]
 8004662:	e7be      	b.n	80045e2 <setvbuf+0xc2>
 8004664:	f04f 30ff 	mov.w	r0, #4294967295	; 0xffffffff
 8004668:	e7bb      	b.n	80045e2 <setvbuf+0xc2>
 800466a:	bf00      	nop
 800466c:	20000024 	.word	0x20000024
 8004670:	08008010 	.word	0x08008010
 8004674:	08008030 	.word	0x08008030
 8004678:	08007ff0 	.word	0x08007ff0

0800467c <nanf>:
 800467c:	4800      	ldr	r0, [pc, #0]	; (8004680 <nanf+0x4>)
 800467e:	4770      	bx	lr
 8004680:	7fc00000 	.word	0x7fc00000

08004684 <siprintf>:
 8004684:	b40e      	push	{r1, r2, r3}
 8004686:	f06f 4100 	mvn.w	r1, #2147483648	; 0x80000000
 800468a:	b500      	push	{lr}
 800468c:	b09c      	sub	sp, #112	; 0x70
 800468e:	ab1d      	add	r3, sp, #116	; 0x74
 8004690:	9002      	str	r0, [sp, #8]
 8004692:	9006      	str	r0, [sp, #24]
 8004694:	9107      	str	r1, [sp, #28]
 8004696:	9104      	str	r1, [sp, #16]
 8004698:	4808      	ldr	r0, [pc, #32]	; (80046bc <siprintf+0x38>)
 800469a:	4909      	ldr	r1, [pc, #36]	; (80046c0 <siprintf+0x3c>)
 800469c:	f853 2b04 	ldr.w	r2, [r3], #4
 80046a0:	9105      	str	r1, [sp, #20]
 80046a2:	6800      	ldr	r0, [r0, #0]
 80046a4:	a902      	add	r1, sp, #8
 80046a6:	9301      	str	r3, [sp, #4]
 80046a8:	f003 f836 	bl	8007718 <_svfiprintf_r>
 80046ac:	2200      	movs	r2, #0
 80046ae:	9b02      	ldr	r3, [sp, #8]
 80046b0:	701a      	strb	r2, [r3, #0]
 80046b2:	b01c      	add	sp, #112	; 0x70
 80046b4:	f85d eb04 	ldr.w	lr, [sp], #4
 80046b8:	b003      	add	sp, #12
 80046ba:	4770      	bx	lr
 80046bc:	20000024 	.word	0x20000024
 80046c0:	ffff0208 	.word	0xffff0208

080046c4 <sulp>:
 80046c4:	e92d 41f0 	stmdb	sp!, {r4, r5, r6, r7, r8, lr}
 80046c8:	460f      	mov	r7, r1
 80046ca:	4690      	mov	r8, r2
 80046cc:	f002 fde8 	bl	80072a0 <__ulp>
 80046d0:	4604      	mov	r4, r0
 80046d2:	460d      	mov	r5, r1
 80046d4:	f1b8 0f00 	cmp.w	r8, #0
 80046d8:	d011      	beq.n	80046fe <sulp+0x3a>
 80046da:	f3c7 530a 	ubfx	r3, r7, #20, #11
 80046de:	f1c3 036b 	rsb	r3, r3, #107	; 0x6b
 80046e2:	2b00      	cmp	r3, #0
 80046e4:	dd0b      	ble.n	80046fe <sulp+0x3a>
 80046e6:	2400      	movs	r4, #0
 80046e8:	051b      	lsls	r3, r3, #20
 80046ea:	f103 557f 	add.w	r5, r3, #1069547520	; 0x3fc00000
 80046ee:	f505 1540 	add.w	r5, r5, #3145728	; 0x300000
 80046f2:	4622      	mov	r2, r4
 80046f4:	462b      	mov	r3, r5
 80046f6:	f7fb feef 	bl	80004d8 <__aeabi_dmul>
 80046fa:	4604      	mov	r4, r0
 80046fc:	460d      	mov	r5, r1
 80046fe:	4620      	mov	r0, r4
 8004700:	4629      	mov	r1, r5
 8004702:	e8bd 81f0 	ldmia.w	sp!, {r4, r5, r6, r7, r8, pc}
	...

08004708 <_strtod_l>:
 8004708:	e92d 4ff0 	stmdb	sp!, {r4, r5, r6, r7, r8, r9, sl, fp, lr}
 800470c:	461f      	mov	r7, r3
 800470e:	2300      	movs	r3, #0
 8004710:	b0a1      	sub	sp, #132	; 0x84
 8004712:	4683      	mov	fp, r0
 8004714:	4638      	mov	r0, r7
 8004716:	460e      	mov	r6, r1
 8004718:	9217      	str	r2, [sp, #92]	; 0x5c
 800471a:	931c      	str	r3, [sp, #112]	; 0x70
 800471c:	f002 fa4d 	bl	8006bba <__localeconv_l>
 8004720:	4680      	mov	r8, r0
 8004722:	6800      	ldr	r0, [r0, #0]
 8004724:	f7fb fd14 	bl	8000150 <strlen>
 8004728:	f04f 0900 	mov.w	r9, #0
 800472c:	4604      	mov	r4, r0
 800472e:	f04f 0a00 	mov.w	sl, #0
 8004732:	961b      	str	r6, [sp, #108]	; 0x6c
 8004734:	9b1b      	ldr	r3, [sp, #108]	; 0x6c
 8004736:	781a      	ldrb	r2, [r3, #0]
 8004738:	2a0d      	cmp	r2, #13
 800473a:	d832      	bhi.n	80047a2 <_strtod_l+0x9a>
 800473c:	2a09      	cmp	r2, #9
 800473e:	d236      	bcs.n	80047ae <_strtod_l+0xa6>
 8004740:	2a00      	cmp	r2, #0
 8004742:	d03e      	beq.n	80047c2 <_strtod_l+0xba>
 8004744:	2300      	movs	r3, #0
 8004746:	930d      	str	r3, [sp, #52]	; 0x34
 8004748:	9d1b      	ldr	r5, [sp, #108]	; 0x6c
 800474a:	782b      	ldrb	r3, [r5, #0]
 800474c:	2b30      	cmp	r3, #48	; 0x30
 800474e:	f040 80ac 	bne.w	80048aa <_strtod_l+0x1a2>
 8004752:	786b      	ldrb	r3, [r5, #1]
 8004754:	2b58      	cmp	r3, #88	; 0x58
 8004756:	d001      	beq.n	800475c <_strtod_l+0x54>
 8004758:	2b78      	cmp	r3, #120	; 0x78
 800475a:	d167      	bne.n	800482c <_strtod_l+0x124>
 800475c:	9b0d      	ldr	r3, [sp, #52]	; 0x34
 800475e:	9702      	str	r7, [sp, #8]
 8004760:	9301      	str	r3, [sp, #4]
 8004762:	ab1c      	add	r3, sp, #112	; 0x70
 8004764:	9300      	str	r3, [sp, #0]
 8004766:	4a89      	ldr	r2, [pc, #548]	; (800498c <_strtod_l+0x284>)
 8004768:	ab1d      	add	r3, sp, #116	; 0x74
 800476a:	a91b      	add	r1, sp, #108	; 0x6c
 800476c:	4658      	mov	r0, fp
 800476e:	f001 ff49 	bl	8006604 <__gethex>
 8004772:	f010 0407 	ands.w	r4, r0, #7
 8004776:	4606      	mov	r6, r0
 8004778:	d005      	beq.n	8004786 <_strtod_l+0x7e>
 800477a:	2c06      	cmp	r4, #6
 800477c:	d12b      	bne.n	80047d6 <_strtod_l+0xce>
 800477e:	2300      	movs	r3, #0
 8004780:	3501      	adds	r5, #1
 8004782:	951b      	str	r5, [sp, #108]	; 0x6c
 8004784:	930d      	str	r3, [sp, #52]	; 0x34
 8004786:	9b17      	ldr	r3, [sp, #92]	; 0x5c
 8004788:	2b00      	cmp	r3, #0
 800478a:	f040 85a6 	bne.w	80052da <_strtod_l+0xbd2>
 800478e:	9b0d      	ldr	r3, [sp, #52]	; 0x34
 8004790:	b1e3      	cbz	r3, 80047cc <_strtod_l+0xc4>
 8004792:	464a      	mov	r2, r9
 8004794:	f10a 4300 	add.w	r3, sl, #2147483648	; 0x80000000
 8004798:	4610      	mov	r0, r2
 800479a:	4619      	mov	r1, r3
 800479c:	b021      	add	sp, #132	; 0x84
 800479e:	e8bd 8ff0 	ldmia.w	sp!, {r4, r5, r6, r7, r8, r9, sl, fp, pc}
 80047a2:	2a2b      	cmp	r2, #43	; 0x2b
 80047a4:	d015      	beq.n	80047d2 <_strtod_l+0xca>
 80047a6:	2a2d      	cmp	r2, #45	; 0x2d
 80047a8:	d004      	beq.n	80047b4 <_strtod_l+0xac>
 80047aa:	2a20      	cmp	r2, #32
 80047ac:	d1ca      	bne.n	8004744 <_strtod_l+0x3c>
 80047ae:	3301      	adds	r3, #1
 80047b0:	931b      	str	r3, [sp, #108]	; 0x6c
 80047b2:	e7bf      	b.n	8004734 <_strtod_l+0x2c>
 80047b4:	2201      	movs	r2, #1
 80047b6:	920d      	str	r2, [sp, #52]	; 0x34
 80047b8:	1c5a      	adds	r2, r3, #1
 80047ba:	921b      	str	r2, [sp, #108]	; 0x6c
 80047bc:	785b      	ldrb	r3, [r3, #1]
 80047be:	2b00      	cmp	r3, #0
 80047c0:	d1c2      	bne.n	8004748 <_strtod_l+0x40>
 80047c2:	9b17      	ldr	r3, [sp, #92]	; 0x5c
 80047c4:	961b      	str	r6, [sp, #108]	; 0x6c
 80047c6:	2b00      	cmp	r3, #0
 80047c8:	f040 8585 	bne.w	80052d6 <_strtod_l+0xbce>
 80047cc:	464a      	mov	r2, r9
 80047ce:	4653      	mov	r3, sl
 80047d0:	e7e2      	b.n	8004798 <_strtod_l+0x90>
 80047d2:	2200      	movs	r2, #0
 80047d4:	e7ef      	b.n	80047b6 <_strtod_l+0xae>
 80047d6:	9a1c      	ldr	r2, [sp, #112]	; 0x70
 80047d8:	b13a      	cbz	r2, 80047ea <_strtod_l+0xe2>
 80047da:	2135      	movs	r1, #53	; 0x35
 80047dc:	a81e      	add	r0, sp, #120	; 0x78
 80047de:	f002 fe52 	bl	8007486 <__copybits>
 80047e2:	991c      	ldr	r1, [sp, #112]	; 0x70
 80047e4:	4658      	mov	r0, fp
 80047e6:	f002 fac4 	bl	8006d72 <_Bfree>
 80047ea:	3c01      	subs	r4, #1
 80047ec:	2c04      	cmp	r4, #4
 80047ee:	d806      	bhi.n	80047fe <_strtod_l+0xf6>
 80047f0:	e8df f004 	tbb	[pc, r4]
 80047f4:	1714030a 	.word	0x1714030a
 80047f8:	0a          	.byte	0x0a
 80047f9:	00          	.byte	0x00
 80047fa:	e9dd 9a1e 	ldrd	r9, sl, [sp, #120]	; 0x78
 80047fe:	0731      	lsls	r1, r6, #28
 8004800:	d5c1      	bpl.n	8004786 <_strtod_l+0x7e>
 8004802:	f04a 4a00 	orr.w	sl, sl, #2147483648	; 0x80000000
 8004806:	e7be      	b.n	8004786 <_strtod_l+0x7e>
 8004808:	9a1d      	ldr	r2, [sp, #116]	; 0x74
 800480a:	e9dd 931e 	ldrd	r9, r3, [sp, #120]	; 0x78
 800480e:	f202 4233 	addw	r2, r2, #1075	; 0x433
 8004812:	f423 1380 	bic.w	r3, r3, #1048576	; 0x100000
 8004816:	ea43 5a02 	orr.w	sl, r3, r2, lsl #20
 800481a:	e7f0      	b.n	80047fe <_strtod_l+0xf6>
 800481c:	f8df a170 	ldr.w	sl, [pc, #368]	; 8004990 <_strtod_l+0x288>
 8004820:	e7ed      	b.n	80047fe <_strtod_l+0xf6>
 8004822:	f06f 4a00 	mvn.w	sl, #2147483648	; 0x80000000
 8004826:	f04f 39ff 	mov.w	r9, #4294967295	; 0xffffffff
 800482a:	e7e8      	b.n	80047fe <_strtod_l+0xf6>
 800482c:	9b1b      	ldr	r3, [sp, #108]	; 0x6c
 800482e:	1c5a      	adds	r2, r3, #1
 8004830:	921b      	str	r2, [sp, #108]	; 0x6c
 8004832:	785b      	ldrb	r3, [r3, #1]
 8004834:	2b30      	cmp	r3, #48	; 0x30
 8004836:	d0f9      	beq.n	800482c <_strtod_l+0x124>
 8004838:	2b00      	cmp	r3, #0
 800483a:	d0a4      	beq.n	8004786 <_strtod_l+0x7e>
 800483c:	2301      	movs	r3, #1
 800483e:	2500      	movs	r5, #0
 8004840:	220a      	movs	r2, #10
 8004842:	9307      	str	r3, [sp, #28]
 8004844:	9b1b      	ldr	r3, [sp, #108]	; 0x6c
 8004846:	9506      	str	r5, [sp, #24]
 8004848:	9308      	str	r3, [sp, #32]
 800484a:	9504      	str	r5, [sp, #16]
 800484c:	981b      	ldr	r0, [sp, #108]	; 0x6c
 800484e:	7807      	ldrb	r7, [r0, #0]
 8004850:	f1a7 0330 	sub.w	r3, r7, #48	; 0x30
 8004854:	b2d9      	uxtb	r1, r3
 8004856:	2909      	cmp	r1, #9
 8004858:	d929      	bls.n	80048ae <_strtod_l+0x1a6>
 800485a:	4622      	mov	r2, r4
 800485c:	f8d8 1000 	ldr.w	r1, [r8]
 8004860:	f003 f9e3 	bl	8007c2a <strncmp>
 8004864:	2800      	cmp	r0, #0
 8004866:	d031      	beq.n	80048cc <_strtod_l+0x1c4>
 8004868:	2000      	movs	r0, #0
 800486a:	463b      	mov	r3, r7
 800486c:	4602      	mov	r2, r0
 800486e:	9c04      	ldr	r4, [sp, #16]
 8004870:	9005      	str	r0, [sp, #20]
 8004872:	2b65      	cmp	r3, #101	; 0x65
 8004874:	d001      	beq.n	800487a <_strtod_l+0x172>
 8004876:	2b45      	cmp	r3, #69	; 0x45
 8004878:	d114      	bne.n	80048a4 <_strtod_l+0x19c>
 800487a:	b924      	cbnz	r4, 8004886 <_strtod_l+0x17e>
 800487c:	b910      	cbnz	r0, 8004884 <_strtod_l+0x17c>
 800487e:	9b07      	ldr	r3, [sp, #28]
 8004880:	2b00      	cmp	r3, #0
 8004882:	d09e      	beq.n	80047c2 <_strtod_l+0xba>
 8004884:	2400      	movs	r4, #0
 8004886:	9e1b      	ldr	r6, [sp, #108]	; 0x6c
 8004888:	1c73      	adds	r3, r6, #1
 800488a:	931b      	str	r3, [sp, #108]	; 0x6c
 800488c:	7873      	ldrb	r3, [r6, #1]
 800488e:	2b2b      	cmp	r3, #43	; 0x2b
 8004890:	d078      	beq.n	8004984 <_strtod_l+0x27c>
 8004892:	2b2d      	cmp	r3, #45	; 0x2d
 8004894:	d070      	beq.n	8004978 <_strtod_l+0x270>
 8004896:	f04f 0c00 	mov.w	ip, #0
 800489a:	f1a3 0730 	sub.w	r7, r3, #48	; 0x30
 800489e:	2f09      	cmp	r7, #9
 80048a0:	d97c      	bls.n	800499c <_strtod_l+0x294>
 80048a2:	961b      	str	r6, [sp, #108]	; 0x6c
 80048a4:	f04f 0e00 	mov.w	lr, #0
 80048a8:	e09a      	b.n	80049e0 <_strtod_l+0x2d8>
 80048aa:	2300      	movs	r3, #0
 80048ac:	e7c7      	b.n	800483e <_strtod_l+0x136>
 80048ae:	9904      	ldr	r1, [sp, #16]
 80048b0:	3001      	adds	r0, #1
 80048b2:	2908      	cmp	r1, #8
 80048b4:	bfd7      	itett	le
 80048b6:	9906      	ldrle	r1, [sp, #24]
 80048b8:	fb02 3505 	mlagt	r5, r2, r5, r3
 80048bc:	fb02 3301 	mlale	r3, r2, r1, r3
 80048c0:	9306      	strle	r3, [sp, #24]
 80048c2:	9b04      	ldr	r3, [sp, #16]
 80048c4:	901b      	str	r0, [sp, #108]	; 0x6c
 80048c6:	3301      	adds	r3, #1
 80048c8:	9304      	str	r3, [sp, #16]
 80048ca:	e7bf      	b.n	800484c <_strtod_l+0x144>
 80048cc:	9b1b      	ldr	r3, [sp, #108]	; 0x6c
 80048ce:	191a      	adds	r2, r3, r4
 80048d0:	921b      	str	r2, [sp, #108]	; 0x6c
 80048d2:	9a04      	ldr	r2, [sp, #16]
 80048d4:	5d1b      	ldrb	r3, [r3, r4]
 80048d6:	2a00      	cmp	r2, #0
 80048d8:	d037      	beq.n	800494a <_strtod_l+0x242>
 80048da:	4602      	mov	r2, r0
 80048dc:	9c04      	ldr	r4, [sp, #16]
 80048de:	f1a3 0130 	sub.w	r1, r3, #48	; 0x30
 80048e2:	2909      	cmp	r1, #9
 80048e4:	d913      	bls.n	800490e <_strtod_l+0x206>
 80048e6:	2101      	movs	r1, #1
 80048e8:	9105      	str	r1, [sp, #20]
 80048ea:	e7c2      	b.n	8004872 <_strtod_l+0x16a>
 80048ec:	9b1b      	ldr	r3, [sp, #108]	; 0x6c
 80048ee:	3001      	adds	r0, #1
 80048f0:	1c5a      	adds	r2, r3, #1
 80048f2:	921b      	str	r2, [sp, #108]	; 0x6c
 80048f4:	785b      	ldrb	r3, [r3, #1]
 80048f6:	2b30      	cmp	r3, #48	; 0x30
 80048f8:	d0f8      	beq.n	80048ec <_strtod_l+0x1e4>
 80048fa:	f1a3 0231 	sub.w	r2, r3, #49	; 0x31
 80048fe:	2a08      	cmp	r2, #8
 8004900:	f200 84f0 	bhi.w	80052e4 <_strtod_l+0xbdc>
 8004904:	9a1b      	ldr	r2, [sp, #108]	; 0x6c
 8004906:	9208      	str	r2, [sp, #32]
 8004908:	4602      	mov	r2, r0
 800490a:	2000      	movs	r0, #0
 800490c:	4604      	mov	r4, r0
 800490e:	f1b3 0e30 	subs.w	lr, r3, #48	; 0x30
 8004912:	f100 0101 	add.w	r1, r0, #1
 8004916:	d012      	beq.n	800493e <_strtod_l+0x236>
 8004918:	440a      	add	r2, r1
 800491a:	270a      	movs	r7, #10
 800491c:	4621      	mov	r1, r4
 800491e:	eb00 0c04 	add.w	ip, r0, r4
 8004922:	458c      	cmp	ip, r1
 8004924:	d113      	bne.n	800494e <_strtod_l+0x246>
 8004926:	1821      	adds	r1, r4, r0
 8004928:	2908      	cmp	r1, #8
 800492a:	f104 0401 	add.w	r4, r4, #1
 800492e:	4404      	add	r4, r0
 8004930:	dc19      	bgt.n	8004966 <_strtod_l+0x25e>
 8004932:	210a      	movs	r1, #10
 8004934:	9b06      	ldr	r3, [sp, #24]
 8004936:	fb01 e303 	mla	r3, r1, r3, lr
 800493a:	9306      	str	r3, [sp, #24]
 800493c:	2100      	movs	r1, #0
 800493e:	9b1b      	ldr	r3, [sp, #108]	; 0x6c
 8004940:	1c58      	adds	r0, r3, #1
 8004942:	901b      	str	r0, [sp, #108]	; 0x6c
 8004944:	785b      	ldrb	r3, [r3, #1]
 8004946:	4608      	mov	r0, r1
 8004948:	e7c9      	b.n	80048de <_strtod_l+0x1d6>
 800494a:	9804      	ldr	r0, [sp, #16]
 800494c:	e7d3      	b.n	80048f6 <_strtod_l+0x1ee>
 800494e:	2908      	cmp	r1, #8
 8004950:	f101 0101 	add.w	r1, r1, #1
 8004954:	dc03      	bgt.n	800495e <_strtod_l+0x256>
 8004956:	9b06      	ldr	r3, [sp, #24]
 8004958:	437b      	muls	r3, r7
 800495a:	9306      	str	r3, [sp, #24]
 800495c:	e7e1      	b.n	8004922 <_strtod_l+0x21a>
 800495e:	2910      	cmp	r1, #16
 8004960:	bfd8      	it	le
 8004962:	437d      	mulle	r5, r7
 8004964:	e7dd      	b.n	8004922 <_strtod_l+0x21a>
 8004966:	2c10      	cmp	r4, #16
 8004968:	bfdc      	itt	le
 800496a:	210a      	movle	r1, #10
 800496c:	fb01 e505 	mlale	r5, r1, r5, lr
 8004970:	e7e4      	b.n	800493c <_strtod_l+0x234>
 8004972:	2301      	movs	r3, #1
 8004974:	9305      	str	r3, [sp, #20]
 8004976:	e781      	b.n	800487c <_strtod_l+0x174>
 8004978:	f04f 0c01 	mov.w	ip, #1
 800497c:	1cb3      	adds	r3, r6, #2
 800497e:	931b      	str	r3, [sp, #108]	; 0x6c
 8004980:	78b3      	ldrb	r3, [r6, #2]
 8004982:	e78a      	b.n	800489a <_strtod_l+0x192>
 8004984:	f04f 0c00 	mov.w	ip, #0
 8004988:	e7f8      	b.n	800497c <_strtod_l+0x274>
 800498a:	bf00      	nop
 800498c:	08007f90 	.word	0x08007f90
 8004990:	7ff00000 	.word	0x7ff00000
 8004994:	9b1b      	ldr	r3, [sp, #108]	; 0x6c
 8004996:	1c5f      	adds	r7, r3, #1
 8004998:	971b      	str	r7, [sp, #108]	; 0x6c
 800499a:	785b      	ldrb	r3, [r3, #1]
 800499c:	2b30      	cmp	r3, #48	; 0x30
 800499e:	d0f9      	beq.n	8004994 <_strtod_l+0x28c>
 80049a0:	f1a3 0731 	sub.w	r7, r3, #49	; 0x31
 80049a4:	2f08      	cmp	r7, #8
 80049a6:	f63f af7d 	bhi.w	80048a4 <_strtod_l+0x19c>
 80049aa:	f1a3 0e30 	sub.w	lr, r3, #48	; 0x30
 80049ae:	9b1b      	ldr	r3, [sp, #108]	; 0x6c
 80049b0:	9309      	str	r3, [sp, #36]	; 0x24
 80049b2:	9b1b      	ldr	r3, [sp, #108]	; 0x6c
 80049b4:	1c5f      	adds	r7, r3, #1
 80049b6:	971b      	str	r7, [sp, #108]	; 0x6c
 80049b8:	785b      	ldrb	r3, [r3, #1]
 80049ba:	f1a3 0830 	sub.w	r8, r3, #48	; 0x30
 80049be:	f1b8 0f09 	cmp.w	r8, #9
 80049c2:	d937      	bls.n	8004a34 <_strtod_l+0x32c>
 80049c4:	9909      	ldr	r1, [sp, #36]	; 0x24
 80049c6:	1a7f      	subs	r7, r7, r1
 80049c8:	2f08      	cmp	r7, #8
 80049ca:	f644 671f 	movw	r7, #19999	; 0x4e1f
 80049ce:	dc37      	bgt.n	8004a40 <_strtod_l+0x338>
 80049d0:	45be      	cmp	lr, r7
 80049d2:	bfa8      	it	ge
 80049d4:	46be      	movge	lr, r7
 80049d6:	f1bc 0f00 	cmp.w	ip, #0
 80049da:	d001      	beq.n	80049e0 <_strtod_l+0x2d8>
 80049dc:	f1ce 0e00 	rsb	lr, lr, #0
 80049e0:	2c00      	cmp	r4, #0
 80049e2:	d151      	bne.n	8004a88 <_strtod_l+0x380>
 80049e4:	2800      	cmp	r0, #0
 80049e6:	f47f aece 	bne.w	8004786 <_strtod_l+0x7e>
 80049ea:	9a07      	ldr	r2, [sp, #28]
 80049ec:	2a00      	cmp	r2, #0
 80049ee:	f47f aeca 	bne.w	8004786 <_strtod_l+0x7e>
 80049f2:	9a05      	ldr	r2, [sp, #20]
 80049f4:	2a00      	cmp	r2, #0
 80049f6:	f47f aee4 	bne.w	80047c2 <_strtod_l+0xba>
 80049fa:	2b4e      	cmp	r3, #78	; 0x4e
 80049fc:	d027      	beq.n	8004a4e <_strtod_l+0x346>
 80049fe:	dc21      	bgt.n	8004a44 <_strtod_l+0x33c>
 8004a00:	2b49      	cmp	r3, #73	; 0x49
 8004a02:	f47f aede 	bne.w	80047c2 <_strtod_l+0xba>
 8004a06:	49a4      	ldr	r1, [pc, #656]	; (8004c98 <_strtod_l+0x590>)
 8004a08:	a81b      	add	r0, sp, #108	; 0x6c
 8004a0a:	f002 f82f 	bl	8006a6c <__match>
 8004a0e:	2800      	cmp	r0, #0
 8004a10:	f43f aed7 	beq.w	80047c2 <_strtod_l+0xba>
 8004a14:	9b1b      	ldr	r3, [sp, #108]	; 0x6c
 8004a16:	49a1      	ldr	r1, [pc, #644]	; (8004c9c <_strtod_l+0x594>)
 8004a18:	3b01      	subs	r3, #1
 8004a1a:	a81b      	add	r0, sp, #108	; 0x6c
 8004a1c:	931b      	str	r3, [sp, #108]	; 0x6c
 8004a1e:	f002 f825 	bl	8006a6c <__match>
 8004a22:	b910      	cbnz	r0, 8004a2a <_strtod_l+0x322>
 8004a24:	9b1b      	ldr	r3, [sp, #108]	; 0x6c
 8004a26:	3301      	adds	r3, #1
 8004a28:	931b      	str	r3, [sp, #108]	; 0x6c
 8004a2a:	f8df a284 	ldr.w	sl, [pc, #644]	; 8004cb0 <_strtod_l+0x5a8>
 8004a2e:	f04f 0900 	mov.w	r9, #0
 8004a32:	e6a8      	b.n	8004786 <_strtod_l+0x7e>
 8004a34:	210a      	movs	r1, #10
 8004a36:	fb01 3e0e 	mla	lr, r1, lr, r3
 8004a3a:	f1ae 0e30 	sub.w	lr, lr, #48	; 0x30
 8004a3e:	e7b8      	b.n	80049b2 <_strtod_l+0x2aa>
 8004a40:	46be      	mov	lr, r7
 8004a42:	e7c8      	b.n	80049d6 <_strtod_l+0x2ce>
 8004a44:	2b69      	cmp	r3, #105	; 0x69
 8004a46:	d0de      	beq.n	8004a06 <_strtod_l+0x2fe>
 8004a48:	2b6e      	cmp	r3, #110	; 0x6e
 8004a4a:	f47f aeba 	bne.w	80047c2 <_strtod_l+0xba>
 8004a4e:	4994      	ldr	r1, [pc, #592]	; (8004ca0 <_strtod_l+0x598>)
 8004a50:	a81b      	add	r0, sp, #108	; 0x6c
 8004a52:	f002 f80b 	bl	8006a6c <__match>
 8004a56:	2800      	cmp	r0, #0
 8004a58:	f43f aeb3 	beq.w	80047c2 <_strtod_l+0xba>
 8004a5c:	9b1b      	ldr	r3, [sp, #108]	; 0x6c
 8004a5e:	781b      	ldrb	r3, [r3, #0]
 8004a60:	2b28      	cmp	r3, #40	; 0x28
 8004a62:	d10e      	bne.n	8004a82 <_strtod_l+0x37a>
 8004a64:	aa1e      	add	r2, sp, #120	; 0x78
 8004a66:	498f      	ldr	r1, [pc, #572]	; (8004ca4 <_strtod_l+0x59c>)
 8004a68:	a81b      	add	r0, sp, #108	; 0x6c
 8004a6a:	f002 f813 	bl	8006a94 <__hexnan>
 8004a6e:	2805      	cmp	r0, #5
 8004a70:	d107      	bne.n	8004a82 <_strtod_l+0x37a>
 8004a72:	9b1f      	ldr	r3, [sp, #124]	; 0x7c
 8004a74:	f8dd 9078 	ldr.w	r9, [sp, #120]	; 0x78
 8004a78:	f043 4aff 	orr.w	sl, r3, #2139095040	; 0x7f800000
 8004a7c:	f44a 0ae0 	orr.w	sl, sl, #7340032	; 0x700000
 8004a80:	e681      	b.n	8004786 <_strtod_l+0x7e>
 8004a82:	f8df a234 	ldr.w	sl, [pc, #564]	; 8004cb8 <_strtod_l+0x5b0>
 8004a86:	e7d2      	b.n	8004a2e <_strtod_l+0x326>
 8004a88:	ebae 0302 	sub.w	r3, lr, r2
 8004a8c:	9307      	str	r3, [sp, #28]
 8004a8e:	9b04      	ldr	r3, [sp, #16]
 8004a90:	9806      	ldr	r0, [sp, #24]
 8004a92:	2b00      	cmp	r3, #0
 8004a94:	bf08      	it	eq
 8004a96:	4623      	moveq	r3, r4
 8004a98:	2c10      	cmp	r4, #16
 8004a9a:	9304      	str	r3, [sp, #16]
 8004a9c:	46a0      	mov	r8, r4
 8004a9e:	bfa8      	it	ge
 8004aa0:	f04f 0810 	movge.w	r8, #16
 8004aa4:	f7fb fc9e 	bl	80003e4 <__aeabi_ui2d>
 8004aa8:	2c09      	cmp	r4, #9
 8004aaa:	4681      	mov	r9, r0
 8004aac:	468a      	mov	sl, r1
 8004aae:	dc13      	bgt.n	8004ad8 <_strtod_l+0x3d0>
 8004ab0:	9b07      	ldr	r3, [sp, #28]
 8004ab2:	2b00      	cmp	r3, #0
 8004ab4:	f43f ae67 	beq.w	8004786 <_strtod_l+0x7e>
 8004ab8:	9b07      	ldr	r3, [sp, #28]
 8004aba:	dd7e      	ble.n	8004bba <_strtod_l+0x4b2>
 8004abc:	2b16      	cmp	r3, #22
 8004abe:	dc65      	bgt.n	8004b8c <_strtod_l+0x484>
 8004ac0:	4a79      	ldr	r2, [pc, #484]	; (8004ca8 <_strtod_l+0x5a0>)
 8004ac2:	eb02 0ec3 	add.w	lr, r2, r3, lsl #3
 8004ac6:	464a      	mov	r2, r9
 8004ac8:	e9de 0100 	ldrd	r0, r1, [lr]
 8004acc:	4653      	mov	r3, sl
 8004ace:	f7fb fd03 	bl	80004d8 <__aeabi_dmul>
 8004ad2:	4681      	mov	r9, r0
 8004ad4:	468a      	mov	sl, r1
 8004ad6:	e656      	b.n	8004786 <_strtod_l+0x7e>
 8004ad8:	4b73      	ldr	r3, [pc, #460]	; (8004ca8 <_strtod_l+0x5a0>)
 8004ada:	eb03 03c8 	add.w	r3, r3, r8, lsl #3
 8004ade:	e953 2312 	ldrd	r2, r3, [r3, #-72]	; 0x48
 8004ae2:	f7fb fcf9 	bl	80004d8 <__aeabi_dmul>
 8004ae6:	4606      	mov	r6, r0
 8004ae8:	4628      	mov	r0, r5
 8004aea:	460f      	mov	r7, r1
 8004aec:	f7fb fc7a 	bl	80003e4 <__aeabi_ui2d>
 8004af0:	4602      	mov	r2, r0
 8004af2:	460b      	mov	r3, r1
 8004af4:	4630      	mov	r0, r6
 8004af6:	4639      	mov	r1, r7
 8004af8:	f7fb fb38 	bl	800016c <__adddf3>
 8004afc:	2c0f      	cmp	r4, #15
 8004afe:	4681      	mov	r9, r0
 8004b00:	468a      	mov	sl, r1
 8004b02:	ddd5      	ble.n	8004ab0 <_strtod_l+0x3a8>
 8004b04:	9b07      	ldr	r3, [sp, #28]
 8004b06:	eba4 0808 	sub.w	r8, r4, r8
 8004b0a:	4498      	add	r8, r3
 8004b0c:	f1b8 0f00 	cmp.w	r8, #0
 8004b10:	f340 809a 	ble.w	8004c48 <_strtod_l+0x540>
 8004b14:	f018 030f 	ands.w	r3, r8, #15
 8004b18:	d00a      	beq.n	8004b30 <_strtod_l+0x428>
 8004b1a:	4963      	ldr	r1, [pc, #396]	; (8004ca8 <_strtod_l+0x5a0>)
 8004b1c:	464a      	mov	r2, r9
 8004b1e:	eb01 01c3 	add.w	r1, r1, r3, lsl #3
 8004b22:	e9d1 0100 	ldrd	r0, r1, [r1]
 8004b26:	4653      	mov	r3, sl
 8004b28:	f7fb fcd6 	bl	80004d8 <__aeabi_dmul>
 8004b2c:	4681      	mov	r9, r0
 8004b2e:	468a      	mov	sl, r1
 8004b30:	f038 080f 	bics.w	r8, r8, #15
 8004b34:	d077      	beq.n	8004c26 <_strtod_l+0x51e>
 8004b36:	f5b8 7f9a 	cmp.w	r8, #308	; 0x134
 8004b3a:	dd4b      	ble.n	8004bd4 <_strtod_l+0x4cc>
 8004b3c:	f04f 0800 	mov.w	r8, #0
 8004b40:	f8cd 8010 	str.w	r8, [sp, #16]
 8004b44:	f8cd 8020 	str.w	r8, [sp, #32]
 8004b48:	f8cd 8018 	str.w	r8, [sp, #24]
 8004b4c:	2322      	movs	r3, #34	; 0x22
 8004b4e:	f04f 0900 	mov.w	r9, #0
 8004b52:	f8df a15c 	ldr.w	sl, [pc, #348]	; 8004cb0 <_strtod_l+0x5a8>
 8004b56:	f8cb 3000 	str.w	r3, [fp]
 8004b5a:	9b08      	ldr	r3, [sp, #32]
 8004b5c:	2b00      	cmp	r3, #0
 8004b5e:	f43f ae12 	beq.w	8004786 <_strtod_l+0x7e>
 8004b62:	991c      	ldr	r1, [sp, #112]	; 0x70
 8004b64:	4658      	mov	r0, fp
 8004b66:	f002 f904 	bl	8006d72 <_Bfree>
 8004b6a:	9906      	ldr	r1, [sp, #24]
 8004b6c:	4658      	mov	r0, fp
 8004b6e:	f002 f900 	bl	8006d72 <_Bfree>
 8004b72:	9904      	ldr	r1, [sp, #16]
 8004b74:	4658      	mov	r0, fp
 8004b76:	f002 f8fc 	bl	8006d72 <_Bfree>
 8004b7a:	9908      	ldr	r1, [sp, #32]
 8004b7c:	4658      	mov	r0, fp
 8004b7e:	f002 f8f8 	bl	8006d72 <_Bfree>
 8004b82:	4641      	mov	r1, r8
 8004b84:	4658      	mov	r0, fp
 8004b86:	f002 f8f4 	bl	8006d72 <_Bfree>
 8004b8a:	e5fc      	b.n	8004786 <_strtod_l+0x7e>
 8004b8c:	9a07      	ldr	r2, [sp, #28]
 8004b8e:	f1c4 0325 	rsb	r3, r4, #37	; 0x25
 8004b92:	4293      	cmp	r3, r2
 8004b94:	dbb6      	blt.n	8004b04 <_strtod_l+0x3fc>
 8004b96:	4d44      	ldr	r5, [pc, #272]	; (8004ca8 <_strtod_l+0x5a0>)
 8004b98:	f1c4 040f 	rsb	r4, r4, #15
 8004b9c:	eb05 01c4 	add.w	r1, r5, r4, lsl #3
 8004ba0:	464a      	mov	r2, r9
 8004ba2:	e9d1 0100 	ldrd	r0, r1, [r1]
 8004ba6:	4653      	mov	r3, sl
 8004ba8:	f7fb fc96 	bl	80004d8 <__aeabi_dmul>
 8004bac:	9b07      	ldr	r3, [sp, #28]
 8004bae:	1b1c      	subs	r4, r3, r4
 8004bb0:	eb05 05c4 	add.w	r5, r5, r4, lsl #3
 8004bb4:	e9d5 2300 	ldrd	r2, r3, [r5]
 8004bb8:	e789      	b.n	8004ace <_strtod_l+0x3c6>
 8004bba:	f113 0f16 	cmn.w	r3, #22
 8004bbe:	dba1      	blt.n	8004b04 <_strtod_l+0x3fc>
 8004bc0:	4a39      	ldr	r2, [pc, #228]	; (8004ca8 <_strtod_l+0x5a0>)
 8004bc2:	4648      	mov	r0, r9
 8004bc4:	eba2 02c3 	sub.w	r2, r2, r3, lsl #3
 8004bc8:	e9d2 2300 	ldrd	r2, r3, [r2]
 8004bcc:	4651      	mov	r1, sl
 8004bce:	f7fb fdad 	bl	800072c <__aeabi_ddiv>
 8004bd2:	e77e      	b.n	8004ad2 <_strtod_l+0x3ca>
 8004bd4:	2300      	movs	r3, #0
 8004bd6:	4648      	mov	r0, r9
 8004bd8:	4651      	mov	r1, sl
 8004bda:	461d      	mov	r5, r3
 8004bdc:	4e33      	ldr	r6, [pc, #204]	; (8004cac <_strtod_l+0x5a4>)
 8004bde:	ea4f 1828 	mov.w	r8, r8, asr #4
 8004be2:	f1b8 0f01 	cmp.w	r8, #1
 8004be6:	dc21      	bgt.n	8004c2c <_strtod_l+0x524>
 8004be8:	b10b      	cbz	r3, 8004bee <_strtod_l+0x4e6>
 8004bea:	4681      	mov	r9, r0
 8004bec:	468a      	mov	sl, r1
 8004bee:	4b2f      	ldr	r3, [pc, #188]	; (8004cac <_strtod_l+0x5a4>)
 8004bf0:	f1aa 7a54 	sub.w	sl, sl, #55574528	; 0x3500000
 8004bf4:	eb03 05c5 	add.w	r5, r3, r5, lsl #3
 8004bf8:	464a      	mov	r2, r9
 8004bfa:	e9d5 0100 	ldrd	r0, r1, [r5]
 8004bfe:	4653      	mov	r3, sl
 8004c00:	f7fb fc6a 	bl	80004d8 <__aeabi_dmul>
 8004c04:	4b2a      	ldr	r3, [pc, #168]	; (8004cb0 <_strtod_l+0x5a8>)
 8004c06:	460a      	mov	r2, r1
 8004c08:	400b      	ands	r3, r1
 8004c0a:	492a      	ldr	r1, [pc, #168]	; (8004cb4 <_strtod_l+0x5ac>)
 8004c0c:	4681      	mov	r9, r0
 8004c0e:	428b      	cmp	r3, r1
 8004c10:	d894      	bhi.n	8004b3c <_strtod_l+0x434>
 8004c12:	f5a1 1180 	sub.w	r1, r1, #1048576	; 0x100000
 8004c16:	428b      	cmp	r3, r1
 8004c18:	bf86      	itte	hi
 8004c1a:	f04f 39ff 	movhi.w	r9, #4294967295	; 0xffffffff
 8004c1e:	f8df a09c 	ldrhi.w	sl, [pc, #156]	; 8004cbc <_strtod_l+0x5b4>
 8004c22:	f102 7a54 	addls.w	sl, r2, #55574528	; 0x3500000
 8004c26:	2300      	movs	r3, #0
 8004c28:	9305      	str	r3, [sp, #20]
 8004c2a:	e07b      	b.n	8004d24 <_strtod_l+0x61c>
 8004c2c:	f018 0f01 	tst.w	r8, #1
 8004c30:	d006      	beq.n	8004c40 <_strtod_l+0x538>
 8004c32:	eb06 03c5 	add.w	r3, r6, r5, lsl #3
 8004c36:	e9d3 2300 	ldrd	r2, r3, [r3]
 8004c3a:	f7fb fc4d 	bl	80004d8 <__aeabi_dmul>
 8004c3e:	2301      	movs	r3, #1
 8004c40:	3501      	adds	r5, #1
 8004c42:	ea4f 0868 	mov.w	r8, r8, asr #1
 8004c46:	e7cc      	b.n	8004be2 <_strtod_l+0x4da>
 8004c48:	d0ed      	beq.n	8004c26 <_strtod_l+0x51e>
 8004c4a:	f1c8 0800 	rsb	r8, r8, #0
 8004c4e:	f018 020f 	ands.w	r2, r8, #15
 8004c52:	d00a      	beq.n	8004c6a <_strtod_l+0x562>
 8004c54:	4b14      	ldr	r3, [pc, #80]	; (8004ca8 <_strtod_l+0x5a0>)
 8004c56:	4648      	mov	r0, r9
 8004c58:	eb03 03c2 	add.w	r3, r3, r2, lsl #3
 8004c5c:	4651      	mov	r1, sl
 8004c5e:	e9d3 2300 	ldrd	r2, r3, [r3]
 8004c62:	f7fb fd63 	bl	800072c <__aeabi_ddiv>
 8004c66:	4681      	mov	r9, r0
 8004c68:	468a      	mov	sl, r1
 8004c6a:	ea5f 1828 	movs.w	r8, r8, asr #4
 8004c6e:	d0da      	beq.n	8004c26 <_strtod_l+0x51e>
 8004c70:	f1b8 0f1f 	cmp.w	r8, #31
 8004c74:	dd24      	ble.n	8004cc0 <_strtod_l+0x5b8>
 8004c76:	f04f 0800 	mov.w	r8, #0
 8004c7a:	f8cd 8010 	str.w	r8, [sp, #16]
 8004c7e:	f8cd 8020 	str.w	r8, [sp, #32]
 8004c82:	f8cd 8018 	str.w	r8, [sp, #24]
 8004c86:	2322      	movs	r3, #34	; 0x22
 8004c88:	f04f 0900 	mov.w	r9, #0
 8004c8c:	f04f 0a00 	mov.w	sl, #0
 8004c90:	f8cb 3000 	str.w	r3, [fp]
 8004c94:	e761      	b.n	8004b5a <_strtod_l+0x452>
 8004c96:	bf00      	nop
 8004c98:	08007f59 	.word	0x08007f59
 8004c9c:	08007fe3 	.word	0x08007fe3
 8004ca0:	08007f61 	.word	0x08007f61
 8004ca4:	08007fa4 	.word	0x08007fa4
 8004ca8:	08008088 	.word	0x08008088
 8004cac:	08008060 	.word	0x08008060
 8004cb0:	7ff00000 	.word	0x7ff00000
 8004cb4:	7ca00000 	.word	0x7ca00000
 8004cb8:	fff80000 	.word	0xfff80000
 8004cbc:	7fefffff 	.word	0x7fefffff
 8004cc0:	f018 0310 	ands.w	r3, r8, #16
 8004cc4:	bf18      	it	ne
 8004cc6:	236a      	movne	r3, #106	; 0x6a
 8004cc8:	4648      	mov	r0, r9
 8004cca:	9305      	str	r3, [sp, #20]
 8004ccc:	4651      	mov	r1, sl
 8004cce:	2300      	movs	r3, #0
 8004cd0:	4da1      	ldr	r5, [pc, #644]	; (8004f58 <_strtod_l+0x850>)
 8004cd2:	f1b8 0f00 	cmp.w	r8, #0
 8004cd6:	f300 8113 	bgt.w	8004f00 <_strtod_l+0x7f8>
 8004cda:	b10b      	cbz	r3, 8004ce0 <_strtod_l+0x5d8>
 8004cdc:	4681      	mov	r9, r0
 8004cde:	468a      	mov	sl, r1
 8004ce0:	9b05      	ldr	r3, [sp, #20]
 8004ce2:	b1bb      	cbz	r3, 8004d14 <_strtod_l+0x60c>
 8004ce4:	f3ca 530a 	ubfx	r3, sl, #20, #11
 8004ce8:	f1c3 036b 	rsb	r3, r3, #107	; 0x6b
 8004cec:	2b00      	cmp	r3, #0
 8004cee:	4651      	mov	r1, sl
 8004cf0:	dd10      	ble.n	8004d14 <_strtod_l+0x60c>
 8004cf2:	2b1f      	cmp	r3, #31
 8004cf4:	f340 8110 	ble.w	8004f18 <_strtod_l+0x810>
 8004cf8:	2b34      	cmp	r3, #52	; 0x34
 8004cfa:	bfd8      	it	le
 8004cfc:	f04f 32ff 	movle.w	r2, #4294967295	; 0xffffffff
 8004d00:	f04f 0900 	mov.w	r9, #0
 8004d04:	bfcf      	iteee	gt
 8004d06:	f04f 7a5c 	movgt.w	sl, #57671680	; 0x3700000
 8004d0a:	3b20      	suble	r3, #32
 8004d0c:	fa02 f303 	lslle.w	r3, r2, r3
 8004d10:	ea03 0a01 	andle.w	sl, r3, r1
 8004d14:	2200      	movs	r2, #0
 8004d16:	2300      	movs	r3, #0
 8004d18:	4648      	mov	r0, r9
 8004d1a:	4651      	mov	r1, sl
 8004d1c:	f7fb fe44 	bl	80009a8 <__aeabi_dcmpeq>
 8004d20:	2800      	cmp	r0, #0
 8004d22:	d1a8      	bne.n	8004c76 <_strtod_l+0x56e>
 8004d24:	9b06      	ldr	r3, [sp, #24]
 8004d26:	9a04      	ldr	r2, [sp, #16]
 8004d28:	9300      	str	r3, [sp, #0]
 8004d2a:	9908      	ldr	r1, [sp, #32]
 8004d2c:	4623      	mov	r3, r4
 8004d2e:	4658      	mov	r0, fp
 8004d30:	f002 f871 	bl	8006e16 <__s2b>
 8004d34:	9008      	str	r0, [sp, #32]
 8004d36:	2800      	cmp	r0, #0
 8004d38:	f43f af00 	beq.w	8004b3c <_strtod_l+0x434>
 8004d3c:	9a07      	ldr	r2, [sp, #28]
 8004d3e:	9b07      	ldr	r3, [sp, #28]
 8004d40:	2a00      	cmp	r2, #0
 8004d42:	f1c3 0300 	rsb	r3, r3, #0
 8004d46:	bfa8      	it	ge
 8004d48:	2300      	movge	r3, #0
 8004d4a:	f04f 0800 	mov.w	r8, #0
 8004d4e:	930e      	str	r3, [sp, #56]	; 0x38
 8004d50:	ea22 73e2 	bic.w	r3, r2, r2, asr #31
 8004d54:	9316      	str	r3, [sp, #88]	; 0x58
 8004d56:	f8cd 8010 	str.w	r8, [sp, #16]
 8004d5a:	9b08      	ldr	r3, [sp, #32]
 8004d5c:	4658      	mov	r0, fp
 8004d5e:	6859      	ldr	r1, [r3, #4]
 8004d60:	f001 ffd3 	bl	8006d0a <_Balloc>
 8004d64:	9006      	str	r0, [sp, #24]
 8004d66:	2800      	cmp	r0, #0
 8004d68:	f43f aef0 	beq.w	8004b4c <_strtod_l+0x444>
 8004d6c:	9b08      	ldr	r3, [sp, #32]
 8004d6e:	300c      	adds	r0, #12
 8004d70:	691a      	ldr	r2, [r3, #16]
 8004d72:	f103 010c 	add.w	r1, r3, #12
 8004d76:	3202      	adds	r2, #2
 8004d78:	0092      	lsls	r2, r2, #2
 8004d7a:	f001 ffbb 	bl	8006cf4 <memcpy>
 8004d7e:	ab1e      	add	r3, sp, #120	; 0x78
 8004d80:	9301      	str	r3, [sp, #4]
 8004d82:	ab1d      	add	r3, sp, #116	; 0x74
 8004d84:	9300      	str	r3, [sp, #0]
 8004d86:	464a      	mov	r2, r9
 8004d88:	4653      	mov	r3, sl
 8004d8a:	4658      	mov	r0, fp
 8004d8c:	e9cd 9a0a 	strd	r9, sl, [sp, #40]	; 0x28
 8004d90:	f002 fafc 	bl	800738c <__d2b>
 8004d94:	901c      	str	r0, [sp, #112]	; 0x70
 8004d96:	2800      	cmp	r0, #0
 8004d98:	f43f aed8 	beq.w	8004b4c <_strtod_l+0x444>
 8004d9c:	2101      	movs	r1, #1
 8004d9e:	4658      	mov	r0, fp
 8004da0:	f002 f8c5 	bl	8006f2e <__i2b>
 8004da4:	9004      	str	r0, [sp, #16]
 8004da6:	4603      	mov	r3, r0
 8004da8:	2800      	cmp	r0, #0
 8004daa:	f43f aecf 	beq.w	8004b4c <_strtod_l+0x444>
 8004dae:	9d1d      	ldr	r5, [sp, #116]	; 0x74
 8004db0:	9a1e      	ldr	r2, [sp, #120]	; 0x78
 8004db2:	2d00      	cmp	r5, #0
 8004db4:	bfab      	itete	ge
 8004db6:	9b0e      	ldrge	r3, [sp, #56]	; 0x38
 8004db8:	9b16      	ldrlt	r3, [sp, #88]	; 0x58
 8004dba:	18ee      	addge	r6, r5, r3
 8004dbc:	1b5c      	sublt	r4, r3, r5
 8004dbe:	9b05      	ldr	r3, [sp, #20]
 8004dc0:	bfa8      	it	ge
 8004dc2:	9c16      	ldrge	r4, [sp, #88]	; 0x58
 8004dc4:	eba5 0503 	sub.w	r5, r5, r3
 8004dc8:	4415      	add	r5, r2
 8004dca:	4b64      	ldr	r3, [pc, #400]	; (8004f5c <_strtod_l+0x854>)
 8004dcc:	f105 35ff 	add.w	r5, r5, #4294967295	; 0xffffffff
 8004dd0:	bfb8      	it	lt
 8004dd2:	9e0e      	ldrlt	r6, [sp, #56]	; 0x38
 8004dd4:	429d      	cmp	r5, r3
 8004dd6:	f1c2 0236 	rsb	r2, r2, #54	; 0x36
 8004dda:	f280 80af 	bge.w	8004f3c <_strtod_l+0x834>
 8004dde:	1b5b      	subs	r3, r3, r5
 8004de0:	2b1f      	cmp	r3, #31
 8004de2:	eba2 0203 	sub.w	r2, r2, r3
 8004de6:	f04f 0701 	mov.w	r7, #1
 8004dea:	f300 809c 	bgt.w	8004f26 <_strtod_l+0x81e>
 8004dee:	2500      	movs	r5, #0
 8004df0:	fa07 f303 	lsl.w	r3, r7, r3
 8004df4:	930f      	str	r3, [sp, #60]	; 0x3c
 8004df6:	18b7      	adds	r7, r6, r2
 8004df8:	9b05      	ldr	r3, [sp, #20]
 8004dfa:	42be      	cmp	r6, r7
 8004dfc:	4414      	add	r4, r2
 8004dfe:	441c      	add	r4, r3
 8004e00:	4633      	mov	r3, r6
 8004e02:	bfa8      	it	ge
 8004e04:	463b      	movge	r3, r7
 8004e06:	42a3      	cmp	r3, r4
 8004e08:	bfa8      	it	ge
 8004e0a:	4623      	movge	r3, r4
 8004e0c:	2b00      	cmp	r3, #0
 8004e0e:	bfc2      	ittt	gt
 8004e10:	1aff      	subgt	r7, r7, r3
 8004e12:	1ae4      	subgt	r4, r4, r3
 8004e14:	1af6      	subgt	r6, r6, r3
 8004e16:	9b0e      	ldr	r3, [sp, #56]	; 0x38
 8004e18:	b1bb      	cbz	r3, 8004e4a <_strtod_l+0x742>
 8004e1a:	461a      	mov	r2, r3
 8004e1c:	9904      	ldr	r1, [sp, #16]
 8004e1e:	4658      	mov	r0, fp
 8004e20:	f002 f924 	bl	800706c <__pow5mult>
 8004e24:	9004      	str	r0, [sp, #16]
 8004e26:	2800      	cmp	r0, #0
 8004e28:	f43f ae90 	beq.w	8004b4c <_strtod_l+0x444>
 8004e2c:	4601      	mov	r1, r0
 8004e2e:	9a1c      	ldr	r2, [sp, #112]	; 0x70
 8004e30:	4658      	mov	r0, fp
 8004e32:	f002 f885 	bl	8006f40 <__multiply>
 8004e36:	9009      	str	r0, [sp, #36]	; 0x24
 8004e38:	2800      	cmp	r0, #0
 8004e3a:	f43f ae87 	beq.w	8004b4c <_strtod_l+0x444>
 8004e3e:	991c      	ldr	r1, [sp, #112]	; 0x70
 8004e40:	4658      	mov	r0, fp
 8004e42:	f001 ff96 	bl	8006d72 <_Bfree>
 8004e46:	9b09      	ldr	r3, [sp, #36]	; 0x24
 8004e48:	931c      	str	r3, [sp, #112]	; 0x70
 8004e4a:	2f00      	cmp	r7, #0
 8004e4c:	dc7a      	bgt.n	8004f44 <_strtod_l+0x83c>
 8004e4e:	9b07      	ldr	r3, [sp, #28]
 8004e50:	2b00      	cmp	r3, #0
 8004e52:	dd08      	ble.n	8004e66 <_strtod_l+0x75e>
 8004e54:	9a16      	ldr	r2, [sp, #88]	; 0x58
 8004e56:	9906      	ldr	r1, [sp, #24]
 8004e58:	4658      	mov	r0, fp
 8004e5a:	f002 f907 	bl	800706c <__pow5mult>
 8004e5e:	9006      	str	r0, [sp, #24]
 8004e60:	2800      	cmp	r0, #0
 8004e62:	f43f ae73 	beq.w	8004b4c <_strtod_l+0x444>
 8004e66:	2c00      	cmp	r4, #0
 8004e68:	dd08      	ble.n	8004e7c <_strtod_l+0x774>
 8004e6a:	4622      	mov	r2, r4
 8004e6c:	9906      	ldr	r1, [sp, #24]
 8004e6e:	4658      	mov	r0, fp
 8004e70:	f002 f94a 	bl	8007108 <__lshift>
 8004e74:	9006      	str	r0, [sp, #24]
 8004e76:	2800      	cmp	r0, #0
 8004e78:	f43f ae68 	beq.w	8004b4c <_strtod_l+0x444>
 8004e7c:	2e00      	cmp	r6, #0
 8004e7e:	dd08      	ble.n	8004e92 <_strtod_l+0x78a>
 8004e80:	4632      	mov	r2, r6
 8004e82:	9904      	ldr	r1, [sp, #16]
 8004e84:	4658      	mov	r0, fp
 8004e86:	f002 f93f 	bl	8007108 <__lshift>
 8004e8a:	9004      	str	r0, [sp, #16]
 8004e8c:	2800      	cmp	r0, #0
 8004e8e:	f43f ae5d 	beq.w	8004b4c <_strtod_l+0x444>
 8004e92:	9a06      	ldr	r2, [sp, #24]
 8004e94:	991c      	ldr	r1, [sp, #112]	; 0x70
 8004e96:	4658      	mov	r0, fp
 8004e98:	f002 f9a4 	bl	80071e4 <__mdiff>
 8004e9c:	4680      	mov	r8, r0
 8004e9e:	2800      	cmp	r0, #0
 8004ea0:	f43f ae54 	beq.w	8004b4c <_strtod_l+0x444>
 8004ea4:	2400      	movs	r4, #0
 8004ea6:	68c3      	ldr	r3, [r0, #12]
 8004ea8:	9904      	ldr	r1, [sp, #16]
 8004eaa:	60c4      	str	r4, [r0, #12]
 8004eac:	930c      	str	r3, [sp, #48]	; 0x30
 8004eae:	f002 f97f 	bl	80071b0 <__mcmp>
 8004eb2:	42a0      	cmp	r0, r4
 8004eb4:	da54      	bge.n	8004f60 <_strtod_l+0x858>
 8004eb6:	9b0c      	ldr	r3, [sp, #48]	; 0x30
 8004eb8:	b9f3      	cbnz	r3, 8004ef8 <_strtod_l+0x7f0>
 8004eba:	f1b9 0f00 	cmp.w	r9, #0
 8004ebe:	d11b      	bne.n	8004ef8 <_strtod_l+0x7f0>
 8004ec0:	f3ca 0313 	ubfx	r3, sl, #0, #20
 8004ec4:	b9c3      	cbnz	r3, 8004ef8 <_strtod_l+0x7f0>
 8004ec6:	f02a 4300 	bic.w	r3, sl, #2147483648	; 0x80000000
 8004eca:	0d1b      	lsrs	r3, r3, #20
 8004ecc:	051b      	lsls	r3, r3, #20
 8004ece:	f1b3 6fd6 	cmp.w	r3, #112197632	; 0x6b00000
 8004ed2:	d911      	bls.n	8004ef8 <_strtod_l+0x7f0>
 8004ed4:	f8d8 3014 	ldr.w	r3, [r8, #20]
 8004ed8:	b91b      	cbnz	r3, 8004ee2 <_strtod_l+0x7da>
 8004eda:	f8d8 3010 	ldr.w	r3, [r8, #16]
 8004ede:	2b01      	cmp	r3, #1
 8004ee0:	dd0a      	ble.n	8004ef8 <_strtod_l+0x7f0>
 8004ee2:	4641      	mov	r1, r8
 8004ee4:	2201      	movs	r2, #1
 8004ee6:	4658      	mov	r0, fp
 8004ee8:	f002 f90e 	bl	8007108 <__lshift>
 8004eec:	9904      	ldr	r1, [sp, #16]
 8004eee:	4680      	mov	r8, r0
 8004ef0:	f002 f95e 	bl	80071b0 <__mcmp>
 8004ef4:	2800      	cmp	r0, #0
 8004ef6:	dc68      	bgt.n	8004fca <_strtod_l+0x8c2>
 8004ef8:	9b05      	ldr	r3, [sp, #20]
 8004efa:	2b00      	cmp	r3, #0
 8004efc:	d172      	bne.n	8004fe4 <_strtod_l+0x8dc>
 8004efe:	e630      	b.n	8004b62 <_strtod_l+0x45a>
 8004f00:	f018 0f01 	tst.w	r8, #1
 8004f04:	d004      	beq.n	8004f10 <_strtod_l+0x808>
 8004f06:	e9d5 2300 	ldrd	r2, r3, [r5]
 8004f0a:	f7fb fae5 	bl	80004d8 <__aeabi_dmul>
 8004f0e:	2301      	movs	r3, #1
 8004f10:	ea4f 0868 	mov.w	r8, r8, asr #1
 8004f14:	3508      	adds	r5, #8
 8004f16:	e6dc      	b.n	8004cd2 <_strtod_l+0x5ca>
 8004f18:	f04f 32ff 	mov.w	r2, #4294967295	; 0xffffffff
 8004f1c:	fa02 f303 	lsl.w	r3, r2, r3
 8004f20:	ea03 0909 	and.w	r9, r3, r9
 8004f24:	e6f6      	b.n	8004d14 <_strtod_l+0x60c>
 8004f26:	f1c5 457f 	rsb	r5, r5, #4278190080	; 0xff000000
 8004f2a:	f505 057f 	add.w	r5, r5, #16711680	; 0xff0000
 8004f2e:	f505 457b 	add.w	r5, r5, #64256	; 0xfb00
 8004f32:	35e2      	adds	r5, #226	; 0xe2
 8004f34:	fa07 f505 	lsl.w	r5, r7, r5
 8004f38:	970f      	str	r7, [sp, #60]	; 0x3c
 8004f3a:	e75c      	b.n	8004df6 <_strtod_l+0x6ee>
 8004f3c:	2301      	movs	r3, #1
 8004f3e:	2500      	movs	r5, #0
 8004f40:	930f      	str	r3, [sp, #60]	; 0x3c
 8004f42:	e758      	b.n	8004df6 <_strtod_l+0x6ee>
 8004f44:	463a      	mov	r2, r7
 8004f46:	991c      	ldr	r1, [sp, #112]	; 0x70
 8004f48:	4658      	mov	r0, fp
 8004f4a:	f002 f8dd 	bl	8007108 <__lshift>
 8004f4e:	901c      	str	r0, [sp, #112]	; 0x70
 8004f50:	2800      	cmp	r0, #0
 8004f52:	f47f af7c 	bne.w	8004e4e <_strtod_l+0x746>
 8004f56:	e5f9      	b.n	8004b4c <_strtod_l+0x444>
 8004f58:	08007fb8 	.word	0x08007fb8
 8004f5c:	fffffc02 	.word	0xfffffc02
 8004f60:	f8cd a024 	str.w	sl, [sp, #36]	; 0x24
 8004f64:	f040 8089 	bne.w	800507a <_strtod_l+0x972>
 8004f68:	9a0c      	ldr	r2, [sp, #48]	; 0x30
 8004f6a:	f3ca 0313 	ubfx	r3, sl, #0, #20
 8004f6e:	b342      	cbz	r2, 8004fc2 <_strtod_l+0x8ba>
 8004f70:	4aaf      	ldr	r2, [pc, #700]	; (8005230 <_strtod_l+0xb28>)
 8004f72:	4293      	cmp	r3, r2
 8004f74:	d156      	bne.n	8005024 <_strtod_l+0x91c>
 8004f76:	9b05      	ldr	r3, [sp, #20]
 8004f78:	4648      	mov	r0, r9
 8004f7a:	b1eb      	cbz	r3, 8004fb8 <_strtod_l+0x8b0>
 8004f7c:	4653      	mov	r3, sl
 8004f7e:	4aad      	ldr	r2, [pc, #692]	; (8005234 <_strtod_l+0xb2c>)
 8004f80:	f04f 31ff 	mov.w	r1, #4294967295	; 0xffffffff
 8004f84:	401a      	ands	r2, r3
 8004f86:	f1b2 6fd4 	cmp.w	r2, #111149056	; 0x6a00000
 8004f8a:	d818      	bhi.n	8004fbe <_strtod_l+0x8b6>
 8004f8c:	0d12      	lsrs	r2, r2, #20
 8004f8e:	f1c2 036b 	rsb	r3, r2, #107	; 0x6b
 8004f92:	fa01 f303 	lsl.w	r3, r1, r3
 8004f96:	4298      	cmp	r0, r3
 8004f98:	d144      	bne.n	8005024 <_strtod_l+0x91c>
 8004f9a:	4ba7      	ldr	r3, [pc, #668]	; (8005238 <_strtod_l+0xb30>)
 8004f9c:	9a09      	ldr	r2, [sp, #36]	; 0x24
 8004f9e:	429a      	cmp	r2, r3
 8004fa0:	d102      	bne.n	8004fa8 <_strtod_l+0x8a0>
 8004fa2:	3001      	adds	r0, #1
 8004fa4:	f43f add2 	beq.w	8004b4c <_strtod_l+0x444>
 8004fa8:	4ba2      	ldr	r3, [pc, #648]	; (8005234 <_strtod_l+0xb2c>)
 8004faa:	9a09      	ldr	r2, [sp, #36]	; 0x24
 8004fac:	f04f 0900 	mov.w	r9, #0
 8004fb0:	401a      	ands	r2, r3
 8004fb2:	f502 1a80 	add.w	sl, r2, #1048576	; 0x100000
 8004fb6:	e79f      	b.n	8004ef8 <_strtod_l+0x7f0>
 8004fb8:	f04f 33ff 	mov.w	r3, #4294967295	; 0xffffffff
 8004fbc:	e7eb      	b.n	8004f96 <_strtod_l+0x88e>
 8004fbe:	460b      	mov	r3, r1
 8004fc0:	e7e9      	b.n	8004f96 <_strtod_l+0x88e>
 8004fc2:	bb7b      	cbnz	r3, 8005024 <_strtod_l+0x91c>
 8004fc4:	f1b9 0f00 	cmp.w	r9, #0
 8004fc8:	d12c      	bne.n	8005024 <_strtod_l+0x91c>
 8004fca:	9905      	ldr	r1, [sp, #20]
 8004fcc:	4653      	mov	r3, sl
 8004fce:	4a99      	ldr	r2, [pc, #612]	; (8005234 <_strtod_l+0xb2c>)
 8004fd0:	b1f1      	cbz	r1, 8005010 <_strtod_l+0x908>
 8004fd2:	ea02 010a 	and.w	r1, r2, sl
 8004fd6:	f1b1 6fd6 	cmp.w	r1, #112197632	; 0x6b00000
 8004fda:	dc19      	bgt.n	8005010 <_strtod_l+0x908>
 8004fdc:	f1b1 7f5c 	cmp.w	r1, #57671680	; 0x3700000
 8004fe0:	f77f ae51 	ble.w	8004c86 <_strtod_l+0x57e>
 8004fe4:	2300      	movs	r3, #0
 8004fe6:	4a95      	ldr	r2, [pc, #596]	; (800523c <_strtod_l+0xb34>)
 8004fe8:	4648      	mov	r0, r9
 8004fea:	e9cd 3214 	strd	r3, r2, [sp, #80]	; 0x50
 8004fee:	4651      	mov	r1, sl
 8004ff0:	e9dd 2314 	ldrd	r2, r3, [sp, #80]	; 0x50
 8004ff4:	f7fb fa70 	bl	80004d8 <__aeabi_dmul>
 8004ff8:	4681      	mov	r9, r0
 8004ffa:	468a      	mov	sl, r1
 8004ffc:	2900      	cmp	r1, #0
 8004ffe:	f47f adb0 	bne.w	8004b62 <_strtod_l+0x45a>
 8005002:	2800      	cmp	r0, #0
 8005004:	f47f adad 	bne.w	8004b62 <_strtod_l+0x45a>
 8005008:	2322      	movs	r3, #34	; 0x22
 800500a:	f8cb 3000 	str.w	r3, [fp]
 800500e:	e5a8      	b.n	8004b62 <_strtod_l+0x45a>
 8005010:	4013      	ands	r3, r2
 8005012:	f5a3 1380 	sub.w	r3, r3, #1048576	; 0x100000
 8005016:	ea6f 5a13 	mvn.w	sl, r3, lsr #20
 800501a:	f04f 39ff 	mov.w	r9, #4294967295	; 0xffffffff
 800501e:	ea6f 5a0a 	mvn.w	sl, sl, lsl #20
 8005022:	e769      	b.n	8004ef8 <_strtod_l+0x7f0>
 8005024:	b19d      	cbz	r5, 800504e <_strtod_l+0x946>
 8005026:	9b09      	ldr	r3, [sp, #36]	; 0x24
 8005028:	421d      	tst	r5, r3
 800502a:	f43f af65 	beq.w	8004ef8 <_strtod_l+0x7f0>
 800502e:	9b0c      	ldr	r3, [sp, #48]	; 0x30
 8005030:	9a05      	ldr	r2, [sp, #20]
 8005032:	4648      	mov	r0, r9
 8005034:	4651      	mov	r1, sl
 8005036:	b173      	cbz	r3, 8005056 <_strtod_l+0x94e>
 8005038:	f7ff fb44 	bl	80046c4 <sulp>
 800503c:	4602      	mov	r2, r0
 800503e:	460b      	mov	r3, r1
 8005040:	e9dd 010a 	ldrd	r0, r1, [sp, #40]	; 0x28
 8005044:	f7fb f892 	bl	800016c <__adddf3>
 8005048:	4681      	mov	r9, r0
 800504a:	468a      	mov	sl, r1
 800504c:	e754      	b.n	8004ef8 <_strtod_l+0x7f0>
 800504e:	9b0f      	ldr	r3, [sp, #60]	; 0x3c
 8005050:	ea13 0f09 	tst.w	r3, r9
 8005054:	e7e9      	b.n	800502a <_strtod_l+0x922>
 8005056:	f7ff fb35 	bl	80046c4 <sulp>
 800505a:	4602      	mov	r2, r0
 800505c:	460b      	mov	r3, r1
 800505e:	e9dd 010a 	ldrd	r0, r1, [sp, #40]	; 0x28
 8005062:	f7fb f881 	bl	8000168 <__aeabi_dsub>
 8005066:	2200      	movs	r2, #0
 8005068:	2300      	movs	r3, #0
 800506a:	4681      	mov	r9, r0
 800506c:	468a      	mov	sl, r1
 800506e:	f7fb fc9b 	bl	80009a8 <__aeabi_dcmpeq>
 8005072:	2800      	cmp	r0, #0
 8005074:	f47f ae07 	bne.w	8004c86 <_strtod_l+0x57e>
 8005078:	e73e      	b.n	8004ef8 <_strtod_l+0x7f0>
 800507a:	9904      	ldr	r1, [sp, #16]
 800507c:	4640      	mov	r0, r8
 800507e:	f002 f9d4 	bl	800742a <__ratio>
 8005082:	2200      	movs	r2, #0
 8005084:	f04f 4380 	mov.w	r3, #1073741824	; 0x40000000
 8005088:	4606      	mov	r6, r0
 800508a:	460f      	mov	r7, r1
 800508c:	f7fb fca0 	bl	80009d0 <__aeabi_dcmple>
 8005090:	2800      	cmp	r0, #0
 8005092:	d075      	beq.n	8005180 <_strtod_l+0xa78>
 8005094:	9b0c      	ldr	r3, [sp, #48]	; 0x30
 8005096:	2b00      	cmp	r3, #0
 8005098:	d047      	beq.n	800512a <_strtod_l+0xa22>
 800509a:	2600      	movs	r6, #0
 800509c:	4f68      	ldr	r7, [pc, #416]	; (8005240 <_strtod_l+0xb38>)
 800509e:	4d68      	ldr	r5, [pc, #416]	; (8005240 <_strtod_l+0xb38>)
 80050a0:	9b09      	ldr	r3, [sp, #36]	; 0x24
 80050a2:	f023 4300 	bic.w	r3, r3, #2147483648	; 0x80000000
 80050a6:	0d1b      	lsrs	r3, r3, #20
 80050a8:	051b      	lsls	r3, r3, #20
 80050aa:	930f      	str	r3, [sp, #60]	; 0x3c
 80050ac:	9a0f      	ldr	r2, [sp, #60]	; 0x3c
 80050ae:	4b65      	ldr	r3, [pc, #404]	; (8005244 <_strtod_l+0xb3c>)
 80050b0:	429a      	cmp	r2, r3
 80050b2:	f040 80cf 	bne.w	8005254 <_strtod_l+0xb4c>
 80050b6:	e9dd 230a 	ldrd	r2, r3, [sp, #40]	; 0x28
 80050ba:	e9cd 2314 	strd	r2, r3, [sp, #80]	; 0x50
 80050be:	9b09      	ldr	r3, [sp, #36]	; 0x24
 80050c0:	4648      	mov	r0, r9
 80050c2:	f1a3 7a54 	sub.w	sl, r3, #55574528	; 0x3500000
 80050c6:	4651      	mov	r1, sl
 80050c8:	f002 f8ea 	bl	80072a0 <__ulp>
 80050cc:	4602      	mov	r2, r0
 80050ce:	460b      	mov	r3, r1
 80050d0:	4630      	mov	r0, r6
 80050d2:	4639      	mov	r1, r7
 80050d4:	f7fb fa00 	bl	80004d8 <__aeabi_dmul>
 80050d8:	464a      	mov	r2, r9
 80050da:	4653      	mov	r3, sl
 80050dc:	f7fb f846 	bl	800016c <__adddf3>
 80050e0:	460b      	mov	r3, r1
 80050e2:	4954      	ldr	r1, [pc, #336]	; (8005234 <_strtod_l+0xb2c>)
 80050e4:	4a58      	ldr	r2, [pc, #352]	; (8005248 <_strtod_l+0xb40>)
 80050e6:	4019      	ands	r1, r3
 80050e8:	4291      	cmp	r1, r2
 80050ea:	4681      	mov	r9, r0
 80050ec:	d95e      	bls.n	80051ac <_strtod_l+0xaa4>
 80050ee:	9b0b      	ldr	r3, [sp, #44]	; 0x2c
 80050f0:	f102 7254 	add.w	r2, r2, #55574528	; 0x3500000
 80050f4:	4293      	cmp	r3, r2
 80050f6:	d103      	bne.n	8005100 <_strtod_l+0x9f8>
 80050f8:	9b0a      	ldr	r3, [sp, #40]	; 0x28
 80050fa:	3301      	adds	r3, #1
 80050fc:	f43f ad26 	beq.w	8004b4c <_strtod_l+0x444>
 8005100:	f04f 39ff 	mov.w	r9, #4294967295	; 0xffffffff
 8005104:	f8df a130 	ldr.w	sl, [pc, #304]	; 8005238 <_strtod_l+0xb30>
 8005108:	991c      	ldr	r1, [sp, #112]	; 0x70
 800510a:	4658      	mov	r0, fp
 800510c:	f001 fe31 	bl	8006d72 <_Bfree>
 8005110:	9906      	ldr	r1, [sp, #24]
 8005112:	4658      	mov	r0, fp
 8005114:	f001 fe2d 	bl	8006d72 <_Bfree>
 8005118:	9904      	ldr	r1, [sp, #16]
 800511a:	4658      	mov	r0, fp
 800511c:	f001 fe29 	bl	8006d72 <_Bfree>
 8005120:	4641      	mov	r1, r8
 8005122:	4658      	mov	r0, fp
 8005124:	f001 fe25 	bl	8006d72 <_Bfree>
 8005128:	e617      	b.n	8004d5a <_strtod_l+0x652>
 800512a:	f1b9 0f00 	cmp.w	r9, #0
 800512e:	d119      	bne.n	8005164 <_strtod_l+0xa5c>
 8005130:	9b09      	ldr	r3, [sp, #36]	; 0x24
 8005132:	f3c3 0313 	ubfx	r3, r3, #0, #20
 8005136:	b9e3      	cbnz	r3, 8005172 <_strtod_l+0xa6a>
 8005138:	2200      	movs	r2, #0
 800513a:	4b41      	ldr	r3, [pc, #260]	; (8005240 <_strtod_l+0xb38>)
 800513c:	4630      	mov	r0, r6
 800513e:	4639      	mov	r1, r7
 8005140:	f7fb fc3c 	bl	80009bc <__aeabi_dcmplt>
 8005144:	b9c8      	cbnz	r0, 800517a <_strtod_l+0xa72>
 8005146:	2200      	movs	r2, #0
 8005148:	4b40      	ldr	r3, [pc, #256]	; (800524c <_strtod_l+0xb44>)
 800514a:	4630      	mov	r0, r6
 800514c:	4639      	mov	r1, r7
 800514e:	f7fb f9c3 	bl	80004d8 <__aeabi_dmul>
 8005152:	4604      	mov	r4, r0
 8005154:	460d      	mov	r5, r1
 8005156:	f105 4300 	add.w	r3, r5, #2147483648	; 0x80000000
 800515a:	9418      	str	r4, [sp, #96]	; 0x60
 800515c:	9319      	str	r3, [sp, #100]	; 0x64
 800515e:	e9dd 6718 	ldrd	r6, r7, [sp, #96]	; 0x60
 8005162:	e79d      	b.n	80050a0 <_strtod_l+0x998>
 8005164:	f1b9 0f01 	cmp.w	r9, #1
 8005168:	d103      	bne.n	8005172 <_strtod_l+0xa6a>
 800516a:	9b09      	ldr	r3, [sp, #36]	; 0x24
 800516c:	2b00      	cmp	r3, #0
 800516e:	f43f ad8a 	beq.w	8004c86 <_strtod_l+0x57e>
 8005172:	2600      	movs	r6, #0
 8005174:	4f36      	ldr	r7, [pc, #216]	; (8005250 <_strtod_l+0xb48>)
 8005176:	2400      	movs	r4, #0
 8005178:	e791      	b.n	800509e <_strtod_l+0x996>
 800517a:	9c0c      	ldr	r4, [sp, #48]	; 0x30
 800517c:	4d33      	ldr	r5, [pc, #204]	; (800524c <_strtod_l+0xb44>)
 800517e:	e7ea      	b.n	8005156 <_strtod_l+0xa4e>
 8005180:	4b32      	ldr	r3, [pc, #200]	; (800524c <_strtod_l+0xb44>)
 8005182:	2200      	movs	r2, #0
 8005184:	4630      	mov	r0, r6
 8005186:	4639      	mov	r1, r7
 8005188:	f7fb f9a6 	bl	80004d8 <__aeabi_dmul>
 800518c:	9b0c      	ldr	r3, [sp, #48]	; 0x30
 800518e:	4604      	mov	r4, r0
 8005190:	460d      	mov	r5, r1
 8005192:	b933      	cbnz	r3, 80051a2 <_strtod_l+0xa9a>
 8005194:	f101 4300 	add.w	r3, r1, #2147483648	; 0x80000000
 8005198:	9010      	str	r0, [sp, #64]	; 0x40
 800519a:	9311      	str	r3, [sp, #68]	; 0x44
 800519c:	e9dd 6710 	ldrd	r6, r7, [sp, #64]	; 0x40
 80051a0:	e77e      	b.n	80050a0 <_strtod_l+0x998>
 80051a2:	4602      	mov	r2, r0
 80051a4:	460b      	mov	r3, r1
 80051a6:	e9cd 2310 	strd	r2, r3, [sp, #64]	; 0x40
 80051aa:	e7f7      	b.n	800519c <_strtod_l+0xa94>
 80051ac:	f103 7a54 	add.w	sl, r3, #55574528	; 0x3500000
 80051b0:	9b05      	ldr	r3, [sp, #20]
 80051b2:	2b00      	cmp	r3, #0
 80051b4:	d1a8      	bne.n	8005108 <_strtod_l+0xa00>
 80051b6:	f02a 4300 	bic.w	r3, sl, #2147483648	; 0x80000000
 80051ba:	0d1b      	lsrs	r3, r3, #20
 80051bc:	9a0f      	ldr	r2, [sp, #60]	; 0x3c
 80051be:	051b      	lsls	r3, r3, #20
 80051c0:	429a      	cmp	r2, r3
 80051c2:	4656      	mov	r6, sl
 80051c4:	d1a0      	bne.n	8005108 <_strtod_l+0xa00>
 80051c6:	4629      	mov	r1, r5
 80051c8:	4620      	mov	r0, r4
 80051ca:	f7fb fc35 	bl	8000a38 <__aeabi_d2iz>
 80051ce:	f7fb f919 	bl	8000404 <__aeabi_i2d>
 80051d2:	460b      	mov	r3, r1
 80051d4:	4602      	mov	r2, r0
 80051d6:	4629      	mov	r1, r5
 80051d8:	4620      	mov	r0, r4
 80051da:	f7fa ffc5 	bl	8000168 <__aeabi_dsub>
 80051de:	9b0c      	ldr	r3, [sp, #48]	; 0x30
 80051e0:	4604      	mov	r4, r0
 80051e2:	460d      	mov	r5, r1
 80051e4:	b933      	cbnz	r3, 80051f4 <_strtod_l+0xaec>
 80051e6:	f1b9 0f00 	cmp.w	r9, #0
 80051ea:	d103      	bne.n	80051f4 <_strtod_l+0xaec>
 80051ec:	f3ca 0613 	ubfx	r6, sl, #0, #20
 80051f0:	2e00      	cmp	r6, #0
 80051f2:	d06a      	beq.n	80052ca <_strtod_l+0xbc2>
 80051f4:	a30a      	add	r3, pc, #40	; (adr r3, 8005220 <_strtod_l+0xb18>)
 80051f6:	e9d3 2300 	ldrd	r2, r3, [r3]
 80051fa:	4620      	mov	r0, r4
 80051fc:	4629      	mov	r1, r5
 80051fe:	f7fb fbdd 	bl	80009bc <__aeabi_dcmplt>
 8005202:	2800      	cmp	r0, #0
 8005204:	f47f acad 	bne.w	8004b62 <_strtod_l+0x45a>
 8005208:	a307      	add	r3, pc, #28	; (adr r3, 8005228 <_strtod_l+0xb20>)
 800520a:	e9d3 2300 	ldrd	r2, r3, [r3]
 800520e:	4620      	mov	r0, r4
 8005210:	4629      	mov	r1, r5
 8005212:	f7fb fbf1 	bl	80009f8 <__aeabi_dcmpgt>
 8005216:	2800      	cmp	r0, #0
 8005218:	f43f af76 	beq.w	8005108 <_strtod_l+0xa00>
 800521c:	e4a1      	b.n	8004b62 <_strtod_l+0x45a>
 800521e:	bf00      	nop
 8005220:	94a03595 	.word	0x94a03595
 8005224:	3fdfffff 	.word	0x3fdfffff
 8005228:	35afe535 	.word	0x35afe535
 800522c:	3fe00000 	.word	0x3fe00000
 8005230:	000fffff 	.word	0x000fffff
 8005234:	7ff00000 	.word	0x7ff00000
 8005238:	7fefffff 	.word	0x7fefffff
 800523c:	39500000 	.word	0x39500000
 8005240:	3ff00000 	.word	0x3ff00000
 8005244:	7fe00000 	.word	0x7fe00000
 8005248:	7c9fffff 	.word	0x7c9fffff
 800524c:	3fe00000 	.word	0x3fe00000
 8005250:	bff00000 	.word	0xbff00000
 8005254:	9b05      	ldr	r3, [sp, #20]
 8005256:	b313      	cbz	r3, 800529e <_strtod_l+0xb96>
 8005258:	9b0f      	ldr	r3, [sp, #60]	; 0x3c
 800525a:	f1b3 6fd4 	cmp.w	r3, #111149056	; 0x6a00000
 800525e:	d81e      	bhi.n	800529e <_strtod_l+0xb96>
 8005260:	a325      	add	r3, pc, #148	; (adr r3, 80052f8 <_strtod_l+0xbf0>)
 8005262:	e9d3 2300 	ldrd	r2, r3, [r3]
 8005266:	4620      	mov	r0, r4
 8005268:	4629      	mov	r1, r5
 800526a:	f7fb fbb1 	bl	80009d0 <__aeabi_dcmple>
 800526e:	b190      	cbz	r0, 8005296 <_strtod_l+0xb8e>
 8005270:	4629      	mov	r1, r5
 8005272:	4620      	mov	r0, r4
 8005274:	f7fb fc08 	bl	8000a88 <__aeabi_d2uiz>
 8005278:	2800      	cmp	r0, #0
 800527a:	bf08      	it	eq
 800527c:	2001      	moveq	r0, #1
 800527e:	f7fb f8b1 	bl	80003e4 <__aeabi_ui2d>
 8005282:	9b0c      	ldr	r3, [sp, #48]	; 0x30
 8005284:	4604      	mov	r4, r0
 8005286:	460d      	mov	r5, r1
 8005288:	b9d3      	cbnz	r3, 80052c0 <_strtod_l+0xbb8>
 800528a:	f101 4300 	add.w	r3, r1, #2147483648	; 0x80000000
 800528e:	9012      	str	r0, [sp, #72]	; 0x48
 8005290:	9313      	str	r3, [sp, #76]	; 0x4c
 8005292:	e9dd 6712 	ldrd	r6, r7, [sp, #72]	; 0x48
 8005296:	9a0f      	ldr	r2, [sp, #60]	; 0x3c
 8005298:	f107 63d6 	add.w	r3, r7, #112197632	; 0x6b00000
 800529c:	1a9f      	subs	r7, r3, r2
 800529e:	e9dd 010a 	ldrd	r0, r1, [sp, #40]	; 0x28
 80052a2:	f001 fffd 	bl	80072a0 <__ulp>
 80052a6:	4602      	mov	r2, r0
 80052a8:	460b      	mov	r3, r1
 80052aa:	4630      	mov	r0, r6
 80052ac:	4639      	mov	r1, r7
 80052ae:	f7fb f913 	bl	80004d8 <__aeabi_dmul>
 80052b2:	e9dd 230a 	ldrd	r2, r3, [sp, #40]	; 0x28
 80052b6:	f7fa ff59 	bl	800016c <__adddf3>
 80052ba:	4681      	mov	r9, r0
 80052bc:	468a      	mov	sl, r1
 80052be:	e777      	b.n	80051b0 <_strtod_l+0xaa8>
 80052c0:	4602      	mov	r2, r0
 80052c2:	460b      	mov	r3, r1
 80052c4:	e9cd 2312 	strd	r2, r3, [sp, #72]	; 0x48
 80052c8:	e7e3      	b.n	8005292 <_strtod_l+0xb8a>
 80052ca:	a30d      	add	r3, pc, #52	; (adr r3, 8005300 <_strtod_l+0xbf8>)
 80052cc:	e9d3 2300 	ldrd	r2, r3, [r3]
 80052d0:	f7fb fb74 	bl	80009bc <__aeabi_dcmplt>
 80052d4:	e79f      	b.n	8005216 <_strtod_l+0xb0e>
 80052d6:	2300      	movs	r3, #0
 80052d8:	930d      	str	r3, [sp, #52]	; 0x34
 80052da:	9b1b      	ldr	r3, [sp, #108]	; 0x6c
 80052dc:	9a17      	ldr	r2, [sp, #92]	; 0x5c
 80052de:	6013      	str	r3, [r2, #0]
 80052e0:	f7ff ba55 	b.w	800478e <_strtod_l+0x86>
 80052e4:	2b65      	cmp	r3, #101	; 0x65
 80052e6:	f04f 0200 	mov.w	r2, #0
 80052ea:	f43f ab42 	beq.w	8004972 <_strtod_l+0x26a>
 80052ee:	2101      	movs	r1, #1
 80052f0:	4614      	mov	r4, r2
 80052f2:	9105      	str	r1, [sp, #20]
 80052f4:	f7ff babf 	b.w	8004876 <_strtod_l+0x16e>
 80052f8:	ffc00000 	.word	0xffc00000
 80052fc:	41dfffff 	.word	0x41dfffff
 8005300:	94a03595 	.word	0x94a03595
 8005304:	3fcfffff 	.word	0x3fcfffff

08005308 <_strtod_r>:
 8005308:	4b05      	ldr	r3, [pc, #20]	; (8005320 <_strtod_r+0x18>)
 800530a:	b410      	push	{r4}
 800530c:	681b      	ldr	r3, [r3, #0]
 800530e:	4c05      	ldr	r4, [pc, #20]	; (8005324 <_strtod_r+0x1c>)
 8005310:	6a1b      	ldr	r3, [r3, #32]
 8005312:	2b00      	cmp	r3, #0
 8005314:	bf08      	it	eq
 8005316:	4623      	moveq	r3, r4
 8005318:	bc10      	pop	{r4}
 800531a:	f7ff b9f5 	b.w	8004708 <_strtod_l>
 800531e:	bf00      	nop
 8005320:	20000024 	.word	0x20000024
 8005324:	20000088 	.word	0x20000088

08005328 <strtod>:
 8005328:	4b06      	ldr	r3, [pc, #24]	; (8005344 <strtod+0x1c>)
 800532a:	b410      	push	{r4}
 800532c:	681c      	ldr	r4, [r3, #0]
 800532e:	4a06      	ldr	r2, [pc, #24]	; (8005348 <strtod+0x20>)
 8005330:	6a23      	ldr	r3, [r4, #32]
 8005332:	2b00      	cmp	r3, #0
 8005334:	bf08      	it	eq
 8005336:	4613      	moveq	r3, r2
 8005338:	460a      	mov	r2, r1
 800533a:	4601      	mov	r1, r0
 800533c:	4620      	mov	r0, r4
 800533e:	bc10      	pop	{r4}
 8005340:	f7ff b9e2 	b.w	8004708 <_strtod_l>
 8005344:	20000024 	.word	0x20000024
 8005348:	20000088 	.word	0x20000088

0800534c <_strtol_l.isra.0>:
 800534c:	e92d 47f0 	stmdb	sp!, {r4, r5, r6, r7, r8, r9, sl, lr}
 8005350:	4680      	mov	r8, r0
 8005352:	4689      	mov	r9, r1
 8005354:	4692      	mov	sl, r2
 8005356:	461e      	mov	r6, r3
 8005358:	460f      	mov	r7, r1
 800535a:	463d      	mov	r5, r7
 800535c:	9808      	ldr	r0, [sp, #32]
 800535e:	f815 4b01 	ldrb.w	r4, [r5], #1
 8005362:	f001 fc27 	bl	8006bb4 <__locale_ctype_ptr_l>
 8005366:	4420      	add	r0, r4
 8005368:	7843      	ldrb	r3, [r0, #1]
 800536a:	f013 0308 	ands.w	r3, r3, #8
 800536e:	d132      	bne.n	80053d6 <_strtol_l.isra.0+0x8a>
 8005370:	2c2d      	cmp	r4, #45	; 0x2d
 8005372:	d132      	bne.n	80053da <_strtol_l.isra.0+0x8e>
 8005374:	2201      	movs	r2, #1
 8005376:	787c      	ldrb	r4, [r7, #1]
 8005378:	1cbd      	adds	r5, r7, #2
 800537a:	2e00      	cmp	r6, #0
 800537c:	d05d      	beq.n	800543a <_strtol_l.isra.0+0xee>
 800537e:	2e10      	cmp	r6, #16
 8005380:	d109      	bne.n	8005396 <_strtol_l.isra.0+0x4a>
 8005382:	2c30      	cmp	r4, #48	; 0x30
 8005384:	d107      	bne.n	8005396 <_strtol_l.isra.0+0x4a>
 8005386:	782b      	ldrb	r3, [r5, #0]
 8005388:	f003 03df 	and.w	r3, r3, #223	; 0xdf
 800538c:	2b58      	cmp	r3, #88	; 0x58
 800538e:	d14f      	bne.n	8005430 <_strtol_l.isra.0+0xe4>
 8005390:	2610      	movs	r6, #16
 8005392:	786c      	ldrb	r4, [r5, #1]
 8005394:	3502      	adds	r5, #2
 8005396:	2a00      	cmp	r2, #0
 8005398:	bf14      	ite	ne
 800539a:	f04f 4100 	movne.w	r1, #2147483648	; 0x80000000
 800539e:	f06f 4100 	mvneq.w	r1, #2147483648	; 0x80000000
 80053a2:	2700      	movs	r7, #0
 80053a4:	fbb1 fcf6 	udiv	ip, r1, r6
 80053a8:	4638      	mov	r0, r7
 80053aa:	fb06 1e1c 	mls	lr, r6, ip, r1
 80053ae:	f1a4 0330 	sub.w	r3, r4, #48	; 0x30
 80053b2:	2b09      	cmp	r3, #9
 80053b4:	d817      	bhi.n	80053e6 <_strtol_l.isra.0+0x9a>
 80053b6:	461c      	mov	r4, r3
 80053b8:	42a6      	cmp	r6, r4
 80053ba:	dd23      	ble.n	8005404 <_strtol_l.isra.0+0xb8>
 80053bc:	1c7b      	adds	r3, r7, #1
 80053be:	d007      	beq.n	80053d0 <_strtol_l.isra.0+0x84>
 80053c0:	4584      	cmp	ip, r0
 80053c2:	d31c      	bcc.n	80053fe <_strtol_l.isra.0+0xb2>
 80053c4:	d101      	bne.n	80053ca <_strtol_l.isra.0+0x7e>
 80053c6:	45a6      	cmp	lr, r4
 80053c8:	db19      	blt.n	80053fe <_strtol_l.isra.0+0xb2>
 80053ca:	2701      	movs	r7, #1
 80053cc:	fb00 4006 	mla	r0, r0, r6, r4
 80053d0:	f815 4b01 	ldrb.w	r4, [r5], #1
 80053d4:	e7eb      	b.n	80053ae <_strtol_l.isra.0+0x62>
 80053d6:	462f      	mov	r7, r5
 80053d8:	e7bf      	b.n	800535a <_strtol_l.isra.0+0xe>
 80053da:	2c2b      	cmp	r4, #43	; 0x2b
 80053dc:	bf04      	itt	eq
 80053de:	1cbd      	addeq	r5, r7, #2
 80053e0:	787c      	ldrbeq	r4, [r7, #1]
 80053e2:	461a      	mov	r2, r3
 80053e4:	e7c9      	b.n	800537a <_strtol_l.isra.0+0x2e>
 80053e6:	f1a4 0341 	sub.w	r3, r4, #65	; 0x41
 80053ea:	2b19      	cmp	r3, #25
 80053ec:	d801      	bhi.n	80053f2 <_strtol_l.isra.0+0xa6>
 80053ee:	3c37      	subs	r4, #55	; 0x37
 80053f0:	e7e2      	b.n	80053b8 <_strtol_l.isra.0+0x6c>
 80053f2:	f1a4 0361 	sub.w	r3, r4, #97	; 0x61
 80053f6:	2b19      	cmp	r3, #25
 80053f8:	d804      	bhi.n	8005404 <_strtol_l.isra.0+0xb8>
 80053fa:	3c57      	subs	r4, #87	; 0x57
 80053fc:	e7dc      	b.n	80053b8 <_strtol_l.isra.0+0x6c>
 80053fe:	f04f 37ff 	mov.w	r7, #4294967295	; 0xffffffff
 8005402:	e7e5      	b.n	80053d0 <_strtol_l.isra.0+0x84>
 8005404:	1c7b      	adds	r3, r7, #1
 8005406:	d108      	bne.n	800541a <_strtol_l.isra.0+0xce>
 8005408:	2322      	movs	r3, #34	; 0x22
 800540a:	4608      	mov	r0, r1
 800540c:	f8c8 3000 	str.w	r3, [r8]
 8005410:	f1ba 0f00 	cmp.w	sl, #0
 8005414:	d107      	bne.n	8005426 <_strtol_l.isra.0+0xda>
 8005416:	e8bd 87f0 	ldmia.w	sp!, {r4, r5, r6, r7, r8, r9, sl, pc}
 800541a:	b102      	cbz	r2, 800541e <_strtol_l.isra.0+0xd2>
 800541c:	4240      	negs	r0, r0
 800541e:	f1ba 0f00 	cmp.w	sl, #0
 8005422:	d0f8      	beq.n	8005416 <_strtol_l.isra.0+0xca>
 8005424:	b10f      	cbz	r7, 800542a <_strtol_l.isra.0+0xde>
 8005426:	f105 39ff 	add.w	r9, r5, #4294967295	; 0xffffffff
 800542a:	f8ca 9000 	str.w	r9, [sl]
 800542e:	e7f2      	b.n	8005416 <_strtol_l.isra.0+0xca>
 8005430:	2430      	movs	r4, #48	; 0x30
 8005432:	2e00      	cmp	r6, #0
 8005434:	d1af      	bne.n	8005396 <_strtol_l.isra.0+0x4a>
 8005436:	2608      	movs	r6, #8
 8005438:	e7ad      	b.n	8005396 <_strtol_l.isra.0+0x4a>
 800543a:	2c30      	cmp	r4, #48	; 0x30
 800543c:	d0a3      	beq.n	8005386 <_strtol_l.isra.0+0x3a>
 800543e:	260a      	movs	r6, #10
 8005440:	e7a9      	b.n	8005396 <_strtol_l.isra.0+0x4a>
	...

08005444 <_strtol_r>:
 8005444:	b537      	push	{r0, r1, r2, r4, r5, lr}
 8005446:	4c06      	ldr	r4, [pc, #24]	; (8005460 <_strtol_r+0x1c>)
 8005448:	4d06      	ldr	r5, [pc, #24]	; (8005464 <_strtol_r+0x20>)
 800544a:	6824      	ldr	r4, [r4, #0]
 800544c:	6a24      	ldr	r4, [r4, #32]
 800544e:	2c00      	cmp	r4, #0
 8005450:	bf08      	it	eq
 8005452:	462c      	moveq	r4, r5
 8005454:	9400      	str	r4, [sp, #0]
 8005456:	f7ff ff79 	bl	800534c <_strtol_l.isra.0>
 800545a:	b003      	add	sp, #12
 800545c:	bd30      	pop	{r4, r5, pc}
 800545e:	bf00      	nop
 8005460:	20000024 	.word	0x20000024
 8005464:	20000088 	.word	0x20000088

08005468 <__swbuf_r>:
 8005468:	b5f8      	push	{r3, r4, r5, r6, r7, lr}
 800546a:	460e      	mov	r6, r1
 800546c:	4614      	mov	r4, r2
 800546e:	4605      	mov	r5, r0
 8005470:	b118      	cbz	r0, 800547a <__swbuf_r+0x12>
 8005472:	6983      	ldr	r3, [r0, #24]
 8005474:	b90b      	cbnz	r3, 800547a <__swbuf_r+0x12>
 8005476:	f000 ffeb 	bl	8006450 <__sinit>
 800547a:	4b21      	ldr	r3, [pc, #132]	; (8005500 <__swbuf_r+0x98>)
 800547c:	429c      	cmp	r4, r3
 800547e:	d12a      	bne.n	80054d6 <__swbuf_r+0x6e>
 8005480:	686c      	ldr	r4, [r5, #4]
 8005482:	69a3      	ldr	r3, [r4, #24]
 8005484:	60a3      	str	r3, [r4, #8]
 8005486:	89a3      	ldrh	r3, [r4, #12]
 8005488:	071a      	lsls	r2, r3, #28
 800548a:	d52e      	bpl.n	80054ea <__swbuf_r+0x82>
 800548c:	6923      	ldr	r3, [r4, #16]
 800548e:	b363      	cbz	r3, 80054ea <__swbuf_r+0x82>
 8005490:	6923      	ldr	r3, [r4, #16]
 8005492:	6820      	ldr	r0, [r4, #0]
 8005494:	b2f6      	uxtb	r6, r6
 8005496:	1ac0      	subs	r0, r0, r3
 8005498:	6963      	ldr	r3, [r4, #20]
 800549a:	4637      	mov	r7, r6
 800549c:	4283      	cmp	r3, r0
 800549e:	dc04      	bgt.n	80054aa <__swbuf_r+0x42>
 80054a0:	4621      	mov	r1, r4
 80054a2:	4628      	mov	r0, r5
 80054a4:	f000 ff6a 	bl	800637c <_fflush_r>
 80054a8:	bb28      	cbnz	r0, 80054f6 <__swbuf_r+0x8e>
 80054aa:	68a3      	ldr	r3, [r4, #8]
 80054ac:	3001      	adds	r0, #1
 80054ae:	3b01      	subs	r3, #1
 80054b0:	60a3      	str	r3, [r4, #8]
 80054b2:	6823      	ldr	r3, [r4, #0]
 80054b4:	1c5a      	adds	r2, r3, #1
 80054b6:	6022      	str	r2, [r4, #0]
 80054b8:	701e      	strb	r6, [r3, #0]
 80054ba:	6963      	ldr	r3, [r4, #20]
 80054bc:	4283      	cmp	r3, r0
 80054be:	d004      	beq.n	80054ca <__swbuf_r+0x62>
 80054c0:	89a3      	ldrh	r3, [r4, #12]
 80054c2:	07db      	lsls	r3, r3, #31
 80054c4:	d519      	bpl.n	80054fa <__swbuf_r+0x92>
 80054c6:	2e0a      	cmp	r6, #10
 80054c8:	d117      	bne.n	80054fa <__swbuf_r+0x92>
 80054ca:	4621      	mov	r1, r4
 80054cc:	4628      	mov	r0, r5
 80054ce:	f000 ff55 	bl	800637c <_fflush_r>
 80054d2:	b190      	cbz	r0, 80054fa <__swbuf_r+0x92>
 80054d4:	e00f      	b.n	80054f6 <__swbuf_r+0x8e>
 80054d6:	4b0b      	ldr	r3, [pc, #44]	; (8005504 <__swbuf_r+0x9c>)
 80054d8:	429c      	cmp	r4, r3
 80054da:	d101      	bne.n	80054e0 <__swbuf_r+0x78>
 80054dc:	68ac      	ldr	r4, [r5, #8]
 80054de:	e7d0      	b.n	8005482 <__swbuf_r+0x1a>
 80054e0:	4b09      	ldr	r3, [pc, #36]	; (8005508 <__swbuf_r+0xa0>)
 80054e2:	429c      	cmp	r4, r3
 80054e4:	bf08      	it	eq
 80054e6:	68ec      	ldreq	r4, [r5, #12]
 80054e8:	e7cb      	b.n	8005482 <__swbuf_r+0x1a>
 80054ea:	4621      	mov	r1, r4
 80054ec:	4628      	mov	r0, r5
 80054ee:	f000 f80d 	bl	800550c <__swsetup_r>
 80054f2:	2800      	cmp	r0, #0
 80054f4:	d0cc      	beq.n	8005490 <__swbuf_r+0x28>
 80054f6:	f04f 37ff 	mov.w	r7, #4294967295	; 0xffffffff
 80054fa:	4638      	mov	r0, r7
 80054fc:	bdf8      	pop	{r3, r4, r5, r6, r7, pc}
 80054fe:	bf00      	nop
 8005500:	08008010 	.word	0x08008010
 8005504:	08008030 	.word	0x08008030
 8005508:	08007ff0 	.word	0x08007ff0

0800550c <__swsetup_r>:
 800550c:	4b32      	ldr	r3, [pc, #200]	; (80055d8 <__swsetup_r+0xcc>)
 800550e:	b570      	push	{r4, r5, r6, lr}
 8005510:	681d      	ldr	r5, [r3, #0]
 8005512:	4606      	mov	r6, r0
 8005514:	460c      	mov	r4, r1
 8005516:	b125      	cbz	r5, 8005522 <__swsetup_r+0x16>
 8005518:	69ab      	ldr	r3, [r5, #24]
 800551a:	b913      	cbnz	r3, 8005522 <__swsetup_r+0x16>
 800551c:	4628      	mov	r0, r5
 800551e:	f000 ff97 	bl	8006450 <__sinit>
 8005522:	4b2e      	ldr	r3, [pc, #184]	; (80055dc <__swsetup_r+0xd0>)
 8005524:	429c      	cmp	r4, r3
 8005526:	d10f      	bne.n	8005548 <__swsetup_r+0x3c>
 8005528:	686c      	ldr	r4, [r5, #4]
 800552a:	f9b4 300c 	ldrsh.w	r3, [r4, #12]
 800552e:	b29a      	uxth	r2, r3
 8005530:	0715      	lsls	r5, r2, #28
 8005532:	d42c      	bmi.n	800558e <__swsetup_r+0x82>
 8005534:	06d0      	lsls	r0, r2, #27
 8005536:	d411      	bmi.n	800555c <__swsetup_r+0x50>
 8005538:	2209      	movs	r2, #9
 800553a:	6032      	str	r2, [r6, #0]
 800553c:	f043 0340 	orr.w	r3, r3, #64	; 0x40
 8005540:	81a3      	strh	r3, [r4, #12]
 8005542:	f04f 30ff 	mov.w	r0, #4294967295	; 0xffffffff
 8005546:	e03e      	b.n	80055c6 <__swsetup_r+0xba>
 8005548:	4b25      	ldr	r3, [pc, #148]	; (80055e0 <__swsetup_r+0xd4>)
 800554a:	429c      	cmp	r4, r3
 800554c:	d101      	bne.n	8005552 <__swsetup_r+0x46>
 800554e:	68ac      	ldr	r4, [r5, #8]
 8005550:	e7eb      	b.n	800552a <__swsetup_r+0x1e>
 8005552:	4b24      	ldr	r3, [pc, #144]	; (80055e4 <__swsetup_r+0xd8>)
 8005554:	429c      	cmp	r4, r3
 8005556:	bf08      	it	eq
 8005558:	68ec      	ldreq	r4, [r5, #12]
 800555a:	e7e6      	b.n	800552a <__swsetup_r+0x1e>
 800555c:	0751      	lsls	r1, r2, #29
 800555e:	d512      	bpl.n	8005586 <__swsetup_r+0x7a>
 8005560:	6b61      	ldr	r1, [r4, #52]	; 0x34
 8005562:	b141      	cbz	r1, 8005576 <__swsetup_r+0x6a>
 8005564:	f104 0344 	add.w	r3, r4, #68	; 0x44
 8005568:	4299      	cmp	r1, r3
 800556a:	d002      	beq.n	8005572 <__swsetup_r+0x66>
 800556c:	4630      	mov	r0, r6
 800556e:	f001 ffd3 	bl	8007518 <_free_r>
 8005572:	2300      	movs	r3, #0
 8005574:	6363      	str	r3, [r4, #52]	; 0x34
 8005576:	89a3      	ldrh	r3, [r4, #12]
 8005578:	f023 0324 	bic.w	r3, r3, #36	; 0x24
 800557c:	81a3      	strh	r3, [r4, #12]
 800557e:	2300      	movs	r3, #0
 8005580:	6063      	str	r3, [r4, #4]
 8005582:	6923      	ldr	r3, [r4, #16]
 8005584:	6023      	str	r3, [r4, #0]
 8005586:	89a3      	ldrh	r3, [r4, #12]
 8005588:	f043 0308 	orr.w	r3, r3, #8
 800558c:	81a3      	strh	r3, [r4, #12]
 800558e:	6923      	ldr	r3, [r4, #16]
 8005590:	b94b      	cbnz	r3, 80055a6 <__swsetup_r+0x9a>
 8005592:	89a3      	ldrh	r3, [r4, #12]
 8005594:	f403 7320 	and.w	r3, r3, #640	; 0x280
 8005598:	f5b3 7f00 	cmp.w	r3, #512	; 0x200
 800559c:	d003      	beq.n	80055a6 <__swsetup_r+0x9a>
 800559e:	4621      	mov	r1, r4
 80055a0:	4630      	mov	r0, r6
 80055a2:	f001 fb3f 	bl	8006c24 <__smakebuf_r>
 80055a6:	89a2      	ldrh	r2, [r4, #12]
 80055a8:	f012 0301 	ands.w	r3, r2, #1
 80055ac:	d00c      	beq.n	80055c8 <__swsetup_r+0xbc>
 80055ae:	2300      	movs	r3, #0
 80055b0:	60a3      	str	r3, [r4, #8]
 80055b2:	6963      	ldr	r3, [r4, #20]
 80055b4:	425b      	negs	r3, r3
 80055b6:	61a3      	str	r3, [r4, #24]
 80055b8:	6923      	ldr	r3, [r4, #16]
 80055ba:	b953      	cbnz	r3, 80055d2 <__swsetup_r+0xc6>
 80055bc:	f9b4 300c 	ldrsh.w	r3, [r4, #12]
 80055c0:	f013 0080 	ands.w	r0, r3, #128	; 0x80
 80055c4:	d1ba      	bne.n	800553c <__swsetup_r+0x30>
 80055c6:	bd70      	pop	{r4, r5, r6, pc}
 80055c8:	0792      	lsls	r2, r2, #30
 80055ca:	bf58      	it	pl
 80055cc:	6963      	ldrpl	r3, [r4, #20]
 80055ce:	60a3      	str	r3, [r4, #8]
 80055d0:	e7f2      	b.n	80055b8 <__swsetup_r+0xac>
 80055d2:	2000      	movs	r0, #0
 80055d4:	e7f7      	b.n	80055c6 <__swsetup_r+0xba>
 80055d6:	bf00      	nop
 80055d8:	20000024 	.word	0x20000024
 80055dc:	08008010 	.word	0x08008010
 80055e0:	08008030 	.word	0x08008030
 80055e4:	08007ff0 	.word	0x08007ff0

080055e8 <quorem>:
 80055e8:	e92d 4ff7 	stmdb	sp!, {r0, r1, r2, r4, r5, r6, r7, r8, r9, sl, fp, lr}
 80055ec:	6903      	ldr	r3, [r0, #16]
 80055ee:	690c      	ldr	r4, [r1, #16]
 80055f0:	4680      	mov	r8, r0
 80055f2:	42a3      	cmp	r3, r4
 80055f4:	f2c0 8084 	blt.w	8005700 <quorem+0x118>
 80055f8:	3c01      	subs	r4, #1
 80055fa:	f101 0714 	add.w	r7, r1, #20
 80055fe:	f100 0614 	add.w	r6, r0, #20
 8005602:	f857 5024 	ldr.w	r5, [r7, r4, lsl #2]
 8005606:	f856 0024 	ldr.w	r0, [r6, r4, lsl #2]
 800560a:	3501      	adds	r5, #1
 800560c:	fbb0 f5f5 	udiv	r5, r0, r5
 8005610:	ea4f 0c84 	mov.w	ip, r4, lsl #2
 8005614:	eb06 030c 	add.w	r3, r6, ip
 8005618:	eb07 090c 	add.w	r9, r7, ip
 800561c:	9301      	str	r3, [sp, #4]
 800561e:	b39d      	cbz	r5, 8005688 <quorem+0xa0>
 8005620:	f04f 0a00 	mov.w	sl, #0
 8005624:	4638      	mov	r0, r7
 8005626:	46b6      	mov	lr, r6
 8005628:	46d3      	mov	fp, sl
 800562a:	f850 2b04 	ldr.w	r2, [r0], #4
 800562e:	b293      	uxth	r3, r2
 8005630:	fb05 a303 	mla	r3, r5, r3, sl
 8005634:	0c12      	lsrs	r2, r2, #16
 8005636:	ea4f 4a13 	mov.w	sl, r3, lsr #16
 800563a:	fb05 a202 	mla	r2, r5, r2, sl
 800563e:	b29b      	uxth	r3, r3
 8005640:	ebab 0303 	sub.w	r3, fp, r3
 8005644:	f8de b000 	ldr.w	fp, [lr]
 8005648:	ea4f 4a12 	mov.w	sl, r2, lsr #16
 800564c:	fa1f fb8b 	uxth.w	fp, fp
 8005650:	445b      	add	r3, fp
 8005652:	fa1f fb82 	uxth.w	fp, r2
 8005656:	f8de 2000 	ldr.w	r2, [lr]
 800565a:	4581      	cmp	r9, r0
 800565c:	ebcb 4212 	rsb	r2, fp, r2, lsr #16
 8005660:	eb02 4223 	add.w	r2, r2, r3, asr #16
 8005664:	b29b      	uxth	r3, r3
 8005666:	ea43 4302 	orr.w	r3, r3, r2, lsl #16
 800566a:	ea4f 4b22 	mov.w	fp, r2, asr #16
 800566e:	f84e 3b04 	str.w	r3, [lr], #4
 8005672:	d2da      	bcs.n	800562a <quorem+0x42>
 8005674:	f856 300c 	ldr.w	r3, [r6, ip]
 8005678:	b933      	cbnz	r3, 8005688 <quorem+0xa0>
 800567a:	9b01      	ldr	r3, [sp, #4]
 800567c:	3b04      	subs	r3, #4
 800567e:	429e      	cmp	r6, r3
 8005680:	461a      	mov	r2, r3
 8005682:	d331      	bcc.n	80056e8 <quorem+0x100>
 8005684:	f8c8 4010 	str.w	r4, [r8, #16]
 8005688:	4640      	mov	r0, r8
 800568a:	f001 fd91 	bl	80071b0 <__mcmp>
 800568e:	2800      	cmp	r0, #0
 8005690:	db26      	blt.n	80056e0 <quorem+0xf8>
 8005692:	4630      	mov	r0, r6
 8005694:	f04f 0c00 	mov.w	ip, #0
 8005698:	3501      	adds	r5, #1
 800569a:	f857 1b04 	ldr.w	r1, [r7], #4
 800569e:	f8d0 e000 	ldr.w	lr, [r0]
 80056a2:	b28b      	uxth	r3, r1
 80056a4:	ebac 0303 	sub.w	r3, ip, r3
 80056a8:	fa1f f28e 	uxth.w	r2, lr
 80056ac:	4413      	add	r3, r2
 80056ae:	0c0a      	lsrs	r2, r1, #16
 80056b0:	ebc2 421e 	rsb	r2, r2, lr, lsr #16
 80056b4:	eb02 4223 	add.w	r2, r2, r3, asr #16
 80056b8:	b29b      	uxth	r3, r3
 80056ba:	ea43 4302 	orr.w	r3, r3, r2, lsl #16
 80056be:	45b9      	cmp	r9, r7
 80056c0:	ea4f 4c22 	mov.w	ip, r2, asr #16
 80056c4:	f840 3b04 	str.w	r3, [r0], #4
 80056c8:	d2e7      	bcs.n	800569a <quorem+0xb2>
 80056ca:	f856 2024 	ldr.w	r2, [r6, r4, lsl #2]
 80056ce:	eb06 0384 	add.w	r3, r6, r4, lsl #2
 80056d2:	b92a      	cbnz	r2, 80056e0 <quorem+0xf8>
 80056d4:	3b04      	subs	r3, #4
 80056d6:	429e      	cmp	r6, r3
 80056d8:	461a      	mov	r2, r3
 80056da:	d30b      	bcc.n	80056f4 <quorem+0x10c>
 80056dc:	f8c8 4010 	str.w	r4, [r8, #16]
 80056e0:	4628      	mov	r0, r5
 80056e2:	b003      	add	sp, #12
 80056e4:	e8bd 8ff0 	ldmia.w	sp!, {r4, r5, r6, r7, r8, r9, sl, fp, pc}
 80056e8:	6812      	ldr	r2, [r2, #0]
 80056ea:	3b04      	subs	r3, #4
 80056ec:	2a00      	cmp	r2, #0
 80056ee:	d1c9      	bne.n	8005684 <quorem+0x9c>
 80056f0:	3c01      	subs	r4, #1
 80056f2:	e7c4      	b.n	800567e <quorem+0x96>
 80056f4:	6812      	ldr	r2, [r2, #0]
 80056f6:	3b04      	subs	r3, #4
 80056f8:	2a00      	cmp	r2, #0
 80056fa:	d1ef      	bne.n	80056dc <quorem+0xf4>
 80056fc:	3c01      	subs	r4, #1
 80056fe:	e7ea      	b.n	80056d6 <quorem+0xee>
 8005700:	2000      	movs	r0, #0
 8005702:	e7ee      	b.n	80056e2 <quorem+0xfa>
 8005704:	0000      	movs	r0, r0
	...

08005708 <_dtoa_r>:
 8005708:	e92d 4ff0 	stmdb	sp!, {r4, r5, r6, r7, r8, r9, sl, fp, lr}
 800570c:	4616      	mov	r6, r2
 800570e:	461f      	mov	r7, r3
 8005710:	6a45      	ldr	r5, [r0, #36]	; 0x24
 8005712:	b095      	sub	sp, #84	; 0x54
 8005714:	4604      	mov	r4, r0
 8005716:	f8dd 8084 	ldr.w	r8, [sp, #132]	; 0x84
 800571a:	e9cd 6702 	strd	r6, r7, [sp, #8]
 800571e:	b93d      	cbnz	r5, 8005730 <_dtoa_r+0x28>
 8005720:	2010      	movs	r0, #16
 8005722:	f001 fabf 	bl	8006ca4 <malloc>
 8005726:	6260      	str	r0, [r4, #36]	; 0x24
 8005728:	e9c0 5501 	strd	r5, r5, [r0, #4]
 800572c:	6005      	str	r5, [r0, #0]
 800572e:	60c5      	str	r5, [r0, #12]
 8005730:	6a63      	ldr	r3, [r4, #36]	; 0x24
 8005732:	6819      	ldr	r1, [r3, #0]
 8005734:	b151      	cbz	r1, 800574c <_dtoa_r+0x44>
 8005736:	685a      	ldr	r2, [r3, #4]
 8005738:	2301      	movs	r3, #1
 800573a:	4093      	lsls	r3, r2
 800573c:	604a      	str	r2, [r1, #4]
 800573e:	608b      	str	r3, [r1, #8]
 8005740:	4620      	mov	r0, r4
 8005742:	f001 fb16 	bl	8006d72 <_Bfree>
 8005746:	2200      	movs	r2, #0
 8005748:	6a63      	ldr	r3, [r4, #36]	; 0x24
 800574a:	601a      	str	r2, [r3, #0]
 800574c:	1e3b      	subs	r3, r7, #0
 800574e:	bfaf      	iteee	ge
 8005750:	2300      	movge	r3, #0
 8005752:	2201      	movlt	r2, #1
 8005754:	f023 4300 	biclt.w	r3, r3, #2147483648	; 0x80000000
 8005758:	9303      	strlt	r3, [sp, #12]
 800575a:	bfac      	ite	ge
 800575c:	f8c8 3000 	strge.w	r3, [r8]
 8005760:	f8c8 2000 	strlt.w	r2, [r8]
 8005764:	4bae      	ldr	r3, [pc, #696]	; (8005a20 <_dtoa_r+0x318>)
 8005766:	f8dd 800c 	ldr.w	r8, [sp, #12]
 800576a:	ea33 0308 	bics.w	r3, r3, r8
 800576e:	d11b      	bne.n	80057a8 <_dtoa_r+0xa0>
 8005770:	f242 730f 	movw	r3, #9999	; 0x270f
 8005774:	9a20      	ldr	r2, [sp, #128]	; 0x80
 8005776:	6013      	str	r3, [r2, #0]
 8005778:	9b02      	ldr	r3, [sp, #8]
 800577a:	b923      	cbnz	r3, 8005786 <_dtoa_r+0x7e>
 800577c:	f3c8 0013 	ubfx	r0, r8, #0, #20
 8005780:	2800      	cmp	r0, #0
 8005782:	f000 8545 	beq.w	8006210 <_dtoa_r+0xb08>
 8005786:	9b22      	ldr	r3, [sp, #136]	; 0x88
 8005788:	b953      	cbnz	r3, 80057a0 <_dtoa_r+0x98>
 800578a:	4ba6      	ldr	r3, [pc, #664]	; (8005a24 <_dtoa_r+0x31c>)
 800578c:	e021      	b.n	80057d2 <_dtoa_r+0xca>
 800578e:	4ba6      	ldr	r3, [pc, #664]	; (8005a28 <_dtoa_r+0x320>)
 8005790:	9306      	str	r3, [sp, #24]
 8005792:	3308      	adds	r3, #8
 8005794:	9a22      	ldr	r2, [sp, #136]	; 0x88
 8005796:	6013      	str	r3, [r2, #0]
 8005798:	9806      	ldr	r0, [sp, #24]
 800579a:	b015      	add	sp, #84	; 0x54
 800579c:	e8bd 8ff0 	ldmia.w	sp!, {r4, r5, r6, r7, r8, r9, sl, fp, pc}
 80057a0:	4ba0      	ldr	r3, [pc, #640]	; (8005a24 <_dtoa_r+0x31c>)
 80057a2:	9306      	str	r3, [sp, #24]
 80057a4:	3303      	adds	r3, #3
 80057a6:	e7f5      	b.n	8005794 <_dtoa_r+0x8c>
 80057a8:	e9dd 6702 	ldrd	r6, r7, [sp, #8]
 80057ac:	2200      	movs	r2, #0
 80057ae:	2300      	movs	r3, #0
 80057b0:	4630      	mov	r0, r6
 80057b2:	4639      	mov	r1, r7
 80057b4:	f7fb f8f8 	bl	80009a8 <__aeabi_dcmpeq>
 80057b8:	4682      	mov	sl, r0
 80057ba:	b160      	cbz	r0, 80057d6 <_dtoa_r+0xce>
 80057bc:	2301      	movs	r3, #1
 80057be:	9a20      	ldr	r2, [sp, #128]	; 0x80
 80057c0:	6013      	str	r3, [r2, #0]
 80057c2:	9b22      	ldr	r3, [sp, #136]	; 0x88
 80057c4:	2b00      	cmp	r3, #0
 80057c6:	f000 8520 	beq.w	800620a <_dtoa_r+0xb02>
 80057ca:	4b98      	ldr	r3, [pc, #608]	; (8005a2c <_dtoa_r+0x324>)
 80057cc:	9a22      	ldr	r2, [sp, #136]	; 0x88
 80057ce:	6013      	str	r3, [r2, #0]
 80057d0:	3b01      	subs	r3, #1
 80057d2:	9306      	str	r3, [sp, #24]
 80057d4:	e7e0      	b.n	8005798 <_dtoa_r+0x90>
 80057d6:	ab12      	add	r3, sp, #72	; 0x48
 80057d8:	9301      	str	r3, [sp, #4]
 80057da:	ab13      	add	r3, sp, #76	; 0x4c
 80057dc:	9300      	str	r3, [sp, #0]
 80057de:	4632      	mov	r2, r6
 80057e0:	463b      	mov	r3, r7
 80057e2:	4620      	mov	r0, r4
 80057e4:	f001 fdd2 	bl	800738c <__d2b>
 80057e8:	f3c8 550a 	ubfx	r5, r8, #20, #11
 80057ec:	4683      	mov	fp, r0
 80057ee:	2d00      	cmp	r5, #0
 80057f0:	d07d      	beq.n	80058ee <_dtoa_r+0x1e6>
 80057f2:	46b0      	mov	r8, r6
 80057f4:	f3c7 0313 	ubfx	r3, r7, #0, #20
 80057f8:	f043 597f 	orr.w	r9, r3, #1069547520	; 0x3fc00000
 80057fc:	f449 1940 	orr.w	r9, r9, #3145728	; 0x300000
 8005800:	f2a5 35ff 	subw	r5, r5, #1023	; 0x3ff
 8005804:	f8cd a040 	str.w	sl, [sp, #64]	; 0x40
 8005808:	2200      	movs	r2, #0
 800580a:	4b89      	ldr	r3, [pc, #548]	; (8005a30 <_dtoa_r+0x328>)
 800580c:	4640      	mov	r0, r8
 800580e:	4649      	mov	r1, r9
 8005810:	f7fa fcaa 	bl	8000168 <__aeabi_dsub>
 8005814:	a37c      	add	r3, pc, #496	; (adr r3, 8005a08 <_dtoa_r+0x300>)
 8005816:	e9d3 2300 	ldrd	r2, r3, [r3]
 800581a:	f7fa fe5d 	bl	80004d8 <__aeabi_dmul>
 800581e:	a37c      	add	r3, pc, #496	; (adr r3, 8005a10 <_dtoa_r+0x308>)
 8005820:	e9d3 2300 	ldrd	r2, r3, [r3]
 8005824:	f7fa fca2 	bl	800016c <__adddf3>
 8005828:	4606      	mov	r6, r0
 800582a:	4628      	mov	r0, r5
 800582c:	460f      	mov	r7, r1
 800582e:	f7fa fde9 	bl	8000404 <__aeabi_i2d>
 8005832:	a379      	add	r3, pc, #484	; (adr r3, 8005a18 <_dtoa_r+0x310>)
 8005834:	e9d3 2300 	ldrd	r2, r3, [r3]
 8005838:	f7fa fe4e 	bl	80004d8 <__aeabi_dmul>
 800583c:	4602      	mov	r2, r0
 800583e:	460b      	mov	r3, r1
 8005840:	4630      	mov	r0, r6
 8005842:	4639      	mov	r1, r7
 8005844:	f7fa fc92 	bl	800016c <__adddf3>
 8005848:	4606      	mov	r6, r0
 800584a:	460f      	mov	r7, r1
 800584c:	f7fb f8f4 	bl	8000a38 <__aeabi_d2iz>
 8005850:	2200      	movs	r2, #0
 8005852:	4682      	mov	sl, r0
 8005854:	2300      	movs	r3, #0
 8005856:	4630      	mov	r0, r6
 8005858:	4639      	mov	r1, r7
 800585a:	f7fb f8af 	bl	80009bc <__aeabi_dcmplt>
 800585e:	b148      	cbz	r0, 8005874 <_dtoa_r+0x16c>
 8005860:	4650      	mov	r0, sl
 8005862:	f7fa fdcf 	bl	8000404 <__aeabi_i2d>
 8005866:	4632      	mov	r2, r6
 8005868:	463b      	mov	r3, r7
 800586a:	f7fb f89d 	bl	80009a8 <__aeabi_dcmpeq>
 800586e:	b908      	cbnz	r0, 8005874 <_dtoa_r+0x16c>
 8005870:	f10a 3aff 	add.w	sl, sl, #4294967295	; 0xffffffff
 8005874:	f1ba 0f16 	cmp.w	sl, #22
 8005878:	d85a      	bhi.n	8005930 <_dtoa_r+0x228>
 800587a:	e9dd 2302 	ldrd	r2, r3, [sp, #8]
 800587e:	496d      	ldr	r1, [pc, #436]	; (8005a34 <_dtoa_r+0x32c>)
 8005880:	eb01 01ca 	add.w	r1, r1, sl, lsl #3
 8005884:	e9d1 0100 	ldrd	r0, r1, [r1]
 8005888:	f7fb f8b6 	bl	80009f8 <__aeabi_dcmpgt>
 800588c:	2800      	cmp	r0, #0
 800588e:	d051      	beq.n	8005934 <_dtoa_r+0x22c>
 8005890:	2300      	movs	r3, #0
 8005892:	f10a 3aff 	add.w	sl, sl, #4294967295	; 0xffffffff
 8005896:	930d      	str	r3, [sp, #52]	; 0x34
 8005898:	9b12      	ldr	r3, [sp, #72]	; 0x48
 800589a:	1b5d      	subs	r5, r3, r5
 800589c:	1e6b      	subs	r3, r5, #1
 800589e:	9307      	str	r3, [sp, #28]
 80058a0:	bf43      	ittte	mi
 80058a2:	2300      	movmi	r3, #0
 80058a4:	f1c5 0901 	rsbmi	r9, r5, #1
 80058a8:	9307      	strmi	r3, [sp, #28]
 80058aa:	f04f 0900 	movpl.w	r9, #0
 80058ae:	f1ba 0f00 	cmp.w	sl, #0
 80058b2:	db41      	blt.n	8005938 <_dtoa_r+0x230>
 80058b4:	9b07      	ldr	r3, [sp, #28]
 80058b6:	f8cd a030 	str.w	sl, [sp, #48]	; 0x30
 80058ba:	4453      	add	r3, sl
 80058bc:	9307      	str	r3, [sp, #28]
 80058be:	2300      	movs	r3, #0
 80058c0:	9308      	str	r3, [sp, #32]
 80058c2:	9b1e      	ldr	r3, [sp, #120]	; 0x78
 80058c4:	2b09      	cmp	r3, #9
 80058c6:	f200 808f 	bhi.w	80059e8 <_dtoa_r+0x2e0>
 80058ca:	2b05      	cmp	r3, #5
 80058cc:	bfc4      	itt	gt
 80058ce:	3b04      	subgt	r3, #4
 80058d0:	931e      	strgt	r3, [sp, #120]	; 0x78
 80058d2:	9b1e      	ldr	r3, [sp, #120]	; 0x78
 80058d4:	bfc8      	it	gt
 80058d6:	2500      	movgt	r5, #0
 80058d8:	f1a3 0302 	sub.w	r3, r3, #2
 80058dc:	bfd8      	it	le
 80058de:	2501      	movle	r5, #1
 80058e0:	2b03      	cmp	r3, #3
 80058e2:	f200 808d 	bhi.w	8005a00 <_dtoa_r+0x2f8>
 80058e6:	e8df f003 	tbb	[pc, r3]
 80058ea:	7d7b      	.short	0x7d7b
 80058ec:	6f2f      	.short	0x6f2f
 80058ee:	e9dd 5312 	ldrd	r5, r3, [sp, #72]	; 0x48
 80058f2:	441d      	add	r5, r3
 80058f4:	f205 4032 	addw	r0, r5, #1074	; 0x432
 80058f8:	2820      	cmp	r0, #32
 80058fa:	dd13      	ble.n	8005924 <_dtoa_r+0x21c>
 80058fc:	f1c0 0040 	rsb	r0, r0, #64	; 0x40
 8005900:	9b02      	ldr	r3, [sp, #8]
 8005902:	fa08 f800 	lsl.w	r8, r8, r0
 8005906:	f205 4012 	addw	r0, r5, #1042	; 0x412
 800590a:	fa23 f000 	lsr.w	r0, r3, r0
 800590e:	ea48 0000 	orr.w	r0, r8, r0
 8005912:	f7fa fd67 	bl	80003e4 <__aeabi_ui2d>
 8005916:	2301      	movs	r3, #1
 8005918:	4680      	mov	r8, r0
 800591a:	f1a1 79f8 	sub.w	r9, r1, #32505856	; 0x1f00000
 800591e:	3d01      	subs	r5, #1
 8005920:	9310      	str	r3, [sp, #64]	; 0x40
 8005922:	e771      	b.n	8005808 <_dtoa_r+0x100>
 8005924:	9b02      	ldr	r3, [sp, #8]
 8005926:	f1c0 0020 	rsb	r0, r0, #32
 800592a:	fa03 f000 	lsl.w	r0, r3, r0
 800592e:	e7f0      	b.n	8005912 <_dtoa_r+0x20a>
 8005930:	2301      	movs	r3, #1
 8005932:	e7b0      	b.n	8005896 <_dtoa_r+0x18e>
 8005934:	900d      	str	r0, [sp, #52]	; 0x34
 8005936:	e7af      	b.n	8005898 <_dtoa_r+0x190>
 8005938:	f1ca 0300 	rsb	r3, sl, #0
 800593c:	9308      	str	r3, [sp, #32]
 800593e:	2300      	movs	r3, #0
 8005940:	eba9 090a 	sub.w	r9, r9, sl
 8005944:	930c      	str	r3, [sp, #48]	; 0x30
 8005946:	e7bc      	b.n	80058c2 <_dtoa_r+0x1ba>
 8005948:	2301      	movs	r3, #1
 800594a:	9309      	str	r3, [sp, #36]	; 0x24
 800594c:	9b1f      	ldr	r3, [sp, #124]	; 0x7c
 800594e:	2b00      	cmp	r3, #0
 8005950:	dd74      	ble.n	8005a3c <_dtoa_r+0x334>
 8005952:	4698      	mov	r8, r3
 8005954:	9304      	str	r3, [sp, #16]
 8005956:	2200      	movs	r2, #0
 8005958:	6a66      	ldr	r6, [r4, #36]	; 0x24
 800595a:	6072      	str	r2, [r6, #4]
 800595c:	2204      	movs	r2, #4
 800595e:	f102 0014 	add.w	r0, r2, #20
 8005962:	4298      	cmp	r0, r3
 8005964:	6871      	ldr	r1, [r6, #4]
 8005966:	d96e      	bls.n	8005a46 <_dtoa_r+0x33e>
 8005968:	4620      	mov	r0, r4
 800596a:	f001 f9ce 	bl	8006d0a <_Balloc>
 800596e:	6a63      	ldr	r3, [r4, #36]	; 0x24
 8005970:	6030      	str	r0, [r6, #0]
 8005972:	681b      	ldr	r3, [r3, #0]
 8005974:	f1b8 0f0e 	cmp.w	r8, #14
 8005978:	9306      	str	r3, [sp, #24]
 800597a:	f200 80ed 	bhi.w	8005b58 <_dtoa_r+0x450>
 800597e:	2d00      	cmp	r5, #0
 8005980:	f000 80ea 	beq.w	8005b58 <_dtoa_r+0x450>
 8005984:	e9dd 2302 	ldrd	r2, r3, [sp, #8]
 8005988:	f1ba 0f00 	cmp.w	sl, #0
 800598c:	e9cd 230e 	strd	r2, r3, [sp, #56]	; 0x38
 8005990:	dd77      	ble.n	8005a82 <_dtoa_r+0x37a>
 8005992:	4a28      	ldr	r2, [pc, #160]	; (8005a34 <_dtoa_r+0x32c>)
 8005994:	f00a 030f 	and.w	r3, sl, #15
 8005998:	ea4f 162a 	mov.w	r6, sl, asr #4
 800599c:	eb02 03c3 	add.w	r3, r2, r3, lsl #3
 80059a0:	06f0      	lsls	r0, r6, #27
 80059a2:	e9d3 2300 	ldrd	r2, r3, [r3]
 80059a6:	e9cd 230a 	strd	r2, r3, [sp, #40]	; 0x28
 80059aa:	d568      	bpl.n	8005a7e <_dtoa_r+0x376>
 80059ac:	e9dd 010e 	ldrd	r0, r1, [sp, #56]	; 0x38
 80059b0:	4b21      	ldr	r3, [pc, #132]	; (8005a38 <_dtoa_r+0x330>)
 80059b2:	2503      	movs	r5, #3
 80059b4:	e9d3 2308 	ldrd	r2, r3, [r3, #32]
 80059b8:	f7fa feb8 	bl	800072c <__aeabi_ddiv>
 80059bc:	e9cd 0102 	strd	r0, r1, [sp, #8]
 80059c0:	f006 060f 	and.w	r6, r6, #15
 80059c4:	4f1c      	ldr	r7, [pc, #112]	; (8005a38 <_dtoa_r+0x330>)
 80059c6:	e04f      	b.n	8005a68 <_dtoa_r+0x360>
 80059c8:	2301      	movs	r3, #1
 80059ca:	9309      	str	r3, [sp, #36]	; 0x24
 80059cc:	9b1f      	ldr	r3, [sp, #124]	; 0x7c
 80059ce:	4453      	add	r3, sl
 80059d0:	f103 0801 	add.w	r8, r3, #1
 80059d4:	9304      	str	r3, [sp, #16]
 80059d6:	4643      	mov	r3, r8
 80059d8:	2b01      	cmp	r3, #1
 80059da:	bfb8      	it	lt
 80059dc:	2301      	movlt	r3, #1
 80059de:	e7ba      	b.n	8005956 <_dtoa_r+0x24e>
 80059e0:	2300      	movs	r3, #0
 80059e2:	e7b2      	b.n	800594a <_dtoa_r+0x242>
 80059e4:	2300      	movs	r3, #0
 80059e6:	e7f0      	b.n	80059ca <_dtoa_r+0x2c2>
 80059e8:	2501      	movs	r5, #1
 80059ea:	2300      	movs	r3, #0
 80059ec:	9509      	str	r5, [sp, #36]	; 0x24
 80059ee:	931e      	str	r3, [sp, #120]	; 0x78
 80059f0:	f04f 33ff 	mov.w	r3, #4294967295	; 0xffffffff
 80059f4:	2200      	movs	r2, #0
 80059f6:	9304      	str	r3, [sp, #16]
 80059f8:	4698      	mov	r8, r3
 80059fa:	2312      	movs	r3, #18
 80059fc:	921f      	str	r2, [sp, #124]	; 0x7c
 80059fe:	e7aa      	b.n	8005956 <_dtoa_r+0x24e>
 8005a00:	2301      	movs	r3, #1
 8005a02:	9309      	str	r3, [sp, #36]	; 0x24
 8005a04:	e7f4      	b.n	80059f0 <_dtoa_r+0x2e8>
 8005a06:	bf00      	nop
 8005a08:	636f4361 	.word	0x636f4361
 8005a0c:	3fd287a7 	.word	0x3fd287a7
 8005a10:	8b60c8b3 	.word	0x8b60c8b3
 8005a14:	3fc68a28 	.word	0x3fc68a28
 8005a18:	509f79fb 	.word	0x509f79fb
 8005a1c:	3fd34413 	.word	0x3fd34413
 8005a20:	7ff00000 	.word	0x7ff00000
 8005a24:	08007fe9 	.word	0x08007fe9
 8005a28:	08007fe0 	.word	0x08007fe0
 8005a2c:	08007f65 	.word	0x08007f65
 8005a30:	3ff80000 	.word	0x3ff80000
 8005a34:	08008088 	.word	0x08008088
 8005a38:	08008060 	.word	0x08008060
 8005a3c:	2301      	movs	r3, #1
 8005a3e:	9304      	str	r3, [sp, #16]
 8005a40:	4698      	mov	r8, r3
 8005a42:	461a      	mov	r2, r3
 8005a44:	e7da      	b.n	80059fc <_dtoa_r+0x2f4>
 8005a46:	3101      	adds	r1, #1
 8005a48:	6071      	str	r1, [r6, #4]
 8005a4a:	0052      	lsls	r2, r2, #1
 8005a4c:	e787      	b.n	800595e <_dtoa_r+0x256>
 8005a4e:	07f1      	lsls	r1, r6, #31
 8005a50:	d508      	bpl.n	8005a64 <_dtoa_r+0x35c>
 8005a52:	e9dd 010a 	ldrd	r0, r1, [sp, #40]	; 0x28
 8005a56:	e9d7 2300 	ldrd	r2, r3, [r7]
 8005a5a:	f7fa fd3d 	bl	80004d8 <__aeabi_dmul>
 8005a5e:	e9cd 010a 	strd	r0, r1, [sp, #40]	; 0x28
 8005a62:	3501      	adds	r5, #1
 8005a64:	1076      	asrs	r6, r6, #1
 8005a66:	3708      	adds	r7, #8
 8005a68:	2e00      	cmp	r6, #0
 8005a6a:	d1f0      	bne.n	8005a4e <_dtoa_r+0x346>
 8005a6c:	e9dd 230a 	ldrd	r2, r3, [sp, #40]	; 0x28
 8005a70:	e9dd 0102 	ldrd	r0, r1, [sp, #8]
 8005a74:	f7fa fe5a 	bl	800072c <__aeabi_ddiv>
 8005a78:	e9cd 0102 	strd	r0, r1, [sp, #8]
 8005a7c:	e01b      	b.n	8005ab6 <_dtoa_r+0x3ae>
 8005a7e:	2502      	movs	r5, #2
 8005a80:	e7a0      	b.n	80059c4 <_dtoa_r+0x2bc>
 8005a82:	f000 80a4 	beq.w	8005bce <_dtoa_r+0x4c6>
 8005a86:	e9dd 010e 	ldrd	r0, r1, [sp, #56]	; 0x38
 8005a8a:	f1ca 0600 	rsb	r6, sl, #0
 8005a8e:	4ba0      	ldr	r3, [pc, #640]	; (8005d10 <_dtoa_r+0x608>)
 8005a90:	f006 020f 	and.w	r2, r6, #15
 8005a94:	eb03 03c2 	add.w	r3, r3, r2, lsl #3
 8005a98:	e9d3 2300 	ldrd	r2, r3, [r3]
 8005a9c:	f7fa fd1c 	bl	80004d8 <__aeabi_dmul>
 8005aa0:	2502      	movs	r5, #2
 8005aa2:	2300      	movs	r3, #0
 8005aa4:	e9cd 0102 	strd	r0, r1, [sp, #8]
 8005aa8:	4f9a      	ldr	r7, [pc, #616]	; (8005d14 <_dtoa_r+0x60c>)
 8005aaa:	1136      	asrs	r6, r6, #4
 8005aac:	2e00      	cmp	r6, #0
 8005aae:	f040 8083 	bne.w	8005bb8 <_dtoa_r+0x4b0>
 8005ab2:	2b00      	cmp	r3, #0
 8005ab4:	d1e0      	bne.n	8005a78 <_dtoa_r+0x370>
 8005ab6:	9b0d      	ldr	r3, [sp, #52]	; 0x34
 8005ab8:	2b00      	cmp	r3, #0
 8005aba:	f000 808a 	beq.w	8005bd2 <_dtoa_r+0x4ca>
 8005abe:	e9dd 2302 	ldrd	r2, r3, [sp, #8]
 8005ac2:	e9cd 230a 	strd	r2, r3, [sp, #40]	; 0x28
 8005ac6:	e9dd 010a 	ldrd	r0, r1, [sp, #40]	; 0x28
 8005aca:	2200      	movs	r2, #0
 8005acc:	4b92      	ldr	r3, [pc, #584]	; (8005d18 <_dtoa_r+0x610>)
 8005ace:	f7fa ff75 	bl	80009bc <__aeabi_dcmplt>
 8005ad2:	2800      	cmp	r0, #0
 8005ad4:	d07d      	beq.n	8005bd2 <_dtoa_r+0x4ca>
 8005ad6:	f1b8 0f00 	cmp.w	r8, #0
 8005ada:	d07a      	beq.n	8005bd2 <_dtoa_r+0x4ca>
 8005adc:	9b04      	ldr	r3, [sp, #16]
 8005ade:	2b00      	cmp	r3, #0
 8005ae0:	dd36      	ble.n	8005b50 <_dtoa_r+0x448>
 8005ae2:	e9dd 010a 	ldrd	r0, r1, [sp, #40]	; 0x28
 8005ae6:	2200      	movs	r2, #0
 8005ae8:	4b8c      	ldr	r3, [pc, #560]	; (8005d1c <_dtoa_r+0x614>)
 8005aea:	f7fa fcf5 	bl	80004d8 <__aeabi_dmul>
 8005aee:	e9cd 0102 	strd	r0, r1, [sp, #8]
 8005af2:	9e04      	ldr	r6, [sp, #16]
 8005af4:	f10a 37ff 	add.w	r7, sl, #4294967295	; 0xffffffff
 8005af8:	3501      	adds	r5, #1
 8005afa:	4628      	mov	r0, r5
 8005afc:	f7fa fc82 	bl	8000404 <__aeabi_i2d>
 8005b00:	e9dd 2302 	ldrd	r2, r3, [sp, #8]
 8005b04:	f7fa fce8 	bl	80004d8 <__aeabi_dmul>
 8005b08:	2200      	movs	r2, #0
 8005b0a:	4b85      	ldr	r3, [pc, #532]	; (8005d20 <_dtoa_r+0x618>)
 8005b0c:	f7fa fb2e 	bl	800016c <__adddf3>
 8005b10:	f1a1 7550 	sub.w	r5, r1, #54525952	; 0x3400000
 8005b14:	e9cd 010a 	strd	r0, r1, [sp, #40]	; 0x28
 8005b18:	950b      	str	r5, [sp, #44]	; 0x2c
 8005b1a:	2e00      	cmp	r6, #0
 8005b1c:	d15c      	bne.n	8005bd8 <_dtoa_r+0x4d0>
 8005b1e:	e9dd 0102 	ldrd	r0, r1, [sp, #8]
 8005b22:	2200      	movs	r2, #0
 8005b24:	4b7f      	ldr	r3, [pc, #508]	; (8005d24 <_dtoa_r+0x61c>)
 8005b26:	f7fa fb1f 	bl	8000168 <__aeabi_dsub>
 8005b2a:	9a0a      	ldr	r2, [sp, #40]	; 0x28
 8005b2c:	462b      	mov	r3, r5
 8005b2e:	e9cd 0102 	strd	r0, r1, [sp, #8]
 8005b32:	f7fa ff61 	bl	80009f8 <__aeabi_dcmpgt>
 8005b36:	2800      	cmp	r0, #0
 8005b38:	f040 8281 	bne.w	800603e <_dtoa_r+0x936>
 8005b3c:	e9dd 0102 	ldrd	r0, r1, [sp, #8]
 8005b40:	9a0a      	ldr	r2, [sp, #40]	; 0x28
 8005b42:	f105 4300 	add.w	r3, r5, #2147483648	; 0x80000000
 8005b46:	f7fa ff39 	bl	80009bc <__aeabi_dcmplt>
 8005b4a:	2800      	cmp	r0, #0
 8005b4c:	f040 8275 	bne.w	800603a <_dtoa_r+0x932>
 8005b50:	e9dd 230e 	ldrd	r2, r3, [sp, #56]	; 0x38
 8005b54:	e9cd 2302 	strd	r2, r3, [sp, #8]
 8005b58:	9b13      	ldr	r3, [sp, #76]	; 0x4c
 8005b5a:	2b00      	cmp	r3, #0
 8005b5c:	f2c0 814b 	blt.w	8005df6 <_dtoa_r+0x6ee>
 8005b60:	f1ba 0f0e 	cmp.w	sl, #14
 8005b64:	f300 8147 	bgt.w	8005df6 <_dtoa_r+0x6ee>
 8005b68:	4b69      	ldr	r3, [pc, #420]	; (8005d10 <_dtoa_r+0x608>)
 8005b6a:	eb03 03ca 	add.w	r3, r3, sl, lsl #3
 8005b6e:	e9d3 2300 	ldrd	r2, r3, [r3]
 8005b72:	e9cd 2304 	strd	r2, r3, [sp, #16]
 8005b76:	9b1f      	ldr	r3, [sp, #124]	; 0x7c
 8005b78:	2b00      	cmp	r3, #0
 8005b7a:	f280 80d7 	bge.w	8005d2c <_dtoa_r+0x624>
 8005b7e:	f1b8 0f00 	cmp.w	r8, #0
 8005b82:	f300 80d3 	bgt.w	8005d2c <_dtoa_r+0x624>
 8005b86:	f040 8257 	bne.w	8006038 <_dtoa_r+0x930>
 8005b8a:	e9dd 0104 	ldrd	r0, r1, [sp, #16]
 8005b8e:	2200      	movs	r2, #0
 8005b90:	4b64      	ldr	r3, [pc, #400]	; (8005d24 <_dtoa_r+0x61c>)
 8005b92:	f7fa fca1 	bl	80004d8 <__aeabi_dmul>
 8005b96:	e9dd 2302 	ldrd	r2, r3, [sp, #8]
 8005b9a:	f7fa ff23 	bl	80009e4 <__aeabi_dcmpge>
 8005b9e:	4646      	mov	r6, r8
 8005ba0:	4647      	mov	r7, r8
 8005ba2:	2800      	cmp	r0, #0
 8005ba4:	f040 822d 	bne.w	8006002 <_dtoa_r+0x8fa>
 8005ba8:	9b06      	ldr	r3, [sp, #24]
 8005baa:	9a06      	ldr	r2, [sp, #24]
 8005bac:	1c5d      	adds	r5, r3, #1
 8005bae:	2331      	movs	r3, #49	; 0x31
 8005bb0:	f10a 0a01 	add.w	sl, sl, #1
 8005bb4:	7013      	strb	r3, [r2, #0]
 8005bb6:	e228      	b.n	800600a <_dtoa_r+0x902>
 8005bb8:	07f2      	lsls	r2, r6, #31
 8005bba:	d505      	bpl.n	8005bc8 <_dtoa_r+0x4c0>
 8005bbc:	e9d7 2300 	ldrd	r2, r3, [r7]
 8005bc0:	f7fa fc8a 	bl	80004d8 <__aeabi_dmul>
 8005bc4:	2301      	movs	r3, #1
 8005bc6:	3501      	adds	r5, #1
 8005bc8:	1076      	asrs	r6, r6, #1
 8005bca:	3708      	adds	r7, #8
 8005bcc:	e76e      	b.n	8005aac <_dtoa_r+0x3a4>
 8005bce:	2502      	movs	r5, #2
 8005bd0:	e771      	b.n	8005ab6 <_dtoa_r+0x3ae>
 8005bd2:	4657      	mov	r7, sl
 8005bd4:	4646      	mov	r6, r8
 8005bd6:	e790      	b.n	8005afa <_dtoa_r+0x3f2>
 8005bd8:	4b4d      	ldr	r3, [pc, #308]	; (8005d10 <_dtoa_r+0x608>)
 8005bda:	eb03 03c6 	add.w	r3, r3, r6, lsl #3
 8005bde:	e953 0102 	ldrd	r0, r1, [r3, #-8]
 8005be2:	9b09      	ldr	r3, [sp, #36]	; 0x24
 8005be4:	2b00      	cmp	r3, #0
 8005be6:	d048      	beq.n	8005c7a <_dtoa_r+0x572>
 8005be8:	4602      	mov	r2, r0
 8005bea:	460b      	mov	r3, r1
 8005bec:	2000      	movs	r0, #0
 8005bee:	494e      	ldr	r1, [pc, #312]	; (8005d28 <_dtoa_r+0x620>)
 8005bf0:	f7fa fd9c 	bl	800072c <__aeabi_ddiv>
 8005bf4:	e9dd 230a 	ldrd	r2, r3, [sp, #40]	; 0x28
 8005bf8:	f7fa fab6 	bl	8000168 <__aeabi_dsub>
 8005bfc:	e9cd 010a 	strd	r0, r1, [sp, #40]	; 0x28
 8005c00:	9d06      	ldr	r5, [sp, #24]
 8005c02:	e9dd 0102 	ldrd	r0, r1, [sp, #8]
 8005c06:	f7fa ff17 	bl	8000a38 <__aeabi_d2iz>
 8005c0a:	9011      	str	r0, [sp, #68]	; 0x44
 8005c0c:	f7fa fbfa 	bl	8000404 <__aeabi_i2d>
 8005c10:	4602      	mov	r2, r0
 8005c12:	460b      	mov	r3, r1
 8005c14:	e9dd 0102 	ldrd	r0, r1, [sp, #8]
 8005c18:	f7fa faa6 	bl	8000168 <__aeabi_dsub>
 8005c1c:	9b11      	ldr	r3, [sp, #68]	; 0x44
 8005c1e:	e9cd 0102 	strd	r0, r1, [sp, #8]
 8005c22:	3330      	adds	r3, #48	; 0x30
 8005c24:	f805 3b01 	strb.w	r3, [r5], #1
 8005c28:	e9dd 230a 	ldrd	r2, r3, [sp, #40]	; 0x28
 8005c2c:	f7fa fec6 	bl	80009bc <__aeabi_dcmplt>
 8005c30:	2800      	cmp	r0, #0
 8005c32:	d163      	bne.n	8005cfc <_dtoa_r+0x5f4>
 8005c34:	e9dd 2302 	ldrd	r2, r3, [sp, #8]
 8005c38:	2000      	movs	r0, #0
 8005c3a:	4937      	ldr	r1, [pc, #220]	; (8005d18 <_dtoa_r+0x610>)
 8005c3c:	f7fa fa94 	bl	8000168 <__aeabi_dsub>
 8005c40:	e9dd 230a 	ldrd	r2, r3, [sp, #40]	; 0x28
 8005c44:	f7fa feba 	bl	80009bc <__aeabi_dcmplt>
 8005c48:	2800      	cmp	r0, #0
 8005c4a:	f040 80b5 	bne.w	8005db8 <_dtoa_r+0x6b0>
 8005c4e:	9b06      	ldr	r3, [sp, #24]
 8005c50:	1aeb      	subs	r3, r5, r3
 8005c52:	429e      	cmp	r6, r3
 8005c54:	f77f af7c 	ble.w	8005b50 <_dtoa_r+0x448>
 8005c58:	e9dd 010a 	ldrd	r0, r1, [sp, #40]	; 0x28
 8005c5c:	2200      	movs	r2, #0
 8005c5e:	4b2f      	ldr	r3, [pc, #188]	; (8005d1c <_dtoa_r+0x614>)
 8005c60:	f7fa fc3a 	bl	80004d8 <__aeabi_dmul>
 8005c64:	2200      	movs	r2, #0
 8005c66:	e9cd 010a 	strd	r0, r1, [sp, #40]	; 0x28
 8005c6a:	e9dd 0102 	ldrd	r0, r1, [sp, #8]
 8005c6e:	4b2b      	ldr	r3, [pc, #172]	; (8005d1c <_dtoa_r+0x614>)
 8005c70:	f7fa fc32 	bl	80004d8 <__aeabi_dmul>
 8005c74:	e9cd 0102 	strd	r0, r1, [sp, #8]
 8005c78:	e7c3      	b.n	8005c02 <_dtoa_r+0x4fa>
 8005c7a:	e9dd 230a 	ldrd	r2, r3, [sp, #40]	; 0x28
 8005c7e:	f7fa fc2b 	bl	80004d8 <__aeabi_dmul>
 8005c82:	9b06      	ldr	r3, [sp, #24]
 8005c84:	e9cd 010a 	strd	r0, r1, [sp, #40]	; 0x28
 8005c88:	199d      	adds	r5, r3, r6
 8005c8a:	461e      	mov	r6, r3
 8005c8c:	e9dd 0102 	ldrd	r0, r1, [sp, #8]
 8005c90:	f7fa fed2 	bl	8000a38 <__aeabi_d2iz>
 8005c94:	9011      	str	r0, [sp, #68]	; 0x44
 8005c96:	f7fa fbb5 	bl	8000404 <__aeabi_i2d>
 8005c9a:	4602      	mov	r2, r0
 8005c9c:	460b      	mov	r3, r1
 8005c9e:	e9dd 0102 	ldrd	r0, r1, [sp, #8]
 8005ca2:	f7fa fa61 	bl	8000168 <__aeabi_dsub>
 8005ca6:	9b11      	ldr	r3, [sp, #68]	; 0x44
 8005ca8:	e9cd 0102 	strd	r0, r1, [sp, #8]
 8005cac:	3330      	adds	r3, #48	; 0x30
 8005cae:	f806 3b01 	strb.w	r3, [r6], #1
 8005cb2:	42ae      	cmp	r6, r5
 8005cb4:	f04f 0200 	mov.w	r2, #0
 8005cb8:	d124      	bne.n	8005d04 <_dtoa_r+0x5fc>
 8005cba:	e9dd 010a 	ldrd	r0, r1, [sp, #40]	; 0x28
 8005cbe:	4b1a      	ldr	r3, [pc, #104]	; (8005d28 <_dtoa_r+0x620>)
 8005cc0:	f7fa fa54 	bl	800016c <__adddf3>
 8005cc4:	4602      	mov	r2, r0
 8005cc6:	460b      	mov	r3, r1
 8005cc8:	e9dd 0102 	ldrd	r0, r1, [sp, #8]
 8005ccc:	f7fa fe94 	bl	80009f8 <__aeabi_dcmpgt>
 8005cd0:	2800      	cmp	r0, #0
 8005cd2:	d171      	bne.n	8005db8 <_dtoa_r+0x6b0>
 8005cd4:	e9dd 230a 	ldrd	r2, r3, [sp, #40]	; 0x28
 8005cd8:	2000      	movs	r0, #0
 8005cda:	4913      	ldr	r1, [pc, #76]	; (8005d28 <_dtoa_r+0x620>)
 8005cdc:	f7fa fa44 	bl	8000168 <__aeabi_dsub>
 8005ce0:	4602      	mov	r2, r0
 8005ce2:	460b      	mov	r3, r1
 8005ce4:	e9dd 0102 	ldrd	r0, r1, [sp, #8]
 8005ce8:	f7fa fe68 	bl	80009bc <__aeabi_dcmplt>
 8005cec:	2800      	cmp	r0, #0
 8005cee:	f43f af2f 	beq.w	8005b50 <_dtoa_r+0x448>
 8005cf2:	f815 3c01 	ldrb.w	r3, [r5, #-1]
 8005cf6:	1e6a      	subs	r2, r5, #1
 8005cf8:	2b30      	cmp	r3, #48	; 0x30
 8005cfa:	d001      	beq.n	8005d00 <_dtoa_r+0x5f8>
 8005cfc:	46ba      	mov	sl, r7
 8005cfe:	e04a      	b.n	8005d96 <_dtoa_r+0x68e>
 8005d00:	4615      	mov	r5, r2
 8005d02:	e7f6      	b.n	8005cf2 <_dtoa_r+0x5ea>
 8005d04:	4b05      	ldr	r3, [pc, #20]	; (8005d1c <_dtoa_r+0x614>)
 8005d06:	f7fa fbe7 	bl	80004d8 <__aeabi_dmul>
 8005d0a:	e9cd 0102 	strd	r0, r1, [sp, #8]
 8005d0e:	e7bd      	b.n	8005c8c <_dtoa_r+0x584>
 8005d10:	08008088 	.word	0x08008088
 8005d14:	08008060 	.word	0x08008060
 8005d18:	3ff00000 	.word	0x3ff00000
 8005d1c:	40240000 	.word	0x40240000
 8005d20:	401c0000 	.word	0x401c0000
 8005d24:	40140000 	.word	0x40140000
 8005d28:	3fe00000 	.word	0x3fe00000
 8005d2c:	9d06      	ldr	r5, [sp, #24]
 8005d2e:	e9dd 6702 	ldrd	r6, r7, [sp, #8]
 8005d32:	e9dd 2304 	ldrd	r2, r3, [sp, #16]
 8005d36:	4630      	mov	r0, r6
 8005d38:	4639      	mov	r1, r7
 8005d3a:	f7fa fcf7 	bl	800072c <__aeabi_ddiv>
 8005d3e:	f7fa fe7b 	bl	8000a38 <__aeabi_d2iz>
 8005d42:	4681      	mov	r9, r0
 8005d44:	f7fa fb5e 	bl	8000404 <__aeabi_i2d>
 8005d48:	e9dd 2304 	ldrd	r2, r3, [sp, #16]
 8005d4c:	f7fa fbc4 	bl	80004d8 <__aeabi_dmul>
 8005d50:	4602      	mov	r2, r0
 8005d52:	460b      	mov	r3, r1
 8005d54:	4630      	mov	r0, r6
 8005d56:	4639      	mov	r1, r7
 8005d58:	f7fa fa06 	bl	8000168 <__aeabi_dsub>
 8005d5c:	f109 0630 	add.w	r6, r9, #48	; 0x30
 8005d60:	f805 6b01 	strb.w	r6, [r5], #1
 8005d64:	9e06      	ldr	r6, [sp, #24]
 8005d66:	4602      	mov	r2, r0
 8005d68:	1bae      	subs	r6, r5, r6
 8005d6a:	45b0      	cmp	r8, r6
 8005d6c:	460b      	mov	r3, r1
 8005d6e:	d135      	bne.n	8005ddc <_dtoa_r+0x6d4>
 8005d70:	f7fa f9fc 	bl	800016c <__adddf3>
 8005d74:	e9dd 2304 	ldrd	r2, r3, [sp, #16]
 8005d78:	4606      	mov	r6, r0
 8005d7a:	460f      	mov	r7, r1
 8005d7c:	f7fa fe3c 	bl	80009f8 <__aeabi_dcmpgt>
 8005d80:	b9c8      	cbnz	r0, 8005db6 <_dtoa_r+0x6ae>
 8005d82:	e9dd 2304 	ldrd	r2, r3, [sp, #16]
 8005d86:	4630      	mov	r0, r6
 8005d88:	4639      	mov	r1, r7
 8005d8a:	f7fa fe0d 	bl	80009a8 <__aeabi_dcmpeq>
 8005d8e:	b110      	cbz	r0, 8005d96 <_dtoa_r+0x68e>
 8005d90:	f019 0f01 	tst.w	r9, #1
 8005d94:	d10f      	bne.n	8005db6 <_dtoa_r+0x6ae>
 8005d96:	4659      	mov	r1, fp
 8005d98:	4620      	mov	r0, r4
 8005d9a:	f000 ffea 	bl	8006d72 <_Bfree>
 8005d9e:	2300      	movs	r3, #0
 8005da0:	9a20      	ldr	r2, [sp, #128]	; 0x80
 8005da2:	702b      	strb	r3, [r5, #0]
 8005da4:	f10a 0301 	add.w	r3, sl, #1
 8005da8:	6013      	str	r3, [r2, #0]
 8005daa:	9b22      	ldr	r3, [sp, #136]	; 0x88
 8005dac:	2b00      	cmp	r3, #0
 8005dae:	f43f acf3 	beq.w	8005798 <_dtoa_r+0x90>
 8005db2:	601d      	str	r5, [r3, #0]
 8005db4:	e4f0      	b.n	8005798 <_dtoa_r+0x90>
 8005db6:	4657      	mov	r7, sl
 8005db8:	f815 2c01 	ldrb.w	r2, [r5, #-1]
 8005dbc:	1e6b      	subs	r3, r5, #1
 8005dbe:	2a39      	cmp	r2, #57	; 0x39
 8005dc0:	d106      	bne.n	8005dd0 <_dtoa_r+0x6c8>
 8005dc2:	9a06      	ldr	r2, [sp, #24]
 8005dc4:	429a      	cmp	r2, r3
 8005dc6:	d107      	bne.n	8005dd8 <_dtoa_r+0x6d0>
 8005dc8:	2330      	movs	r3, #48	; 0x30
 8005dca:	7013      	strb	r3, [r2, #0]
 8005dcc:	4613      	mov	r3, r2
 8005dce:	3701      	adds	r7, #1
 8005dd0:	781a      	ldrb	r2, [r3, #0]
 8005dd2:	3201      	adds	r2, #1
 8005dd4:	701a      	strb	r2, [r3, #0]
 8005dd6:	e791      	b.n	8005cfc <_dtoa_r+0x5f4>
 8005dd8:	461d      	mov	r5, r3
 8005dda:	e7ed      	b.n	8005db8 <_dtoa_r+0x6b0>
 8005ddc:	2200      	movs	r2, #0
 8005dde:	4b99      	ldr	r3, [pc, #612]	; (8006044 <_dtoa_r+0x93c>)
 8005de0:	f7fa fb7a 	bl	80004d8 <__aeabi_dmul>
 8005de4:	2200      	movs	r2, #0
 8005de6:	2300      	movs	r3, #0
 8005de8:	4606      	mov	r6, r0
 8005dea:	460f      	mov	r7, r1
 8005dec:	f7fa fddc 	bl	80009a8 <__aeabi_dcmpeq>
 8005df0:	2800      	cmp	r0, #0
 8005df2:	d09e      	beq.n	8005d32 <_dtoa_r+0x62a>
 8005df4:	e7cf      	b.n	8005d96 <_dtoa_r+0x68e>
 8005df6:	9a09      	ldr	r2, [sp, #36]	; 0x24
 8005df8:	2a00      	cmp	r2, #0
 8005dfa:	f000 8088 	beq.w	8005f0e <_dtoa_r+0x806>
 8005dfe:	9a1e      	ldr	r2, [sp, #120]	; 0x78
 8005e00:	2a01      	cmp	r2, #1
 8005e02:	dc6d      	bgt.n	8005ee0 <_dtoa_r+0x7d8>
 8005e04:	9a10      	ldr	r2, [sp, #64]	; 0x40
 8005e06:	2a00      	cmp	r2, #0
 8005e08:	d066      	beq.n	8005ed8 <_dtoa_r+0x7d0>
 8005e0a:	f203 4333 	addw	r3, r3, #1075	; 0x433
 8005e0e:	464d      	mov	r5, r9
 8005e10:	9e08      	ldr	r6, [sp, #32]
 8005e12:	9a07      	ldr	r2, [sp, #28]
 8005e14:	2101      	movs	r1, #1
 8005e16:	441a      	add	r2, r3
 8005e18:	4620      	mov	r0, r4
 8005e1a:	4499      	add	r9, r3
 8005e1c:	9207      	str	r2, [sp, #28]
 8005e1e:	f001 f886 	bl	8006f2e <__i2b>
 8005e22:	4607      	mov	r7, r0
 8005e24:	2d00      	cmp	r5, #0
 8005e26:	dd0b      	ble.n	8005e40 <_dtoa_r+0x738>
 8005e28:	9b07      	ldr	r3, [sp, #28]
 8005e2a:	2b00      	cmp	r3, #0
 8005e2c:	dd08      	ble.n	8005e40 <_dtoa_r+0x738>
 8005e2e:	42ab      	cmp	r3, r5
 8005e30:	bfa8      	it	ge
 8005e32:	462b      	movge	r3, r5
 8005e34:	9a07      	ldr	r2, [sp, #28]
 8005e36:	eba9 0903 	sub.w	r9, r9, r3
 8005e3a:	1aed      	subs	r5, r5, r3
 8005e3c:	1ad3      	subs	r3, r2, r3
 8005e3e:	9307      	str	r3, [sp, #28]
 8005e40:	9b08      	ldr	r3, [sp, #32]
 8005e42:	b1eb      	cbz	r3, 8005e80 <_dtoa_r+0x778>
 8005e44:	9b09      	ldr	r3, [sp, #36]	; 0x24
 8005e46:	2b00      	cmp	r3, #0
 8005e48:	d065      	beq.n	8005f16 <_dtoa_r+0x80e>
 8005e4a:	b18e      	cbz	r6, 8005e70 <_dtoa_r+0x768>
 8005e4c:	4639      	mov	r1, r7
 8005e4e:	4632      	mov	r2, r6
 8005e50:	4620      	mov	r0, r4
 8005e52:	f001 f90b 	bl	800706c <__pow5mult>
 8005e56:	465a      	mov	r2, fp
 8005e58:	4601      	mov	r1, r0
 8005e5a:	4607      	mov	r7, r0
 8005e5c:	4620      	mov	r0, r4
 8005e5e:	f001 f86f 	bl	8006f40 <__multiply>
 8005e62:	4659      	mov	r1, fp
 8005e64:	900a      	str	r0, [sp, #40]	; 0x28
 8005e66:	4620      	mov	r0, r4
 8005e68:	f000 ff83 	bl	8006d72 <_Bfree>
 8005e6c:	9b0a      	ldr	r3, [sp, #40]	; 0x28
 8005e6e:	469b      	mov	fp, r3
 8005e70:	9b08      	ldr	r3, [sp, #32]
 8005e72:	1b9a      	subs	r2, r3, r6
 8005e74:	d004      	beq.n	8005e80 <_dtoa_r+0x778>
 8005e76:	4659      	mov	r1, fp
 8005e78:	4620      	mov	r0, r4
 8005e7a:	f001 f8f7 	bl	800706c <__pow5mult>
 8005e7e:	4683      	mov	fp, r0
 8005e80:	2101      	movs	r1, #1
 8005e82:	4620      	mov	r0, r4
 8005e84:	f001 f853 	bl	8006f2e <__i2b>
 8005e88:	9b0c      	ldr	r3, [sp, #48]	; 0x30
 8005e8a:	4606      	mov	r6, r0
 8005e8c:	2b00      	cmp	r3, #0
 8005e8e:	f000 81c6 	beq.w	800621e <_dtoa_r+0xb16>
 8005e92:	461a      	mov	r2, r3
 8005e94:	4601      	mov	r1, r0
 8005e96:	4620      	mov	r0, r4
 8005e98:	f001 f8e8 	bl	800706c <__pow5mult>
 8005e9c:	9b1e      	ldr	r3, [sp, #120]	; 0x78
 8005e9e:	4606      	mov	r6, r0
 8005ea0:	2b01      	cmp	r3, #1
 8005ea2:	dc3e      	bgt.n	8005f22 <_dtoa_r+0x81a>
 8005ea4:	9b02      	ldr	r3, [sp, #8]
 8005ea6:	2b00      	cmp	r3, #0
 8005ea8:	d137      	bne.n	8005f1a <_dtoa_r+0x812>
 8005eaa:	9b03      	ldr	r3, [sp, #12]
 8005eac:	f3c3 0313 	ubfx	r3, r3, #0, #20
 8005eb0:	2b00      	cmp	r3, #0
 8005eb2:	d134      	bne.n	8005f1e <_dtoa_r+0x816>
 8005eb4:	9b03      	ldr	r3, [sp, #12]
 8005eb6:	f023 4300 	bic.w	r3, r3, #2147483648	; 0x80000000
 8005eba:	0d1b      	lsrs	r3, r3, #20
 8005ebc:	051b      	lsls	r3, r3, #20
 8005ebe:	b12b      	cbz	r3, 8005ecc <_dtoa_r+0x7c4>
 8005ec0:	9b07      	ldr	r3, [sp, #28]
 8005ec2:	f109 0901 	add.w	r9, r9, #1
 8005ec6:	3301      	adds	r3, #1
 8005ec8:	9307      	str	r3, [sp, #28]
 8005eca:	2301      	movs	r3, #1
 8005ecc:	9308      	str	r3, [sp, #32]
 8005ece:	9b0c      	ldr	r3, [sp, #48]	; 0x30
 8005ed0:	2b00      	cmp	r3, #0
 8005ed2:	d128      	bne.n	8005f26 <_dtoa_r+0x81e>
 8005ed4:	2001      	movs	r0, #1
 8005ed6:	e02e      	b.n	8005f36 <_dtoa_r+0x82e>
 8005ed8:	9b12      	ldr	r3, [sp, #72]	; 0x48
 8005eda:	f1c3 0336 	rsb	r3, r3, #54	; 0x36
 8005ede:	e796      	b.n	8005e0e <_dtoa_r+0x706>
 8005ee0:	9b08      	ldr	r3, [sp, #32]
 8005ee2:	f108 36ff 	add.w	r6, r8, #4294967295	; 0xffffffff
 8005ee6:	42b3      	cmp	r3, r6
 8005ee8:	bfb7      	itett	lt
 8005eea:	9b08      	ldrlt	r3, [sp, #32]
 8005eec:	1b9e      	subge	r6, r3, r6
 8005eee:	1af2      	sublt	r2, r6, r3
 8005ef0:	9b0c      	ldrlt	r3, [sp, #48]	; 0x30
 8005ef2:	bfbf      	itttt	lt
 8005ef4:	9608      	strlt	r6, [sp, #32]
 8005ef6:	189b      	addlt	r3, r3, r2
 8005ef8:	930c      	strlt	r3, [sp, #48]	; 0x30
 8005efa:	2600      	movlt	r6, #0
 8005efc:	f1b8 0f00 	cmp.w	r8, #0
 8005f00:	bfb9      	ittee	lt
 8005f02:	eba9 0508 	sublt.w	r5, r9, r8
 8005f06:	2300      	movlt	r3, #0
 8005f08:	464d      	movge	r5, r9
 8005f0a:	4643      	movge	r3, r8
 8005f0c:	e781      	b.n	8005e12 <_dtoa_r+0x70a>
 8005f0e:	9e08      	ldr	r6, [sp, #32]
 8005f10:	464d      	mov	r5, r9
 8005f12:	9f09      	ldr	r7, [sp, #36]	; 0x24
 8005f14:	e786      	b.n	8005e24 <_dtoa_r+0x71c>
 8005f16:	9a08      	ldr	r2, [sp, #32]
 8005f18:	e7ad      	b.n	8005e76 <_dtoa_r+0x76e>
 8005f1a:	2300      	movs	r3, #0
 8005f1c:	e7d6      	b.n	8005ecc <_dtoa_r+0x7c4>
 8005f1e:	9b02      	ldr	r3, [sp, #8]
 8005f20:	e7d4      	b.n	8005ecc <_dtoa_r+0x7c4>
 8005f22:	2300      	movs	r3, #0
 8005f24:	9308      	str	r3, [sp, #32]
 8005f26:	6933      	ldr	r3, [r6, #16]
 8005f28:	eb06 0383 	add.w	r3, r6, r3, lsl #2
 8005f2c:	6918      	ldr	r0, [r3, #16]
 8005f2e:	f000 ffb0 	bl	8006e92 <__hi0bits>
 8005f32:	f1c0 0020 	rsb	r0, r0, #32
 8005f36:	9b07      	ldr	r3, [sp, #28]
 8005f38:	4418      	add	r0, r3
 8005f3a:	f010 001f 	ands.w	r0, r0, #31
 8005f3e:	d047      	beq.n	8005fd0 <_dtoa_r+0x8c8>
 8005f40:	f1c0 0320 	rsb	r3, r0, #32
 8005f44:	2b04      	cmp	r3, #4
 8005f46:	dd3b      	ble.n	8005fc0 <_dtoa_r+0x8b8>
 8005f48:	9b07      	ldr	r3, [sp, #28]
 8005f4a:	f1c0 001c 	rsb	r0, r0, #28
 8005f4e:	4481      	add	r9, r0
 8005f50:	4405      	add	r5, r0
 8005f52:	4403      	add	r3, r0
 8005f54:	9307      	str	r3, [sp, #28]
 8005f56:	f1b9 0f00 	cmp.w	r9, #0
 8005f5a:	dd05      	ble.n	8005f68 <_dtoa_r+0x860>
 8005f5c:	4659      	mov	r1, fp
 8005f5e:	464a      	mov	r2, r9
 8005f60:	4620      	mov	r0, r4
 8005f62:	f001 f8d1 	bl	8007108 <__lshift>
 8005f66:	4683      	mov	fp, r0
 8005f68:	9b07      	ldr	r3, [sp, #28]
 8005f6a:	2b00      	cmp	r3, #0
 8005f6c:	dd05      	ble.n	8005f7a <_dtoa_r+0x872>
 8005f6e:	4631      	mov	r1, r6
 8005f70:	461a      	mov	r2, r3
 8005f72:	4620      	mov	r0, r4
 8005f74:	f001 f8c8 	bl	8007108 <__lshift>
 8005f78:	4606      	mov	r6, r0
 8005f7a:	9b0d      	ldr	r3, [sp, #52]	; 0x34
 8005f7c:	b353      	cbz	r3, 8005fd4 <_dtoa_r+0x8cc>
 8005f7e:	4631      	mov	r1, r6
 8005f80:	4658      	mov	r0, fp
 8005f82:	f001 f915 	bl	80071b0 <__mcmp>
 8005f86:	2800      	cmp	r0, #0
 8005f88:	da24      	bge.n	8005fd4 <_dtoa_r+0x8cc>
 8005f8a:	2300      	movs	r3, #0
 8005f8c:	4659      	mov	r1, fp
 8005f8e:	220a      	movs	r2, #10
 8005f90:	4620      	mov	r0, r4
 8005f92:	f000 ff05 	bl	8006da0 <__multadd>
 8005f96:	9b09      	ldr	r3, [sp, #36]	; 0x24
 8005f98:	f10a 3aff 	add.w	sl, sl, #4294967295	; 0xffffffff
 8005f9c:	4683      	mov	fp, r0
 8005f9e:	2b00      	cmp	r3, #0
 8005fa0:	f000 8144 	beq.w	800622c <_dtoa_r+0xb24>
 8005fa4:	2300      	movs	r3, #0
 8005fa6:	4639      	mov	r1, r7
 8005fa8:	220a      	movs	r2, #10
 8005faa:	4620      	mov	r0, r4
 8005fac:	f000 fef8 	bl	8006da0 <__multadd>
 8005fb0:	9b04      	ldr	r3, [sp, #16]
 8005fb2:	4607      	mov	r7, r0
 8005fb4:	2b00      	cmp	r3, #0
 8005fb6:	dc4d      	bgt.n	8006054 <_dtoa_r+0x94c>
 8005fb8:	9b1e      	ldr	r3, [sp, #120]	; 0x78
 8005fba:	2b02      	cmp	r3, #2
 8005fbc:	dd4a      	ble.n	8006054 <_dtoa_r+0x94c>
 8005fbe:	e011      	b.n	8005fe4 <_dtoa_r+0x8dc>
 8005fc0:	d0c9      	beq.n	8005f56 <_dtoa_r+0x84e>
 8005fc2:	9a07      	ldr	r2, [sp, #28]
 8005fc4:	331c      	adds	r3, #28
 8005fc6:	441a      	add	r2, r3
 8005fc8:	4499      	add	r9, r3
 8005fca:	441d      	add	r5, r3
 8005fcc:	4613      	mov	r3, r2
 8005fce:	e7c1      	b.n	8005f54 <_dtoa_r+0x84c>
 8005fd0:	4603      	mov	r3, r0
 8005fd2:	e7f6      	b.n	8005fc2 <_dtoa_r+0x8ba>
 8005fd4:	f1b8 0f00 	cmp.w	r8, #0
 8005fd8:	dc36      	bgt.n	8006048 <_dtoa_r+0x940>
 8005fda:	9b1e      	ldr	r3, [sp, #120]	; 0x78
 8005fdc:	2b02      	cmp	r3, #2
 8005fde:	dd33      	ble.n	8006048 <_dtoa_r+0x940>
 8005fe0:	f8cd 8010 	str.w	r8, [sp, #16]
 8005fe4:	9b04      	ldr	r3, [sp, #16]
 8005fe6:	b963      	cbnz	r3, 8006002 <_dtoa_r+0x8fa>
 8005fe8:	4631      	mov	r1, r6
 8005fea:	2205      	movs	r2, #5
 8005fec:	4620      	mov	r0, r4
 8005fee:	f000 fed7 	bl	8006da0 <__multadd>
 8005ff2:	4601      	mov	r1, r0
 8005ff4:	4606      	mov	r6, r0
 8005ff6:	4658      	mov	r0, fp
 8005ff8:	f001 f8da 	bl	80071b0 <__mcmp>
 8005ffc:	2800      	cmp	r0, #0
 8005ffe:	f73f add3 	bgt.w	8005ba8 <_dtoa_r+0x4a0>
 8006002:	9b1f      	ldr	r3, [sp, #124]	; 0x7c
 8006004:	9d06      	ldr	r5, [sp, #24]
 8006006:	ea6f 0a03 	mvn.w	sl, r3
 800600a:	f04f 0900 	mov.w	r9, #0
 800600e:	4631      	mov	r1, r6
 8006010:	4620      	mov	r0, r4
 8006012:	f000 feae 	bl	8006d72 <_Bfree>
 8006016:	2f00      	cmp	r7, #0
 8006018:	f43f aebd 	beq.w	8005d96 <_dtoa_r+0x68e>
 800601c:	f1b9 0f00 	cmp.w	r9, #0
 8006020:	d005      	beq.n	800602e <_dtoa_r+0x926>
 8006022:	45b9      	cmp	r9, r7
 8006024:	d003      	beq.n	800602e <_dtoa_r+0x926>
 8006026:	4649      	mov	r1, r9
 8006028:	4620      	mov	r0, r4
 800602a:	f000 fea2 	bl	8006d72 <_Bfree>
 800602e:	4639      	mov	r1, r7
 8006030:	4620      	mov	r0, r4
 8006032:	f000 fe9e 	bl	8006d72 <_Bfree>
 8006036:	e6ae      	b.n	8005d96 <_dtoa_r+0x68e>
 8006038:	2600      	movs	r6, #0
 800603a:	4637      	mov	r7, r6
 800603c:	e7e1      	b.n	8006002 <_dtoa_r+0x8fa>
 800603e:	46ba      	mov	sl, r7
 8006040:	4637      	mov	r7, r6
 8006042:	e5b1      	b.n	8005ba8 <_dtoa_r+0x4a0>
 8006044:	40240000 	.word	0x40240000
 8006048:	9b09      	ldr	r3, [sp, #36]	; 0x24
 800604a:	f8cd 8010 	str.w	r8, [sp, #16]
 800604e:	2b00      	cmp	r3, #0
 8006050:	f000 80f3 	beq.w	800623a <_dtoa_r+0xb32>
 8006054:	2d00      	cmp	r5, #0
 8006056:	dd05      	ble.n	8006064 <_dtoa_r+0x95c>
 8006058:	4639      	mov	r1, r7
 800605a:	462a      	mov	r2, r5
 800605c:	4620      	mov	r0, r4
 800605e:	f001 f853 	bl	8007108 <__lshift>
 8006062:	4607      	mov	r7, r0
 8006064:	9b08      	ldr	r3, [sp, #32]
 8006066:	2b00      	cmp	r3, #0
 8006068:	d04c      	beq.n	8006104 <_dtoa_r+0x9fc>
 800606a:	6879      	ldr	r1, [r7, #4]
 800606c:	4620      	mov	r0, r4
 800606e:	f000 fe4c 	bl	8006d0a <_Balloc>
 8006072:	4605      	mov	r5, r0
 8006074:	693a      	ldr	r2, [r7, #16]
 8006076:	f107 010c 	add.w	r1, r7, #12
 800607a:	3202      	adds	r2, #2
 800607c:	0092      	lsls	r2, r2, #2
 800607e:	300c      	adds	r0, #12
 8006080:	f000 fe38 	bl	8006cf4 <memcpy>
 8006084:	2201      	movs	r2, #1
 8006086:	4629      	mov	r1, r5
 8006088:	4620      	mov	r0, r4
 800608a:	f001 f83d 	bl	8007108 <__lshift>
 800608e:	46b9      	mov	r9, r7
 8006090:	4607      	mov	r7, r0
 8006092:	9b06      	ldr	r3, [sp, #24]
 8006094:	9307      	str	r3, [sp, #28]
 8006096:	9b02      	ldr	r3, [sp, #8]
 8006098:	f003 0301 	and.w	r3, r3, #1
 800609c:	9308      	str	r3, [sp, #32]
 800609e:	4631      	mov	r1, r6
 80060a0:	4658      	mov	r0, fp
 80060a2:	f7ff faa1 	bl	80055e8 <quorem>
 80060a6:	4649      	mov	r1, r9
 80060a8:	4605      	mov	r5, r0
 80060aa:	f100 0830 	add.w	r8, r0, #48	; 0x30
 80060ae:	4658      	mov	r0, fp
 80060b0:	f001 f87e 	bl	80071b0 <__mcmp>
 80060b4:	463a      	mov	r2, r7
 80060b6:	9002      	str	r0, [sp, #8]
 80060b8:	4631      	mov	r1, r6
 80060ba:	4620      	mov	r0, r4
 80060bc:	f001 f892 	bl	80071e4 <__mdiff>
 80060c0:	68c3      	ldr	r3, [r0, #12]
 80060c2:	4602      	mov	r2, r0
 80060c4:	bb03      	cbnz	r3, 8006108 <_dtoa_r+0xa00>
 80060c6:	4601      	mov	r1, r0
 80060c8:	9009      	str	r0, [sp, #36]	; 0x24
 80060ca:	4658      	mov	r0, fp
 80060cc:	f001 f870 	bl	80071b0 <__mcmp>
 80060d0:	4603      	mov	r3, r0
 80060d2:	9a09      	ldr	r2, [sp, #36]	; 0x24
 80060d4:	4611      	mov	r1, r2
 80060d6:	4620      	mov	r0, r4
 80060d8:	9309      	str	r3, [sp, #36]	; 0x24
 80060da:	f000 fe4a 	bl	8006d72 <_Bfree>
 80060de:	9b09      	ldr	r3, [sp, #36]	; 0x24
 80060e0:	b9a3      	cbnz	r3, 800610c <_dtoa_r+0xa04>
 80060e2:	9a1e      	ldr	r2, [sp, #120]	; 0x78
 80060e4:	b992      	cbnz	r2, 800610c <_dtoa_r+0xa04>
 80060e6:	9a08      	ldr	r2, [sp, #32]
 80060e8:	b982      	cbnz	r2, 800610c <_dtoa_r+0xa04>
 80060ea:	f1b8 0f39 	cmp.w	r8, #57	; 0x39
 80060ee:	d029      	beq.n	8006144 <_dtoa_r+0xa3c>
 80060f0:	9b02      	ldr	r3, [sp, #8]
 80060f2:	2b00      	cmp	r3, #0
 80060f4:	dd01      	ble.n	80060fa <_dtoa_r+0x9f2>
 80060f6:	f105 0831 	add.w	r8, r5, #49	; 0x31
 80060fa:	9b07      	ldr	r3, [sp, #28]
 80060fc:	1c5d      	adds	r5, r3, #1
 80060fe:	f883 8000 	strb.w	r8, [r3]
 8006102:	e784      	b.n	800600e <_dtoa_r+0x906>
 8006104:	4638      	mov	r0, r7
 8006106:	e7c2      	b.n	800608e <_dtoa_r+0x986>
 8006108:	2301      	movs	r3, #1
 800610a:	e7e3      	b.n	80060d4 <_dtoa_r+0x9cc>
 800610c:	9a02      	ldr	r2, [sp, #8]
 800610e:	2a00      	cmp	r2, #0
 8006110:	db04      	blt.n	800611c <_dtoa_r+0xa14>
 8006112:	d123      	bne.n	800615c <_dtoa_r+0xa54>
 8006114:	9a1e      	ldr	r2, [sp, #120]	; 0x78
 8006116:	bb0a      	cbnz	r2, 800615c <_dtoa_r+0xa54>
 8006118:	9a08      	ldr	r2, [sp, #32]
 800611a:	b9fa      	cbnz	r2, 800615c <_dtoa_r+0xa54>
 800611c:	2b00      	cmp	r3, #0
 800611e:	ddec      	ble.n	80060fa <_dtoa_r+0x9f2>
 8006120:	4659      	mov	r1, fp
 8006122:	2201      	movs	r2, #1
 8006124:	4620      	mov	r0, r4
 8006126:	f000 ffef 	bl	8007108 <__lshift>
 800612a:	4631      	mov	r1, r6
 800612c:	4683      	mov	fp, r0
 800612e:	f001 f83f 	bl	80071b0 <__mcmp>
 8006132:	2800      	cmp	r0, #0
 8006134:	dc03      	bgt.n	800613e <_dtoa_r+0xa36>
 8006136:	d1e0      	bne.n	80060fa <_dtoa_r+0x9f2>
 8006138:	f018 0f01 	tst.w	r8, #1
 800613c:	d0dd      	beq.n	80060fa <_dtoa_r+0x9f2>
 800613e:	f1b8 0f39 	cmp.w	r8, #57	; 0x39
 8006142:	d1d8      	bne.n	80060f6 <_dtoa_r+0x9ee>
 8006144:	9b07      	ldr	r3, [sp, #28]
 8006146:	9a07      	ldr	r2, [sp, #28]
 8006148:	1c5d      	adds	r5, r3, #1
 800614a:	2339      	movs	r3, #57	; 0x39
 800614c:	7013      	strb	r3, [r2, #0]
 800614e:	f815 3c01 	ldrb.w	r3, [r5, #-1]
 8006152:	1e6a      	subs	r2, r5, #1
 8006154:	2b39      	cmp	r3, #57	; 0x39
 8006156:	d04d      	beq.n	80061f4 <_dtoa_r+0xaec>
 8006158:	3301      	adds	r3, #1
 800615a:	e052      	b.n	8006202 <_dtoa_r+0xafa>
 800615c:	9a07      	ldr	r2, [sp, #28]
 800615e:	2b00      	cmp	r3, #0
 8006160:	f102 0501 	add.w	r5, r2, #1
 8006164:	dd06      	ble.n	8006174 <_dtoa_r+0xa6c>
 8006166:	f1b8 0f39 	cmp.w	r8, #57	; 0x39
 800616a:	d0eb      	beq.n	8006144 <_dtoa_r+0xa3c>
 800616c:	f108 0801 	add.w	r8, r8, #1
 8006170:	9b07      	ldr	r3, [sp, #28]
 8006172:	e7c4      	b.n	80060fe <_dtoa_r+0x9f6>
 8006174:	9b06      	ldr	r3, [sp, #24]
 8006176:	9a04      	ldr	r2, [sp, #16]
 8006178:	1aeb      	subs	r3, r5, r3
 800617a:	4293      	cmp	r3, r2
 800617c:	f805 8c01 	strb.w	r8, [r5, #-1]
 8006180:	d021      	beq.n	80061c6 <_dtoa_r+0xabe>
 8006182:	4659      	mov	r1, fp
 8006184:	2300      	movs	r3, #0
 8006186:	220a      	movs	r2, #10
 8006188:	4620      	mov	r0, r4
 800618a:	f000 fe09 	bl	8006da0 <__multadd>
 800618e:	45b9      	cmp	r9, r7
 8006190:	4683      	mov	fp, r0
 8006192:	f04f 0300 	mov.w	r3, #0
 8006196:	f04f 020a 	mov.w	r2, #10
 800619a:	4649      	mov	r1, r9
 800619c:	4620      	mov	r0, r4
 800619e:	d105      	bne.n	80061ac <_dtoa_r+0xaa4>
 80061a0:	f000 fdfe 	bl	8006da0 <__multadd>
 80061a4:	4681      	mov	r9, r0
 80061a6:	4607      	mov	r7, r0
 80061a8:	9507      	str	r5, [sp, #28]
 80061aa:	e778      	b.n	800609e <_dtoa_r+0x996>
 80061ac:	f000 fdf8 	bl	8006da0 <__multadd>
 80061b0:	4639      	mov	r1, r7
 80061b2:	4681      	mov	r9, r0
 80061b4:	2300      	movs	r3, #0
 80061b6:	220a      	movs	r2, #10
 80061b8:	4620      	mov	r0, r4
 80061ba:	f000 fdf1 	bl	8006da0 <__multadd>
 80061be:	4607      	mov	r7, r0
 80061c0:	e7f2      	b.n	80061a8 <_dtoa_r+0xaa0>
 80061c2:	f04f 0900 	mov.w	r9, #0
 80061c6:	4659      	mov	r1, fp
 80061c8:	2201      	movs	r2, #1
 80061ca:	4620      	mov	r0, r4
 80061cc:	f000 ff9c 	bl	8007108 <__lshift>
 80061d0:	4631      	mov	r1, r6
 80061d2:	4683      	mov	fp, r0
 80061d4:	f000 ffec 	bl	80071b0 <__mcmp>
 80061d8:	2800      	cmp	r0, #0
 80061da:	dcb8      	bgt.n	800614e <_dtoa_r+0xa46>
 80061dc:	d102      	bne.n	80061e4 <_dtoa_r+0xadc>
 80061de:	f018 0f01 	tst.w	r8, #1
 80061e2:	d1b4      	bne.n	800614e <_dtoa_r+0xa46>
 80061e4:	f815 3c01 	ldrb.w	r3, [r5, #-1]
 80061e8:	1e6a      	subs	r2, r5, #1
 80061ea:	2b30      	cmp	r3, #48	; 0x30
 80061ec:	f47f af0f 	bne.w	800600e <_dtoa_r+0x906>
 80061f0:	4615      	mov	r5, r2
 80061f2:	e7f7      	b.n	80061e4 <_dtoa_r+0xadc>
 80061f4:	9b06      	ldr	r3, [sp, #24]
 80061f6:	4293      	cmp	r3, r2
 80061f8:	d105      	bne.n	8006206 <_dtoa_r+0xafe>
 80061fa:	2331      	movs	r3, #49	; 0x31
 80061fc:	9a06      	ldr	r2, [sp, #24]
 80061fe:	f10a 0a01 	add.w	sl, sl, #1
 8006202:	7013      	strb	r3, [r2, #0]
 8006204:	e703      	b.n	800600e <_dtoa_r+0x906>
 8006206:	4615      	mov	r5, r2
 8006208:	e7a1      	b.n	800614e <_dtoa_r+0xa46>
 800620a:	4b17      	ldr	r3, [pc, #92]	; (8006268 <_dtoa_r+0xb60>)
 800620c:	f7ff bae1 	b.w	80057d2 <_dtoa_r+0xca>
 8006210:	9b22      	ldr	r3, [sp, #136]	; 0x88
 8006212:	2b00      	cmp	r3, #0
 8006214:	f47f aabb 	bne.w	800578e <_dtoa_r+0x86>
 8006218:	4b14      	ldr	r3, [pc, #80]	; (800626c <_dtoa_r+0xb64>)
 800621a:	f7ff bada 	b.w	80057d2 <_dtoa_r+0xca>
 800621e:	9b1e      	ldr	r3, [sp, #120]	; 0x78
 8006220:	2b01      	cmp	r3, #1
 8006222:	f77f ae3f 	ble.w	8005ea4 <_dtoa_r+0x79c>
 8006226:	9b0c      	ldr	r3, [sp, #48]	; 0x30
 8006228:	9308      	str	r3, [sp, #32]
 800622a:	e653      	b.n	8005ed4 <_dtoa_r+0x7cc>
 800622c:	9b04      	ldr	r3, [sp, #16]
 800622e:	2b00      	cmp	r3, #0
 8006230:	dc03      	bgt.n	800623a <_dtoa_r+0xb32>
 8006232:	9b1e      	ldr	r3, [sp, #120]	; 0x78
 8006234:	2b02      	cmp	r3, #2
 8006236:	f73f aed5 	bgt.w	8005fe4 <_dtoa_r+0x8dc>
 800623a:	9d06      	ldr	r5, [sp, #24]
 800623c:	4631      	mov	r1, r6
 800623e:	4658      	mov	r0, fp
 8006240:	f7ff f9d2 	bl	80055e8 <quorem>
 8006244:	9b06      	ldr	r3, [sp, #24]
 8006246:	f100 0830 	add.w	r8, r0, #48	; 0x30
 800624a:	f805 8b01 	strb.w	r8, [r5], #1
 800624e:	9a04      	ldr	r2, [sp, #16]
 8006250:	1aeb      	subs	r3, r5, r3
 8006252:	429a      	cmp	r2, r3
 8006254:	ddb5      	ble.n	80061c2 <_dtoa_r+0xaba>
 8006256:	4659      	mov	r1, fp
 8006258:	2300      	movs	r3, #0
 800625a:	220a      	movs	r2, #10
 800625c:	4620      	mov	r0, r4
 800625e:	f000 fd9f 	bl	8006da0 <__multadd>
 8006262:	4683      	mov	fp, r0
 8006264:	e7ea      	b.n	800623c <_dtoa_r+0xb34>
 8006266:	bf00      	nop
 8006268:	08007f64 	.word	0x08007f64
 800626c:	08007fe0 	.word	0x08007fe0

08006270 <__sflush_r>:
 8006270:	898a      	ldrh	r2, [r1, #12]
 8006272:	e92d 41f0 	stmdb	sp!, {r4, r5, r6, r7, r8, lr}
 8006276:	4605      	mov	r5, r0
 8006278:	0710      	lsls	r0, r2, #28
 800627a:	460c      	mov	r4, r1
 800627c:	d458      	bmi.n	8006330 <__sflush_r+0xc0>
 800627e:	684b      	ldr	r3, [r1, #4]
 8006280:	2b00      	cmp	r3, #0
 8006282:	dc05      	bgt.n	8006290 <__sflush_r+0x20>
 8006284:	6c0b      	ldr	r3, [r1, #64]	; 0x40
 8006286:	2b00      	cmp	r3, #0
 8006288:	dc02      	bgt.n	8006290 <__sflush_r+0x20>
 800628a:	2000      	movs	r0, #0
 800628c:	e8bd 81f0 	ldmia.w	sp!, {r4, r5, r6, r7, r8, pc}
 8006290:	6ae6      	ldr	r6, [r4, #44]	; 0x2c
 8006292:	2e00      	cmp	r6, #0
 8006294:	d0f9      	beq.n	800628a <__sflush_r+0x1a>
 8006296:	2300      	movs	r3, #0
 8006298:	f412 5280 	ands.w	r2, r2, #4096	; 0x1000
 800629c:	682f      	ldr	r7, [r5, #0]
 800629e:	6a21      	ldr	r1, [r4, #32]
 80062a0:	602b      	str	r3, [r5, #0]
 80062a2:	d032      	beq.n	800630a <__sflush_r+0x9a>
 80062a4:	6d60      	ldr	r0, [r4, #84]	; 0x54
 80062a6:	89a3      	ldrh	r3, [r4, #12]
 80062a8:	075a      	lsls	r2, r3, #29
 80062aa:	d505      	bpl.n	80062b8 <__sflush_r+0x48>
 80062ac:	6863      	ldr	r3, [r4, #4]
 80062ae:	1ac0      	subs	r0, r0, r3
 80062b0:	6b63      	ldr	r3, [r4, #52]	; 0x34
 80062b2:	b10b      	cbz	r3, 80062b8 <__sflush_r+0x48>
 80062b4:	6c23      	ldr	r3, [r4, #64]	; 0x40
 80062b6:	1ac0      	subs	r0, r0, r3
 80062b8:	2300      	movs	r3, #0
 80062ba:	4602      	mov	r2, r0
 80062bc:	6ae6      	ldr	r6, [r4, #44]	; 0x2c
 80062be:	6a21      	ldr	r1, [r4, #32]
 80062c0:	4628      	mov	r0, r5
 80062c2:	47b0      	blx	r6
 80062c4:	1c43      	adds	r3, r0, #1
 80062c6:	89a3      	ldrh	r3, [r4, #12]
 80062c8:	d106      	bne.n	80062d8 <__sflush_r+0x68>
 80062ca:	6829      	ldr	r1, [r5, #0]
 80062cc:	291d      	cmp	r1, #29
 80062ce:	d848      	bhi.n	8006362 <__sflush_r+0xf2>
 80062d0:	4a29      	ldr	r2, [pc, #164]	; (8006378 <__sflush_r+0x108>)
 80062d2:	40ca      	lsrs	r2, r1
 80062d4:	07d6      	lsls	r6, r2, #31
 80062d6:	d544      	bpl.n	8006362 <__sflush_r+0xf2>
 80062d8:	2200      	movs	r2, #0
 80062da:	6062      	str	r2, [r4, #4]
 80062dc:	6922      	ldr	r2, [r4, #16]
 80062de:	04d9      	lsls	r1, r3, #19
 80062e0:	6022      	str	r2, [r4, #0]
 80062e2:	d504      	bpl.n	80062ee <__sflush_r+0x7e>
 80062e4:	1c42      	adds	r2, r0, #1
 80062e6:	d101      	bne.n	80062ec <__sflush_r+0x7c>
 80062e8:	682b      	ldr	r3, [r5, #0]
 80062ea:	b903      	cbnz	r3, 80062ee <__sflush_r+0x7e>
 80062ec:	6560      	str	r0, [r4, #84]	; 0x54
 80062ee:	6b61      	ldr	r1, [r4, #52]	; 0x34
 80062f0:	602f      	str	r7, [r5, #0]
 80062f2:	2900      	cmp	r1, #0
 80062f4:	d0c9      	beq.n	800628a <__sflush_r+0x1a>
 80062f6:	f104 0344 	add.w	r3, r4, #68	; 0x44
 80062fa:	4299      	cmp	r1, r3
 80062fc:	d002      	beq.n	8006304 <__sflush_r+0x94>
 80062fe:	4628      	mov	r0, r5
 8006300:	f001 f90a 	bl	8007518 <_free_r>
 8006304:	2000      	movs	r0, #0
 8006306:	6360      	str	r0, [r4, #52]	; 0x34
 8006308:	e7c0      	b.n	800628c <__sflush_r+0x1c>
 800630a:	2301      	movs	r3, #1
 800630c:	4628      	mov	r0, r5
 800630e:	47b0      	blx	r6
 8006310:	1c41      	adds	r1, r0, #1
 8006312:	d1c8      	bne.n	80062a6 <__sflush_r+0x36>
 8006314:	682b      	ldr	r3, [r5, #0]
 8006316:	2b00      	cmp	r3, #0
 8006318:	d0c5      	beq.n	80062a6 <__sflush_r+0x36>
 800631a:	2b1d      	cmp	r3, #29
 800631c:	d001      	beq.n	8006322 <__sflush_r+0xb2>
 800631e:	2b16      	cmp	r3, #22
 8006320:	d101      	bne.n	8006326 <__sflush_r+0xb6>
 8006322:	602f      	str	r7, [r5, #0]
 8006324:	e7b1      	b.n	800628a <__sflush_r+0x1a>
 8006326:	89a3      	ldrh	r3, [r4, #12]
 8006328:	f043 0340 	orr.w	r3, r3, #64	; 0x40
 800632c:	81a3      	strh	r3, [r4, #12]
 800632e:	e7ad      	b.n	800628c <__sflush_r+0x1c>
 8006330:	690f      	ldr	r7, [r1, #16]
 8006332:	2f00      	cmp	r7, #0
 8006334:	d0a9      	beq.n	800628a <__sflush_r+0x1a>
 8006336:	0793      	lsls	r3, r2, #30
 8006338:	bf18      	it	ne
 800633a:	2300      	movne	r3, #0
 800633c:	680e      	ldr	r6, [r1, #0]
 800633e:	bf08      	it	eq
 8006340:	694b      	ldreq	r3, [r1, #20]
 8006342:	eba6 0807 	sub.w	r8, r6, r7
 8006346:	600f      	str	r7, [r1, #0]
 8006348:	608b      	str	r3, [r1, #8]
 800634a:	f1b8 0f00 	cmp.w	r8, #0
 800634e:	dd9c      	ble.n	800628a <__sflush_r+0x1a>
 8006350:	4643      	mov	r3, r8
 8006352:	463a      	mov	r2, r7
 8006354:	6a21      	ldr	r1, [r4, #32]
 8006356:	4628      	mov	r0, r5
 8006358:	6aa6      	ldr	r6, [r4, #40]	; 0x28
 800635a:	47b0      	blx	r6
 800635c:	2800      	cmp	r0, #0
 800635e:	dc06      	bgt.n	800636e <__sflush_r+0xfe>
 8006360:	89a3      	ldrh	r3, [r4, #12]
 8006362:	f043 0340 	orr.w	r3, r3, #64	; 0x40
 8006366:	81a3      	strh	r3, [r4, #12]
 8006368:	f04f 30ff 	mov.w	r0, #4294967295	; 0xffffffff
 800636c:	e78e      	b.n	800628c <__sflush_r+0x1c>
 800636e:	4407      	add	r7, r0
 8006370:	eba8 0800 	sub.w	r8, r8, r0
 8006374:	e7e9      	b.n	800634a <__sflush_r+0xda>
 8006376:	bf00      	nop
 8006378:	20400001 	.word	0x20400001

0800637c <_fflush_r>:
 800637c:	b538      	push	{r3, r4, r5, lr}
 800637e:	690b      	ldr	r3, [r1, #16]
 8006380:	4605      	mov	r5, r0
 8006382:	460c      	mov	r4, r1
 8006384:	b1db      	cbz	r3, 80063be <_fflush_r+0x42>
 8006386:	b118      	cbz	r0, 8006390 <_fflush_r+0x14>
 8006388:	6983      	ldr	r3, [r0, #24]
 800638a:	b90b      	cbnz	r3, 8006390 <_fflush_r+0x14>
 800638c:	f000 f860 	bl	8006450 <__sinit>
 8006390:	4b0c      	ldr	r3, [pc, #48]	; (80063c4 <_fflush_r+0x48>)
 8006392:	429c      	cmp	r4, r3
 8006394:	d109      	bne.n	80063aa <_fflush_r+0x2e>
 8006396:	686c      	ldr	r4, [r5, #4]
 8006398:	f9b4 300c 	ldrsh.w	r3, [r4, #12]
 800639c:	b17b      	cbz	r3, 80063be <_fflush_r+0x42>
 800639e:	4621      	mov	r1, r4
 80063a0:	4628      	mov	r0, r5
 80063a2:	e8bd 4038 	ldmia.w	sp!, {r3, r4, r5, lr}
 80063a6:	f7ff bf63 	b.w	8006270 <__sflush_r>
 80063aa:	4b07      	ldr	r3, [pc, #28]	; (80063c8 <_fflush_r+0x4c>)
 80063ac:	429c      	cmp	r4, r3
 80063ae:	d101      	bne.n	80063b4 <_fflush_r+0x38>
 80063b0:	68ac      	ldr	r4, [r5, #8]
 80063b2:	e7f1      	b.n	8006398 <_fflush_r+0x1c>
 80063b4:	4b05      	ldr	r3, [pc, #20]	; (80063cc <_fflush_r+0x50>)
 80063b6:	429c      	cmp	r4, r3
 80063b8:	bf08      	it	eq
 80063ba:	68ec      	ldreq	r4, [r5, #12]
 80063bc:	e7ec      	b.n	8006398 <_fflush_r+0x1c>
 80063be:	2000      	movs	r0, #0
 80063c0:	bd38      	pop	{r3, r4, r5, pc}
 80063c2:	bf00      	nop
 80063c4:	08008010 	.word	0x08008010
 80063c8:	08008030 	.word	0x08008030
 80063cc:	08007ff0 	.word	0x08007ff0

080063d0 <std>:
 80063d0:	2300      	movs	r3, #0
 80063d2:	b510      	push	{r4, lr}
 80063d4:	4604      	mov	r4, r0
 80063d6:	e9c0 3300 	strd	r3, r3, [r0]
 80063da:	6083      	str	r3, [r0, #8]
 80063dc:	8181      	strh	r1, [r0, #12]
 80063de:	6643      	str	r3, [r0, #100]	; 0x64
 80063e0:	81c2      	strh	r2, [r0, #14]
 80063e2:	e9c0 3304 	strd	r3, r3, [r0, #16]
 80063e6:	6183      	str	r3, [r0, #24]
 80063e8:	4619      	mov	r1, r3
 80063ea:	2208      	movs	r2, #8
 80063ec:	305c      	adds	r0, #92	; 0x5c
 80063ee:	f7fd f9e3 	bl	80037b8 <memset>
 80063f2:	4b05      	ldr	r3, [pc, #20]	; (8006408 <std+0x38>)
 80063f4:	6224      	str	r4, [r4, #32]
 80063f6:	6263      	str	r3, [r4, #36]	; 0x24
 80063f8:	4b04      	ldr	r3, [pc, #16]	; (800640c <std+0x3c>)
 80063fa:	62a3      	str	r3, [r4, #40]	; 0x28
 80063fc:	4b04      	ldr	r3, [pc, #16]	; (8006410 <std+0x40>)
 80063fe:	62e3      	str	r3, [r4, #44]	; 0x2c
 8006400:	4b04      	ldr	r3, [pc, #16]	; (8006414 <std+0x44>)
 8006402:	6323      	str	r3, [r4, #48]	; 0x30
 8006404:	bd10      	pop	{r4, pc}
 8006406:	bf00      	nop
 8006408:	08007ba5 	.word	0x08007ba5
 800640c:	08007bc7 	.word	0x08007bc7
 8006410:	08007bff 	.word	0x08007bff
 8006414:	08007c23 	.word	0x08007c23

08006418 <_cleanup_r>:
 8006418:	4901      	ldr	r1, [pc, #4]	; (8006420 <_cleanup_r+0x8>)
 800641a:	f000 b885 	b.w	8006528 <_fwalk_reent>
 800641e:	bf00      	nop
 8006420:	0800637d 	.word	0x0800637d

08006424 <__sfmoreglue>:
 8006424:	b570      	push	{r4, r5, r6, lr}
 8006426:	2568      	movs	r5, #104	; 0x68
 8006428:	1e4a      	subs	r2, r1, #1
 800642a:	4355      	muls	r5, r2
 800642c:	460e      	mov	r6, r1
 800642e:	f105 0174 	add.w	r1, r5, #116	; 0x74
 8006432:	f001 f8bd 	bl	80075b0 <_malloc_r>
 8006436:	4604      	mov	r4, r0
 8006438:	b140      	cbz	r0, 800644c <__sfmoreglue+0x28>
 800643a:	2100      	movs	r1, #0
 800643c:	e9c0 1600 	strd	r1, r6, [r0]
 8006440:	300c      	adds	r0, #12
 8006442:	60a0      	str	r0, [r4, #8]
 8006444:	f105 0268 	add.w	r2, r5, #104	; 0x68
 8006448:	f7fd f9b6 	bl	80037b8 <memset>
 800644c:	4620      	mov	r0, r4
 800644e:	bd70      	pop	{r4, r5, r6, pc}

08006450 <__sinit>:
 8006450:	6983      	ldr	r3, [r0, #24]
 8006452:	b510      	push	{r4, lr}
 8006454:	4604      	mov	r4, r0
 8006456:	bb33      	cbnz	r3, 80064a6 <__sinit+0x56>
 8006458:	e9c0 3312 	strd	r3, r3, [r0, #72]	; 0x48
 800645c:	6503      	str	r3, [r0, #80]	; 0x50
 800645e:	4b12      	ldr	r3, [pc, #72]	; (80064a8 <__sinit+0x58>)
 8006460:	4a12      	ldr	r2, [pc, #72]	; (80064ac <__sinit+0x5c>)
 8006462:	681b      	ldr	r3, [r3, #0]
 8006464:	6282      	str	r2, [r0, #40]	; 0x28
 8006466:	4298      	cmp	r0, r3
 8006468:	bf04      	itt	eq
 800646a:	2301      	moveq	r3, #1
 800646c:	6183      	streq	r3, [r0, #24]
 800646e:	f000 f81f 	bl	80064b0 <__sfp>
 8006472:	6060      	str	r0, [r4, #4]
 8006474:	4620      	mov	r0, r4
 8006476:	f000 f81b 	bl	80064b0 <__sfp>
 800647a:	60a0      	str	r0, [r4, #8]
 800647c:	4620      	mov	r0, r4
 800647e:	f000 f817 	bl	80064b0 <__sfp>
 8006482:	2200      	movs	r2, #0
 8006484:	60e0      	str	r0, [r4, #12]
 8006486:	2104      	movs	r1, #4
 8006488:	6860      	ldr	r0, [r4, #4]
 800648a:	f7ff ffa1 	bl	80063d0 <std>
 800648e:	2201      	movs	r2, #1
 8006490:	2109      	movs	r1, #9
 8006492:	68a0      	ldr	r0, [r4, #8]
 8006494:	f7ff ff9c 	bl	80063d0 <std>
 8006498:	2202      	movs	r2, #2
 800649a:	2112      	movs	r1, #18
 800649c:	68e0      	ldr	r0, [r4, #12]
 800649e:	f7ff ff97 	bl	80063d0 <std>
 80064a2:	2301      	movs	r3, #1
 80064a4:	61a3      	str	r3, [r4, #24]
 80064a6:	bd10      	pop	{r4, pc}
 80064a8:	08007f50 	.word	0x08007f50
 80064ac:	08006419 	.word	0x08006419

080064b0 <__sfp>:
 80064b0:	b5f8      	push	{r3, r4, r5, r6, r7, lr}
 80064b2:	4b1b      	ldr	r3, [pc, #108]	; (8006520 <__sfp+0x70>)
 80064b4:	4607      	mov	r7, r0
 80064b6:	681e      	ldr	r6, [r3, #0]
 80064b8:	69b3      	ldr	r3, [r6, #24]
 80064ba:	b913      	cbnz	r3, 80064c2 <__sfp+0x12>
 80064bc:	4630      	mov	r0, r6
 80064be:	f7ff ffc7 	bl	8006450 <__sinit>
 80064c2:	3648      	adds	r6, #72	; 0x48
 80064c4:	e9d6 3401 	ldrd	r3, r4, [r6, #4]
 80064c8:	3b01      	subs	r3, #1
 80064ca:	d503      	bpl.n	80064d4 <__sfp+0x24>
 80064cc:	6833      	ldr	r3, [r6, #0]
 80064ce:	b133      	cbz	r3, 80064de <__sfp+0x2e>
 80064d0:	6836      	ldr	r6, [r6, #0]
 80064d2:	e7f7      	b.n	80064c4 <__sfp+0x14>
 80064d4:	f9b4 500c 	ldrsh.w	r5, [r4, #12]
 80064d8:	b16d      	cbz	r5, 80064f6 <__sfp+0x46>
 80064da:	3468      	adds	r4, #104	; 0x68
 80064dc:	e7f4      	b.n	80064c8 <__sfp+0x18>
 80064de:	2104      	movs	r1, #4
 80064e0:	4638      	mov	r0, r7
 80064e2:	f7ff ff9f 	bl	8006424 <__sfmoreglue>
 80064e6:	6030      	str	r0, [r6, #0]
 80064e8:	2800      	cmp	r0, #0
 80064ea:	d1f1      	bne.n	80064d0 <__sfp+0x20>
 80064ec:	230c      	movs	r3, #12
 80064ee:	4604      	mov	r4, r0
 80064f0:	603b      	str	r3, [r7, #0]
 80064f2:	4620      	mov	r0, r4
 80064f4:	bdf8      	pop	{r3, r4, r5, r6, r7, pc}
 80064f6:	4b0b      	ldr	r3, [pc, #44]	; (8006524 <__sfp+0x74>)
 80064f8:	6665      	str	r5, [r4, #100]	; 0x64
 80064fa:	e9c4 5500 	strd	r5, r5, [r4]
 80064fe:	60a5      	str	r5, [r4, #8]
 8006500:	e9c4 3503 	strd	r3, r5, [r4, #12]
 8006504:	e9c4 5505 	strd	r5, r5, [r4, #20]
 8006508:	2208      	movs	r2, #8
 800650a:	4629      	mov	r1, r5
 800650c:	f104 005c 	add.w	r0, r4, #92	; 0x5c
 8006510:	f7fd f952 	bl	80037b8 <memset>
 8006514:	e9c4 550d 	strd	r5, r5, [r4, #52]	; 0x34
 8006518:	e9c4 5512 	strd	r5, r5, [r4, #72]	; 0x48
 800651c:	e7e9      	b.n	80064f2 <__sfp+0x42>
 800651e:	bf00      	nop
 8006520:	08007f50 	.word	0x08007f50
 8006524:	ffff0001 	.word	0xffff0001

08006528 <_fwalk_reent>:
 8006528:	e92d 43f8 	stmdb	sp!, {r3, r4, r5, r6, r7, r8, r9, lr}
 800652c:	4680      	mov	r8, r0
 800652e:	4689      	mov	r9, r1
 8006530:	2600      	movs	r6, #0
 8006532:	f100 0448 	add.w	r4, r0, #72	; 0x48
 8006536:	b914      	cbnz	r4, 800653e <_fwalk_reent+0x16>
 8006538:	4630      	mov	r0, r6
 800653a:	e8bd 83f8 	ldmia.w	sp!, {r3, r4, r5, r6, r7, r8, r9, pc}
 800653e:	e9d4 7501 	ldrd	r7, r5, [r4, #4]
 8006542:	3f01      	subs	r7, #1
 8006544:	d501      	bpl.n	800654a <_fwalk_reent+0x22>
 8006546:	6824      	ldr	r4, [r4, #0]
 8006548:	e7f5      	b.n	8006536 <_fwalk_reent+0xe>
 800654a:	89ab      	ldrh	r3, [r5, #12]
 800654c:	2b01      	cmp	r3, #1
 800654e:	d907      	bls.n	8006560 <_fwalk_reent+0x38>
 8006550:	f9b5 300e 	ldrsh.w	r3, [r5, #14]
 8006554:	3301      	adds	r3, #1
 8006556:	d003      	beq.n	8006560 <_fwalk_reent+0x38>
 8006558:	4629      	mov	r1, r5
 800655a:	4640      	mov	r0, r8
 800655c:	47c8      	blx	r9
 800655e:	4306      	orrs	r6, r0
 8006560:	3568      	adds	r5, #104	; 0x68
 8006562:	e7ee      	b.n	8006542 <_fwalk_reent+0x1a>

08006564 <rshift>:
 8006564:	b5f0      	push	{r4, r5, r6, r7, lr}
 8006566:	6906      	ldr	r6, [r0, #16]
 8006568:	114b      	asrs	r3, r1, #5
 800656a:	429e      	cmp	r6, r3
 800656c:	f100 0414 	add.w	r4, r0, #20
 8006570:	dd31      	ble.n	80065d6 <rshift+0x72>
 8006572:	f011 011f 	ands.w	r1, r1, #31
 8006576:	eb04 0686 	add.w	r6, r4, r6, lsl #2
 800657a:	eb04 0283 	add.w	r2, r4, r3, lsl #2
 800657e:	d108      	bne.n	8006592 <rshift+0x2e>
 8006580:	4621      	mov	r1, r4
 8006582:	42b2      	cmp	r2, r6
 8006584:	460b      	mov	r3, r1
 8006586:	d211      	bcs.n	80065ac <rshift+0x48>
 8006588:	f852 3b04 	ldr.w	r3, [r2], #4
 800658c:	f841 3b04 	str.w	r3, [r1], #4
 8006590:	e7f7      	b.n	8006582 <rshift+0x1e>
 8006592:	f854 5023 	ldr.w	r5, [r4, r3, lsl #2]
 8006596:	4623      	mov	r3, r4
 8006598:	f1c1 0c20 	rsb	ip, r1, #32
 800659c:	40cd      	lsrs	r5, r1
 800659e:	3204      	adds	r2, #4
 80065a0:	42b2      	cmp	r2, r6
 80065a2:	4617      	mov	r7, r2
 80065a4:	d30d      	bcc.n	80065c2 <rshift+0x5e>
 80065a6:	601d      	str	r5, [r3, #0]
 80065a8:	b105      	cbz	r5, 80065ac <rshift+0x48>
 80065aa:	3304      	adds	r3, #4
 80065ac:	42a3      	cmp	r3, r4
 80065ae:	eba3 0204 	sub.w	r2, r3, r4
 80065b2:	bf08      	it	eq
 80065b4:	2300      	moveq	r3, #0
 80065b6:	ea4f 02a2 	mov.w	r2, r2, asr #2
 80065ba:	6102      	str	r2, [r0, #16]
 80065bc:	bf08      	it	eq
 80065be:	6143      	streq	r3, [r0, #20]
 80065c0:	bdf0      	pop	{r4, r5, r6, r7, pc}
 80065c2:	683f      	ldr	r7, [r7, #0]
 80065c4:	fa07 f70c 	lsl.w	r7, r7, ip
 80065c8:	433d      	orrs	r5, r7
 80065ca:	f843 5b04 	str.w	r5, [r3], #4
 80065ce:	f852 5b04 	ldr.w	r5, [r2], #4
 80065d2:	40cd      	lsrs	r5, r1
 80065d4:	e7e4      	b.n	80065a0 <rshift+0x3c>
 80065d6:	4623      	mov	r3, r4
 80065d8:	e7e8      	b.n	80065ac <rshift+0x48>

080065da <__hexdig_fun>:
 80065da:	f1a0 0330 	sub.w	r3, r0, #48	; 0x30
 80065de:	2b09      	cmp	r3, #9
 80065e0:	d802      	bhi.n	80065e8 <__hexdig_fun+0xe>
 80065e2:	3820      	subs	r0, #32
 80065e4:	b2c0      	uxtb	r0, r0
 80065e6:	4770      	bx	lr
 80065e8:	f1a0 0361 	sub.w	r3, r0, #97	; 0x61
 80065ec:	2b05      	cmp	r3, #5
 80065ee:	d801      	bhi.n	80065f4 <__hexdig_fun+0x1a>
 80065f0:	3847      	subs	r0, #71	; 0x47
 80065f2:	e7f7      	b.n	80065e4 <__hexdig_fun+0xa>
 80065f4:	f1a0 0341 	sub.w	r3, r0, #65	; 0x41
 80065f8:	2b05      	cmp	r3, #5
 80065fa:	d801      	bhi.n	8006600 <__hexdig_fun+0x26>
 80065fc:	3827      	subs	r0, #39	; 0x27
 80065fe:	e7f1      	b.n	80065e4 <__hexdig_fun+0xa>
 8006600:	2000      	movs	r0, #0
 8006602:	4770      	bx	lr

08006604 <__gethex>:
 8006604:	e92d 4ff0 	stmdb	sp!, {r4, r5, r6, r7, r8, r9, sl, fp, lr}
 8006608:	b08b      	sub	sp, #44	; 0x2c
 800660a:	9002      	str	r0, [sp, #8]
 800660c:	9816      	ldr	r0, [sp, #88]	; 0x58
 800660e:	468a      	mov	sl, r1
 8006610:	4690      	mov	r8, r2
 8006612:	9306      	str	r3, [sp, #24]
 8006614:	f000 fad1 	bl	8006bba <__localeconv_l>
 8006618:	6803      	ldr	r3, [r0, #0]
 800661a:	f04f 0b00 	mov.w	fp, #0
 800661e:	4618      	mov	r0, r3
 8006620:	9303      	str	r3, [sp, #12]
 8006622:	f7f9 fd95 	bl	8000150 <strlen>
 8006626:	9b03      	ldr	r3, [sp, #12]
 8006628:	9001      	str	r0, [sp, #4]
 800662a:	4403      	add	r3, r0
 800662c:	f813 3c01 	ldrb.w	r3, [r3, #-1]
 8006630:	9307      	str	r3, [sp, #28]
 8006632:	f8da 3000 	ldr.w	r3, [sl]
 8006636:	3302      	adds	r3, #2
 8006638:	461f      	mov	r7, r3
 800663a:	f813 0b01 	ldrb.w	r0, [r3], #1
 800663e:	2830      	cmp	r0, #48	; 0x30
 8006640:	d06c      	beq.n	800671c <__gethex+0x118>
 8006642:	f7ff ffca 	bl	80065da <__hexdig_fun>
 8006646:	4604      	mov	r4, r0
 8006648:	2800      	cmp	r0, #0
 800664a:	d16a      	bne.n	8006722 <__gethex+0x11e>
 800664c:	9a01      	ldr	r2, [sp, #4]
 800664e:	9903      	ldr	r1, [sp, #12]
 8006650:	4638      	mov	r0, r7
 8006652:	f001 faea 	bl	8007c2a <strncmp>
 8006656:	2800      	cmp	r0, #0
 8006658:	d166      	bne.n	8006728 <__gethex+0x124>
 800665a:	9b01      	ldr	r3, [sp, #4]
 800665c:	5cf8      	ldrb	r0, [r7, r3]
 800665e:	18fe      	adds	r6, r7, r3
 8006660:	f7ff ffbb 	bl	80065da <__hexdig_fun>
 8006664:	2800      	cmp	r0, #0
 8006666:	d062      	beq.n	800672e <__gethex+0x12a>
 8006668:	4633      	mov	r3, r6
 800666a:	7818      	ldrb	r0, [r3, #0]
 800666c:	461f      	mov	r7, r3
 800666e:	2830      	cmp	r0, #48	; 0x30
 8006670:	f103 0301 	add.w	r3, r3, #1
 8006674:	d0f9      	beq.n	800666a <__gethex+0x66>
 8006676:	f7ff ffb0 	bl	80065da <__hexdig_fun>
 800667a:	fab0 f580 	clz	r5, r0
 800667e:	4634      	mov	r4, r6
 8006680:	f04f 0b01 	mov.w	fp, #1
 8006684:	096d      	lsrs	r5, r5, #5
 8006686:	463a      	mov	r2, r7
 8006688:	4616      	mov	r6, r2
 800668a:	7830      	ldrb	r0, [r6, #0]
 800668c:	3201      	adds	r2, #1
 800668e:	f7ff ffa4 	bl	80065da <__hexdig_fun>
 8006692:	2800      	cmp	r0, #0
 8006694:	d1f8      	bne.n	8006688 <__gethex+0x84>
 8006696:	9a01      	ldr	r2, [sp, #4]
 8006698:	9903      	ldr	r1, [sp, #12]
 800669a:	4630      	mov	r0, r6
 800669c:	f001 fac5 	bl	8007c2a <strncmp>
 80066a0:	b950      	cbnz	r0, 80066b8 <__gethex+0xb4>
 80066a2:	b954      	cbnz	r4, 80066ba <__gethex+0xb6>
 80066a4:	9b01      	ldr	r3, [sp, #4]
 80066a6:	18f4      	adds	r4, r6, r3
 80066a8:	4622      	mov	r2, r4
 80066aa:	4616      	mov	r6, r2
 80066ac:	7830      	ldrb	r0, [r6, #0]
 80066ae:	3201      	adds	r2, #1
 80066b0:	f7ff ff93 	bl	80065da <__hexdig_fun>
 80066b4:	2800      	cmp	r0, #0
 80066b6:	d1f8      	bne.n	80066aa <__gethex+0xa6>
 80066b8:	b10c      	cbz	r4, 80066be <__gethex+0xba>
 80066ba:	1ba4      	subs	r4, r4, r6
 80066bc:	00a4      	lsls	r4, r4, #2
 80066be:	7833      	ldrb	r3, [r6, #0]
 80066c0:	2b50      	cmp	r3, #80	; 0x50
 80066c2:	d001      	beq.n	80066c8 <__gethex+0xc4>
 80066c4:	2b70      	cmp	r3, #112	; 0x70
 80066c6:	d140      	bne.n	800674a <__gethex+0x146>
 80066c8:	7873      	ldrb	r3, [r6, #1]
 80066ca:	2b2b      	cmp	r3, #43	; 0x2b
 80066cc:	d031      	beq.n	8006732 <__gethex+0x12e>
 80066ce:	2b2d      	cmp	r3, #45	; 0x2d
 80066d0:	d033      	beq.n	800673a <__gethex+0x136>
 80066d2:	f04f 0900 	mov.w	r9, #0
 80066d6:	1c71      	adds	r1, r6, #1
 80066d8:	7808      	ldrb	r0, [r1, #0]
 80066da:	f7ff ff7e 	bl	80065da <__hexdig_fun>
 80066de:	1e43      	subs	r3, r0, #1
 80066e0:	b2db      	uxtb	r3, r3
 80066e2:	2b18      	cmp	r3, #24
 80066e4:	d831      	bhi.n	800674a <__gethex+0x146>
 80066e6:	f1a0 0210 	sub.w	r2, r0, #16
 80066ea:	f811 0f01 	ldrb.w	r0, [r1, #1]!
 80066ee:	f7ff ff74 	bl	80065da <__hexdig_fun>
 80066f2:	1e43      	subs	r3, r0, #1
 80066f4:	b2db      	uxtb	r3, r3
 80066f6:	2b18      	cmp	r3, #24
 80066f8:	d922      	bls.n	8006740 <__gethex+0x13c>
 80066fa:	f1b9 0f00 	cmp.w	r9, #0
 80066fe:	d000      	beq.n	8006702 <__gethex+0xfe>
 8006700:	4252      	negs	r2, r2
 8006702:	4414      	add	r4, r2
 8006704:	f8ca 1000 	str.w	r1, [sl]
 8006708:	b30d      	cbz	r5, 800674e <__gethex+0x14a>
 800670a:	f1bb 0f00 	cmp.w	fp, #0
 800670e:	bf0c      	ite	eq
 8006710:	2706      	moveq	r7, #6
 8006712:	2700      	movne	r7, #0
 8006714:	4638      	mov	r0, r7
 8006716:	b00b      	add	sp, #44	; 0x2c
 8006718:	e8bd 8ff0 	ldmia.w	sp!, {r4, r5, r6, r7, r8, r9, sl, fp, pc}
 800671c:	f10b 0b01 	add.w	fp, fp, #1
 8006720:	e78a      	b.n	8006638 <__gethex+0x34>
 8006722:	2500      	movs	r5, #0
 8006724:	462c      	mov	r4, r5
 8006726:	e7ae      	b.n	8006686 <__gethex+0x82>
 8006728:	463e      	mov	r6, r7
 800672a:	2501      	movs	r5, #1
 800672c:	e7c7      	b.n	80066be <__gethex+0xba>
 800672e:	4604      	mov	r4, r0
 8006730:	e7fb      	b.n	800672a <__gethex+0x126>
 8006732:	f04f 0900 	mov.w	r9, #0
 8006736:	1cb1      	adds	r1, r6, #2
 8006738:	e7ce      	b.n	80066d8 <__gethex+0xd4>
 800673a:	f04f 0901 	mov.w	r9, #1
 800673e:	e7fa      	b.n	8006736 <__gethex+0x132>
 8006740:	230a      	movs	r3, #10
 8006742:	fb03 0202 	mla	r2, r3, r2, r0
 8006746:	3a10      	subs	r2, #16
 8006748:	e7cf      	b.n	80066ea <__gethex+0xe6>
 800674a:	4631      	mov	r1, r6
 800674c:	e7da      	b.n	8006704 <__gethex+0x100>
 800674e:	4629      	mov	r1, r5
 8006750:	1bf3      	subs	r3, r6, r7
 8006752:	3b01      	subs	r3, #1
 8006754:	2b07      	cmp	r3, #7
 8006756:	dc49      	bgt.n	80067ec <__gethex+0x1e8>
 8006758:	9802      	ldr	r0, [sp, #8]
 800675a:	f000 fad6 	bl	8006d0a <_Balloc>
 800675e:	f04f 0b00 	mov.w	fp, #0
 8006762:	4605      	mov	r5, r0
 8006764:	46da      	mov	sl, fp
 8006766:	9b01      	ldr	r3, [sp, #4]
 8006768:	f100 0914 	add.w	r9, r0, #20
 800676c:	f1c3 0301 	rsb	r3, r3, #1
 8006770:	f8cd 9010 	str.w	r9, [sp, #16]
 8006774:	9308      	str	r3, [sp, #32]
 8006776:	42b7      	cmp	r7, r6
 8006778:	d33b      	bcc.n	80067f2 <__gethex+0x1ee>
 800677a:	9804      	ldr	r0, [sp, #16]
 800677c:	f840 ab04 	str.w	sl, [r0], #4
 8006780:	eba0 0009 	sub.w	r0, r0, r9
 8006784:	1080      	asrs	r0, r0, #2
 8006786:	6128      	str	r0, [r5, #16]
 8006788:	0147      	lsls	r7, r0, #5
 800678a:	4650      	mov	r0, sl
 800678c:	f000 fb81 	bl	8006e92 <__hi0bits>
 8006790:	f8d8 6000 	ldr.w	r6, [r8]
 8006794:	1a3f      	subs	r7, r7, r0
 8006796:	42b7      	cmp	r7, r6
 8006798:	dd64      	ble.n	8006864 <__gethex+0x260>
 800679a:	1bbf      	subs	r7, r7, r6
 800679c:	4639      	mov	r1, r7
 800679e:	4628      	mov	r0, r5
 80067a0:	f000 fe8b 	bl	80074ba <__any_on>
 80067a4:	4682      	mov	sl, r0
 80067a6:	b178      	cbz	r0, 80067c8 <__gethex+0x1c4>
 80067a8:	f04f 0a01 	mov.w	sl, #1
 80067ac:	1e7b      	subs	r3, r7, #1
 80067ae:	1159      	asrs	r1, r3, #5
 80067b0:	f003 021f 	and.w	r2, r3, #31
 80067b4:	f859 1021 	ldr.w	r1, [r9, r1, lsl #2]
 80067b8:	fa0a f202 	lsl.w	r2, sl, r2
 80067bc:	420a      	tst	r2, r1
 80067be:	d003      	beq.n	80067c8 <__gethex+0x1c4>
 80067c0:	4553      	cmp	r3, sl
 80067c2:	dc46      	bgt.n	8006852 <__gethex+0x24e>
 80067c4:	f04f 0a02 	mov.w	sl, #2
 80067c8:	4639      	mov	r1, r7
 80067ca:	4628      	mov	r0, r5
 80067cc:	f7ff feca 	bl	8006564 <rshift>
 80067d0:	443c      	add	r4, r7
 80067d2:	f8d8 3008 	ldr.w	r3, [r8, #8]
 80067d6:	42a3      	cmp	r3, r4
 80067d8:	da52      	bge.n	8006880 <__gethex+0x27c>
 80067da:	4629      	mov	r1, r5
 80067dc:	9802      	ldr	r0, [sp, #8]
 80067de:	f000 fac8 	bl	8006d72 <_Bfree>
 80067e2:	2300      	movs	r3, #0
 80067e4:	9a14      	ldr	r2, [sp, #80]	; 0x50
 80067e6:	27a3      	movs	r7, #163	; 0xa3
 80067e8:	6013      	str	r3, [r2, #0]
 80067ea:	e793      	b.n	8006714 <__gethex+0x110>
 80067ec:	3101      	adds	r1, #1
 80067ee:	105b      	asrs	r3, r3, #1
 80067f0:	e7b0      	b.n	8006754 <__gethex+0x150>
 80067f2:	1e73      	subs	r3, r6, #1
 80067f4:	9305      	str	r3, [sp, #20]
 80067f6:	9a07      	ldr	r2, [sp, #28]
 80067f8:	f816 3c01 	ldrb.w	r3, [r6, #-1]
 80067fc:	4293      	cmp	r3, r2
 80067fe:	d018      	beq.n	8006832 <__gethex+0x22e>
 8006800:	f1bb 0f20 	cmp.w	fp, #32
 8006804:	d107      	bne.n	8006816 <__gethex+0x212>
 8006806:	9b04      	ldr	r3, [sp, #16]
 8006808:	f8c3 a000 	str.w	sl, [r3]
 800680c:	f04f 0a00 	mov.w	sl, #0
 8006810:	46d3      	mov	fp, sl
 8006812:	3304      	adds	r3, #4
 8006814:	9304      	str	r3, [sp, #16]
 8006816:	f816 0c01 	ldrb.w	r0, [r6, #-1]
 800681a:	f7ff fede 	bl	80065da <__hexdig_fun>
 800681e:	f000 000f 	and.w	r0, r0, #15
 8006822:	fa00 f00b 	lsl.w	r0, r0, fp
 8006826:	ea4a 0a00 	orr.w	sl, sl, r0
 800682a:	f10b 0b04 	add.w	fp, fp, #4
 800682e:	9b05      	ldr	r3, [sp, #20]
 8006830:	e00d      	b.n	800684e <__gethex+0x24a>
 8006832:	9b05      	ldr	r3, [sp, #20]
 8006834:	9a08      	ldr	r2, [sp, #32]
 8006836:	4413      	add	r3, r2
 8006838:	42bb      	cmp	r3, r7
 800683a:	d3e1      	bcc.n	8006800 <__gethex+0x1fc>
 800683c:	4618      	mov	r0, r3
 800683e:	9a01      	ldr	r2, [sp, #4]
 8006840:	9903      	ldr	r1, [sp, #12]
 8006842:	9309      	str	r3, [sp, #36]	; 0x24
 8006844:	f001 f9f1 	bl	8007c2a <strncmp>
 8006848:	9b09      	ldr	r3, [sp, #36]	; 0x24
 800684a:	2800      	cmp	r0, #0
 800684c:	d1d8      	bne.n	8006800 <__gethex+0x1fc>
 800684e:	461e      	mov	r6, r3
 8006850:	e791      	b.n	8006776 <__gethex+0x172>
 8006852:	1eb9      	subs	r1, r7, #2
 8006854:	4628      	mov	r0, r5
 8006856:	f000 fe30 	bl	80074ba <__any_on>
 800685a:	2800      	cmp	r0, #0
 800685c:	d0b2      	beq.n	80067c4 <__gethex+0x1c0>
 800685e:	f04f 0a03 	mov.w	sl, #3
 8006862:	e7b1      	b.n	80067c8 <__gethex+0x1c4>
 8006864:	da09      	bge.n	800687a <__gethex+0x276>
 8006866:	1bf7      	subs	r7, r6, r7
 8006868:	4629      	mov	r1, r5
 800686a:	463a      	mov	r2, r7
 800686c:	9802      	ldr	r0, [sp, #8]
 800686e:	f000 fc4b 	bl	8007108 <__lshift>
 8006872:	4605      	mov	r5, r0
 8006874:	1be4      	subs	r4, r4, r7
 8006876:	f100 0914 	add.w	r9, r0, #20
 800687a:	f04f 0a00 	mov.w	sl, #0
 800687e:	e7a8      	b.n	80067d2 <__gethex+0x1ce>
 8006880:	f8d8 0004 	ldr.w	r0, [r8, #4]
 8006884:	42a0      	cmp	r0, r4
 8006886:	dd6b      	ble.n	8006960 <__gethex+0x35c>
 8006888:	1b04      	subs	r4, r0, r4
 800688a:	42a6      	cmp	r6, r4
 800688c:	dc2e      	bgt.n	80068ec <__gethex+0x2e8>
 800688e:	f8d8 300c 	ldr.w	r3, [r8, #12]
 8006892:	2b02      	cmp	r3, #2
 8006894:	d022      	beq.n	80068dc <__gethex+0x2d8>
 8006896:	2b03      	cmp	r3, #3
 8006898:	d024      	beq.n	80068e4 <__gethex+0x2e0>
 800689a:	2b01      	cmp	r3, #1
 800689c:	d115      	bne.n	80068ca <__gethex+0x2c6>
 800689e:	42a6      	cmp	r6, r4
 80068a0:	d113      	bne.n	80068ca <__gethex+0x2c6>
 80068a2:	2e01      	cmp	r6, #1
 80068a4:	dc0b      	bgt.n	80068be <__gethex+0x2ba>
 80068a6:	f8d8 3004 	ldr.w	r3, [r8, #4]
 80068aa:	9a06      	ldr	r2, [sp, #24]
 80068ac:	2762      	movs	r7, #98	; 0x62
 80068ae:	6013      	str	r3, [r2, #0]
 80068b0:	2301      	movs	r3, #1
 80068b2:	612b      	str	r3, [r5, #16]
 80068b4:	f8c9 3000 	str.w	r3, [r9]
 80068b8:	9b14      	ldr	r3, [sp, #80]	; 0x50
 80068ba:	601d      	str	r5, [r3, #0]
 80068bc:	e72a      	b.n	8006714 <__gethex+0x110>
 80068be:	1e71      	subs	r1, r6, #1
 80068c0:	4628      	mov	r0, r5
 80068c2:	f000 fdfa 	bl	80074ba <__any_on>
 80068c6:	2800      	cmp	r0, #0
 80068c8:	d1ed      	bne.n	80068a6 <__gethex+0x2a2>
 80068ca:	4629      	mov	r1, r5
 80068cc:	9802      	ldr	r0, [sp, #8]
 80068ce:	f000 fa50 	bl	8006d72 <_Bfree>
 80068d2:	2300      	movs	r3, #0
 80068d4:	9a14      	ldr	r2, [sp, #80]	; 0x50
 80068d6:	2750      	movs	r7, #80	; 0x50
 80068d8:	6013      	str	r3, [r2, #0]
 80068da:	e71b      	b.n	8006714 <__gethex+0x110>
 80068dc:	9b15      	ldr	r3, [sp, #84]	; 0x54
 80068de:	2b00      	cmp	r3, #0
 80068e0:	d0e1      	beq.n	80068a6 <__gethex+0x2a2>
 80068e2:	e7f2      	b.n	80068ca <__gethex+0x2c6>
 80068e4:	9b15      	ldr	r3, [sp, #84]	; 0x54
 80068e6:	2b00      	cmp	r3, #0
 80068e8:	d1dd      	bne.n	80068a6 <__gethex+0x2a2>
 80068ea:	e7ee      	b.n	80068ca <__gethex+0x2c6>
 80068ec:	1e67      	subs	r7, r4, #1
 80068ee:	f1ba 0f00 	cmp.w	sl, #0
 80068f2:	d132      	bne.n	800695a <__gethex+0x356>
 80068f4:	b127      	cbz	r7, 8006900 <__gethex+0x2fc>
 80068f6:	4639      	mov	r1, r7
 80068f8:	4628      	mov	r0, r5
 80068fa:	f000 fdde 	bl	80074ba <__any_on>
 80068fe:	4682      	mov	sl, r0
 8006900:	2301      	movs	r3, #1
 8006902:	117a      	asrs	r2, r7, #5
 8006904:	f007 071f 	and.w	r7, r7, #31
 8006908:	fa03 f707 	lsl.w	r7, r3, r7
 800690c:	f859 3022 	ldr.w	r3, [r9, r2, lsl #2]
 8006910:	4621      	mov	r1, r4
 8006912:	421f      	tst	r7, r3
 8006914:	f04f 0702 	mov.w	r7, #2
 8006918:	4628      	mov	r0, r5
 800691a:	bf18      	it	ne
 800691c:	f04a 0a02 	orrne.w	sl, sl, #2
 8006920:	1b36      	subs	r6, r6, r4
 8006922:	f7ff fe1f 	bl	8006564 <rshift>
 8006926:	f8d8 4004 	ldr.w	r4, [r8, #4]
 800692a:	f1ba 0f00 	cmp.w	sl, #0
 800692e:	d048      	beq.n	80069c2 <__gethex+0x3be>
 8006930:	f8d8 300c 	ldr.w	r3, [r8, #12]
 8006934:	2b02      	cmp	r3, #2
 8006936:	d015      	beq.n	8006964 <__gethex+0x360>
 8006938:	2b03      	cmp	r3, #3
 800693a:	d017      	beq.n	800696c <__gethex+0x368>
 800693c:	2b01      	cmp	r3, #1
 800693e:	d109      	bne.n	8006954 <__gethex+0x350>
 8006940:	f01a 0f02 	tst.w	sl, #2
 8006944:	d006      	beq.n	8006954 <__gethex+0x350>
 8006946:	f8d9 3000 	ldr.w	r3, [r9]
 800694a:	ea4a 0a03 	orr.w	sl, sl, r3
 800694e:	f01a 0f01 	tst.w	sl, #1
 8006952:	d10e      	bne.n	8006972 <__gethex+0x36e>
 8006954:	f047 0710 	orr.w	r7, r7, #16
 8006958:	e033      	b.n	80069c2 <__gethex+0x3be>
 800695a:	f04f 0a01 	mov.w	sl, #1
 800695e:	e7cf      	b.n	8006900 <__gethex+0x2fc>
 8006960:	2701      	movs	r7, #1
 8006962:	e7e2      	b.n	800692a <__gethex+0x326>
 8006964:	9b15      	ldr	r3, [sp, #84]	; 0x54
 8006966:	f1c3 0301 	rsb	r3, r3, #1
 800696a:	9315      	str	r3, [sp, #84]	; 0x54
 800696c:	9b15      	ldr	r3, [sp, #84]	; 0x54
 800696e:	2b00      	cmp	r3, #0
 8006970:	d0f0      	beq.n	8006954 <__gethex+0x350>
 8006972:	f04f 0c00 	mov.w	ip, #0
 8006976:	f8d5 9010 	ldr.w	r9, [r5, #16]
 800697a:	f105 0314 	add.w	r3, r5, #20
 800697e:	ea4f 0a89 	mov.w	sl, r9, lsl #2
 8006982:	eb03 010a 	add.w	r1, r3, sl
 8006986:	4618      	mov	r0, r3
 8006988:	f853 2b04 	ldr.w	r2, [r3], #4
 800698c:	f1b2 3fff 	cmp.w	r2, #4294967295	; 0xffffffff
 8006990:	d01c      	beq.n	80069cc <__gethex+0x3c8>
 8006992:	3201      	adds	r2, #1
 8006994:	6002      	str	r2, [r0, #0]
 8006996:	2f02      	cmp	r7, #2
 8006998:	f105 0314 	add.w	r3, r5, #20
 800699c:	d138      	bne.n	8006a10 <__gethex+0x40c>
 800699e:	f8d8 2000 	ldr.w	r2, [r8]
 80069a2:	3a01      	subs	r2, #1
 80069a4:	42b2      	cmp	r2, r6
 80069a6:	d10a      	bne.n	80069be <__gethex+0x3ba>
 80069a8:	2201      	movs	r2, #1
 80069aa:	1171      	asrs	r1, r6, #5
 80069ac:	f853 3021 	ldr.w	r3, [r3, r1, lsl #2]
 80069b0:	f006 061f 	and.w	r6, r6, #31
 80069b4:	fa02 f606 	lsl.w	r6, r2, r6
 80069b8:	421e      	tst	r6, r3
 80069ba:	bf18      	it	ne
 80069bc:	4617      	movne	r7, r2
 80069be:	f047 0720 	orr.w	r7, r7, #32
 80069c2:	9b14      	ldr	r3, [sp, #80]	; 0x50
 80069c4:	601d      	str	r5, [r3, #0]
 80069c6:	9b06      	ldr	r3, [sp, #24]
 80069c8:	601c      	str	r4, [r3, #0]
 80069ca:	e6a3      	b.n	8006714 <__gethex+0x110>
 80069cc:	4299      	cmp	r1, r3
 80069ce:	f843 cc04 	str.w	ip, [r3, #-4]
 80069d2:	d8d8      	bhi.n	8006986 <__gethex+0x382>
 80069d4:	68ab      	ldr	r3, [r5, #8]
 80069d6:	4599      	cmp	r9, r3
 80069d8:	db12      	blt.n	8006a00 <__gethex+0x3fc>
 80069da:	6869      	ldr	r1, [r5, #4]
 80069dc:	9802      	ldr	r0, [sp, #8]
 80069de:	3101      	adds	r1, #1
 80069e0:	f000 f993 	bl	8006d0a <_Balloc>
 80069e4:	4683      	mov	fp, r0
 80069e6:	692a      	ldr	r2, [r5, #16]
 80069e8:	f105 010c 	add.w	r1, r5, #12
 80069ec:	3202      	adds	r2, #2
 80069ee:	0092      	lsls	r2, r2, #2
 80069f0:	300c      	adds	r0, #12
 80069f2:	f000 f97f 	bl	8006cf4 <memcpy>
 80069f6:	4629      	mov	r1, r5
 80069f8:	9802      	ldr	r0, [sp, #8]
 80069fa:	f000 f9ba 	bl	8006d72 <_Bfree>
 80069fe:	465d      	mov	r5, fp
 8006a00:	692b      	ldr	r3, [r5, #16]
 8006a02:	1c5a      	adds	r2, r3, #1
 8006a04:	612a      	str	r2, [r5, #16]
 8006a06:	2201      	movs	r2, #1
 8006a08:	eb05 0383 	add.w	r3, r5, r3, lsl #2
 8006a0c:	615a      	str	r2, [r3, #20]
 8006a0e:	e7c2      	b.n	8006996 <__gethex+0x392>
 8006a10:	692a      	ldr	r2, [r5, #16]
 8006a12:	454a      	cmp	r2, r9
 8006a14:	dd0b      	ble.n	8006a2e <__gethex+0x42a>
 8006a16:	2101      	movs	r1, #1
 8006a18:	4628      	mov	r0, r5
 8006a1a:	f7ff fda3 	bl	8006564 <rshift>
 8006a1e:	f8d8 3008 	ldr.w	r3, [r8, #8]
 8006a22:	3401      	adds	r4, #1
 8006a24:	42a3      	cmp	r3, r4
 8006a26:	f6ff aed8 	blt.w	80067da <__gethex+0x1d6>
 8006a2a:	2701      	movs	r7, #1
 8006a2c:	e7c7      	b.n	80069be <__gethex+0x3ba>
 8006a2e:	f016 061f 	ands.w	r6, r6, #31
 8006a32:	d0fa      	beq.n	8006a2a <__gethex+0x426>
 8006a34:	449a      	add	sl, r3
 8006a36:	f85a 0c04 	ldr.w	r0, [sl, #-4]
 8006a3a:	f000 fa2a 	bl	8006e92 <__hi0bits>
 8006a3e:	f1c6 0620 	rsb	r6, r6, #32
 8006a42:	42b0      	cmp	r0, r6
 8006a44:	dbe7      	blt.n	8006a16 <__gethex+0x412>
 8006a46:	e7f0      	b.n	8006a2a <__gethex+0x426>

08006a48 <L_shift>:
 8006a48:	f1c2 0208 	rsb	r2, r2, #8
 8006a4c:	0092      	lsls	r2, r2, #2
 8006a4e:	b570      	push	{r4, r5, r6, lr}
 8006a50:	f1c2 0620 	rsb	r6, r2, #32
 8006a54:	6843      	ldr	r3, [r0, #4]
 8006a56:	6804      	ldr	r4, [r0, #0]
 8006a58:	fa03 f506 	lsl.w	r5, r3, r6
 8006a5c:	432c      	orrs	r4, r5
 8006a5e:	40d3      	lsrs	r3, r2
 8006a60:	6004      	str	r4, [r0, #0]
 8006a62:	f840 3f04 	str.w	r3, [r0, #4]!
 8006a66:	4288      	cmp	r0, r1
 8006a68:	d3f4      	bcc.n	8006a54 <L_shift+0xc>
 8006a6a:	bd70      	pop	{r4, r5, r6, pc}

08006a6c <__match>:
 8006a6c:	b530      	push	{r4, r5, lr}
 8006a6e:	6803      	ldr	r3, [r0, #0]
 8006a70:	3301      	adds	r3, #1
 8006a72:	f811 4b01 	ldrb.w	r4, [r1], #1
 8006a76:	b914      	cbnz	r4, 8006a7e <__match+0x12>
 8006a78:	6003      	str	r3, [r0, #0]
 8006a7a:	2001      	movs	r0, #1
 8006a7c:	bd30      	pop	{r4, r5, pc}
 8006a7e:	f813 2b01 	ldrb.w	r2, [r3], #1
 8006a82:	f1a2 0541 	sub.w	r5, r2, #65	; 0x41
 8006a86:	2d19      	cmp	r5, #25
 8006a88:	bf98      	it	ls
 8006a8a:	3220      	addls	r2, #32
 8006a8c:	42a2      	cmp	r2, r4
 8006a8e:	d0f0      	beq.n	8006a72 <__match+0x6>
 8006a90:	2000      	movs	r0, #0
 8006a92:	e7f3      	b.n	8006a7c <__match+0x10>

08006a94 <__hexnan>:
 8006a94:	e92d 4ff0 	stmdb	sp!, {r4, r5, r6, r7, r8, r9, sl, fp, lr}
 8006a98:	2500      	movs	r5, #0
 8006a9a:	680b      	ldr	r3, [r1, #0]
 8006a9c:	4682      	mov	sl, r0
 8006a9e:	115f      	asrs	r7, r3, #5
 8006aa0:	eb02 0787 	add.w	r7, r2, r7, lsl #2
 8006aa4:	f013 031f 	ands.w	r3, r3, #31
 8006aa8:	bf18      	it	ne
 8006aaa:	3704      	addne	r7, #4
 8006aac:	1f3e      	subs	r6, r7, #4
 8006aae:	4690      	mov	r8, r2
 8006ab0:	46b1      	mov	r9, r6
 8006ab2:	4634      	mov	r4, r6
 8006ab4:	46ab      	mov	fp, r5
 8006ab6:	b087      	sub	sp, #28
 8006ab8:	6801      	ldr	r1, [r0, #0]
 8006aba:	9301      	str	r3, [sp, #4]
 8006abc:	f847 5c04 	str.w	r5, [r7, #-4]
 8006ac0:	9502      	str	r5, [sp, #8]
 8006ac2:	784a      	ldrb	r2, [r1, #1]
 8006ac4:	1c4b      	adds	r3, r1, #1
 8006ac6:	9303      	str	r3, [sp, #12]
 8006ac8:	b342      	cbz	r2, 8006b1c <__hexnan+0x88>
 8006aca:	4610      	mov	r0, r2
 8006acc:	9105      	str	r1, [sp, #20]
 8006ace:	9204      	str	r2, [sp, #16]
 8006ad0:	f7ff fd83 	bl	80065da <__hexdig_fun>
 8006ad4:	2800      	cmp	r0, #0
 8006ad6:	d143      	bne.n	8006b60 <__hexnan+0xcc>
 8006ad8:	9a04      	ldr	r2, [sp, #16]
 8006ada:	9905      	ldr	r1, [sp, #20]
 8006adc:	2a20      	cmp	r2, #32
 8006ade:	d818      	bhi.n	8006b12 <__hexnan+0x7e>
 8006ae0:	9b02      	ldr	r3, [sp, #8]
 8006ae2:	459b      	cmp	fp, r3
 8006ae4:	dd13      	ble.n	8006b0e <__hexnan+0x7a>
 8006ae6:	454c      	cmp	r4, r9
 8006ae8:	d206      	bcs.n	8006af8 <__hexnan+0x64>
 8006aea:	2d07      	cmp	r5, #7
 8006aec:	dc04      	bgt.n	8006af8 <__hexnan+0x64>
 8006aee:	462a      	mov	r2, r5
 8006af0:	4649      	mov	r1, r9
 8006af2:	4620      	mov	r0, r4
 8006af4:	f7ff ffa8 	bl	8006a48 <L_shift>
 8006af8:	4544      	cmp	r4, r8
 8006afa:	d944      	bls.n	8006b86 <__hexnan+0xf2>
 8006afc:	2300      	movs	r3, #0
 8006afe:	f1a4 0904 	sub.w	r9, r4, #4
 8006b02:	f844 3c04 	str.w	r3, [r4, #-4]
 8006b06:	461d      	mov	r5, r3
 8006b08:	464c      	mov	r4, r9
 8006b0a:	f8cd b008 	str.w	fp, [sp, #8]
 8006b0e:	9903      	ldr	r1, [sp, #12]
 8006b10:	e7d7      	b.n	8006ac2 <__hexnan+0x2e>
 8006b12:	2a29      	cmp	r2, #41	; 0x29
 8006b14:	d14a      	bne.n	8006bac <__hexnan+0x118>
 8006b16:	3102      	adds	r1, #2
 8006b18:	f8ca 1000 	str.w	r1, [sl]
 8006b1c:	f1bb 0f00 	cmp.w	fp, #0
 8006b20:	d044      	beq.n	8006bac <__hexnan+0x118>
 8006b22:	454c      	cmp	r4, r9
 8006b24:	d206      	bcs.n	8006b34 <__hexnan+0xa0>
 8006b26:	2d07      	cmp	r5, #7
 8006b28:	dc04      	bgt.n	8006b34 <__hexnan+0xa0>
 8006b2a:	462a      	mov	r2, r5
 8006b2c:	4649      	mov	r1, r9
 8006b2e:	4620      	mov	r0, r4
 8006b30:	f7ff ff8a 	bl	8006a48 <L_shift>
 8006b34:	4544      	cmp	r4, r8
 8006b36:	d928      	bls.n	8006b8a <__hexnan+0xf6>
 8006b38:	4643      	mov	r3, r8
 8006b3a:	f854 2b04 	ldr.w	r2, [r4], #4
 8006b3e:	42a6      	cmp	r6, r4
 8006b40:	f843 2b04 	str.w	r2, [r3], #4
 8006b44:	d2f9      	bcs.n	8006b3a <__hexnan+0xa6>
 8006b46:	2200      	movs	r2, #0
 8006b48:	f843 2b04 	str.w	r2, [r3], #4
 8006b4c:	429e      	cmp	r6, r3
 8006b4e:	d2fb      	bcs.n	8006b48 <__hexnan+0xb4>
 8006b50:	6833      	ldr	r3, [r6, #0]
 8006b52:	b91b      	cbnz	r3, 8006b5c <__hexnan+0xc8>
 8006b54:	4546      	cmp	r6, r8
 8006b56:	d127      	bne.n	8006ba8 <__hexnan+0x114>
 8006b58:	2301      	movs	r3, #1
 8006b5a:	6033      	str	r3, [r6, #0]
 8006b5c:	2005      	movs	r0, #5
 8006b5e:	e026      	b.n	8006bae <__hexnan+0x11a>
 8006b60:	3501      	adds	r5, #1
 8006b62:	2d08      	cmp	r5, #8
 8006b64:	f10b 0b01 	add.w	fp, fp, #1
 8006b68:	dd06      	ble.n	8006b78 <__hexnan+0xe4>
 8006b6a:	4544      	cmp	r4, r8
 8006b6c:	d9cf      	bls.n	8006b0e <__hexnan+0x7a>
 8006b6e:	2300      	movs	r3, #0
 8006b70:	2501      	movs	r5, #1
 8006b72:	f844 3c04 	str.w	r3, [r4, #-4]
 8006b76:	3c04      	subs	r4, #4
 8006b78:	6822      	ldr	r2, [r4, #0]
 8006b7a:	f000 000f 	and.w	r0, r0, #15
 8006b7e:	ea40 1002 	orr.w	r0, r0, r2, lsl #4
 8006b82:	6020      	str	r0, [r4, #0]
 8006b84:	e7c3      	b.n	8006b0e <__hexnan+0x7a>
 8006b86:	2508      	movs	r5, #8
 8006b88:	e7c1      	b.n	8006b0e <__hexnan+0x7a>
 8006b8a:	9b01      	ldr	r3, [sp, #4]
 8006b8c:	2b00      	cmp	r3, #0
 8006b8e:	d0df      	beq.n	8006b50 <__hexnan+0xbc>
 8006b90:	f04f 32ff 	mov.w	r2, #4294967295	; 0xffffffff
 8006b94:	f1c3 0320 	rsb	r3, r3, #32
 8006b98:	fa22 f303 	lsr.w	r3, r2, r3
 8006b9c:	f857 2c04 	ldr.w	r2, [r7, #-4]
 8006ba0:	401a      	ands	r2, r3
 8006ba2:	f847 2c04 	str.w	r2, [r7, #-4]
 8006ba6:	e7d3      	b.n	8006b50 <__hexnan+0xbc>
 8006ba8:	3e04      	subs	r6, #4
 8006baa:	e7d1      	b.n	8006b50 <__hexnan+0xbc>
 8006bac:	2004      	movs	r0, #4
 8006bae:	b007      	add	sp, #28
 8006bb0:	e8bd 8ff0 	ldmia.w	sp!, {r4, r5, r6, r7, r8, r9, sl, fp, pc}

08006bb4 <__locale_ctype_ptr_l>:
 8006bb4:	f8d0 00ec 	ldr.w	r0, [r0, #236]	; 0xec
 8006bb8:	4770      	bx	lr

08006bba <__localeconv_l>:
 8006bba:	30f0      	adds	r0, #240	; 0xf0
 8006bbc:	4770      	bx	lr
	...

08006bc0 <_localeconv_r>:
 8006bc0:	4b04      	ldr	r3, [pc, #16]	; (8006bd4 <_localeconv_r+0x14>)
 8006bc2:	681b      	ldr	r3, [r3, #0]
 8006bc4:	6a18      	ldr	r0, [r3, #32]
 8006bc6:	4b04      	ldr	r3, [pc, #16]	; (8006bd8 <_localeconv_r+0x18>)
 8006bc8:	2800      	cmp	r0, #0
 8006bca:	bf08      	it	eq
 8006bcc:	4618      	moveq	r0, r3
 8006bce:	30f0      	adds	r0, #240	; 0xf0
 8006bd0:	4770      	bx	lr
 8006bd2:	bf00      	nop
 8006bd4:	20000024 	.word	0x20000024
 8006bd8:	20000088 	.word	0x20000088

08006bdc <__swhatbuf_r>:
 8006bdc:	b570      	push	{r4, r5, r6, lr}
 8006bde:	460e      	mov	r6, r1
 8006be0:	f9b1 100e 	ldrsh.w	r1, [r1, #14]
 8006be4:	b096      	sub	sp, #88	; 0x58
 8006be6:	2900      	cmp	r1, #0
 8006be8:	4614      	mov	r4, r2
 8006bea:	461d      	mov	r5, r3
 8006bec:	da07      	bge.n	8006bfe <__swhatbuf_r+0x22>
 8006bee:	2300      	movs	r3, #0
 8006bf0:	602b      	str	r3, [r5, #0]
 8006bf2:	89b3      	ldrh	r3, [r6, #12]
 8006bf4:	061a      	lsls	r2, r3, #24
 8006bf6:	d410      	bmi.n	8006c1a <__swhatbuf_r+0x3e>
 8006bf8:	f44f 6380 	mov.w	r3, #1024	; 0x400
 8006bfc:	e00e      	b.n	8006c1c <__swhatbuf_r+0x40>
 8006bfe:	466a      	mov	r2, sp
 8006c00:	f001 f854 	bl	8007cac <_fstat_r>
 8006c04:	2800      	cmp	r0, #0
 8006c06:	dbf2      	blt.n	8006bee <__swhatbuf_r+0x12>
 8006c08:	9a01      	ldr	r2, [sp, #4]
 8006c0a:	f402 4270 	and.w	r2, r2, #61440	; 0xf000
 8006c0e:	f5a2 5300 	sub.w	r3, r2, #8192	; 0x2000
 8006c12:	425a      	negs	r2, r3
 8006c14:	415a      	adcs	r2, r3
 8006c16:	602a      	str	r2, [r5, #0]
 8006c18:	e7ee      	b.n	8006bf8 <__swhatbuf_r+0x1c>
 8006c1a:	2340      	movs	r3, #64	; 0x40
 8006c1c:	2000      	movs	r0, #0
 8006c1e:	6023      	str	r3, [r4, #0]
 8006c20:	b016      	add	sp, #88	; 0x58
 8006c22:	bd70      	pop	{r4, r5, r6, pc}

08006c24 <__smakebuf_r>:
 8006c24:	898b      	ldrh	r3, [r1, #12]
 8006c26:	b573      	push	{r0, r1, r4, r5, r6, lr}
 8006c28:	079d      	lsls	r5, r3, #30
 8006c2a:	4606      	mov	r6, r0
 8006c2c:	460c      	mov	r4, r1
 8006c2e:	d507      	bpl.n	8006c40 <__smakebuf_r+0x1c>
 8006c30:	f104 0347 	add.w	r3, r4, #71	; 0x47
 8006c34:	6023      	str	r3, [r4, #0]
 8006c36:	6123      	str	r3, [r4, #16]
 8006c38:	2301      	movs	r3, #1
 8006c3a:	6163      	str	r3, [r4, #20]
 8006c3c:	b002      	add	sp, #8
 8006c3e:	bd70      	pop	{r4, r5, r6, pc}
 8006c40:	ab01      	add	r3, sp, #4
 8006c42:	466a      	mov	r2, sp
 8006c44:	f7ff ffca 	bl	8006bdc <__swhatbuf_r>
 8006c48:	9900      	ldr	r1, [sp, #0]
 8006c4a:	4605      	mov	r5, r0
 8006c4c:	4630      	mov	r0, r6
 8006c4e:	f000 fcaf 	bl	80075b0 <_malloc_r>
 8006c52:	b948      	cbnz	r0, 8006c68 <__smakebuf_r+0x44>
 8006c54:	f9b4 300c 	ldrsh.w	r3, [r4, #12]
 8006c58:	059a      	lsls	r2, r3, #22
 8006c5a:	d4ef      	bmi.n	8006c3c <__smakebuf_r+0x18>
 8006c5c:	f023 0303 	bic.w	r3, r3, #3
 8006c60:	f043 0302 	orr.w	r3, r3, #2
 8006c64:	81a3      	strh	r3, [r4, #12]
 8006c66:	e7e3      	b.n	8006c30 <__smakebuf_r+0xc>
 8006c68:	4b0d      	ldr	r3, [pc, #52]	; (8006ca0 <__smakebuf_r+0x7c>)
 8006c6a:	62b3      	str	r3, [r6, #40]	; 0x28
 8006c6c:	89a3      	ldrh	r3, [r4, #12]
 8006c6e:	6020      	str	r0, [r4, #0]
 8006c70:	f043 0380 	orr.w	r3, r3, #128	; 0x80
 8006c74:	81a3      	strh	r3, [r4, #12]
 8006c76:	9b00      	ldr	r3, [sp, #0]
 8006c78:	6120      	str	r0, [r4, #16]
 8006c7a:	6163      	str	r3, [r4, #20]
 8006c7c:	9b01      	ldr	r3, [sp, #4]
 8006c7e:	b15b      	cbz	r3, 8006c98 <__smakebuf_r+0x74>
 8006c80:	f9b4 100e 	ldrsh.w	r1, [r4, #14]
 8006c84:	4630      	mov	r0, r6
 8006c86:	f001 f823 	bl	8007cd0 <_isatty_r>
 8006c8a:	b128      	cbz	r0, 8006c98 <__smakebuf_r+0x74>
 8006c8c:	89a3      	ldrh	r3, [r4, #12]
 8006c8e:	f023 0303 	bic.w	r3, r3, #3
 8006c92:	f043 0301 	orr.w	r3, r3, #1
 8006c96:	81a3      	strh	r3, [r4, #12]
 8006c98:	89a3      	ldrh	r3, [r4, #12]
 8006c9a:	431d      	orrs	r5, r3
 8006c9c:	81a5      	strh	r5, [r4, #12]
 8006c9e:	e7cd      	b.n	8006c3c <__smakebuf_r+0x18>
 8006ca0:	08006419 	.word	0x08006419

08006ca4 <malloc>:
 8006ca4:	4b02      	ldr	r3, [pc, #8]	; (8006cb0 <malloc+0xc>)
 8006ca6:	4601      	mov	r1, r0
 8006ca8:	6818      	ldr	r0, [r3, #0]
 8006caa:	f000 bc81 	b.w	80075b0 <_malloc_r>
 8006cae:	bf00      	nop
 8006cb0:	20000024 	.word	0x20000024

08006cb4 <__ascii_mbtowc>:
 8006cb4:	b082      	sub	sp, #8
 8006cb6:	b901      	cbnz	r1, 8006cba <__ascii_mbtowc+0x6>
 8006cb8:	a901      	add	r1, sp, #4
 8006cba:	b142      	cbz	r2, 8006cce <__ascii_mbtowc+0x1a>
 8006cbc:	b14b      	cbz	r3, 8006cd2 <__ascii_mbtowc+0x1e>
 8006cbe:	7813      	ldrb	r3, [r2, #0]
 8006cc0:	600b      	str	r3, [r1, #0]
 8006cc2:	7812      	ldrb	r2, [r2, #0]
 8006cc4:	1c10      	adds	r0, r2, #0
 8006cc6:	bf18      	it	ne
 8006cc8:	2001      	movne	r0, #1
 8006cca:	b002      	add	sp, #8
 8006ccc:	4770      	bx	lr
 8006cce:	4610      	mov	r0, r2
 8006cd0:	e7fb      	b.n	8006cca <__ascii_mbtowc+0x16>
 8006cd2:	f06f 0001 	mvn.w	r0, #1
 8006cd6:	e7f8      	b.n	8006cca <__ascii_mbtowc+0x16>

08006cd8 <memchr>:
 8006cd8:	b510      	push	{r4, lr}
 8006cda:	b2c9      	uxtb	r1, r1
 8006cdc:	4402      	add	r2, r0
 8006cde:	4290      	cmp	r0, r2
 8006ce0:	4603      	mov	r3, r0
 8006ce2:	d101      	bne.n	8006ce8 <memchr+0x10>
 8006ce4:	2300      	movs	r3, #0
 8006ce6:	e003      	b.n	8006cf0 <memchr+0x18>
 8006ce8:	781c      	ldrb	r4, [r3, #0]
 8006cea:	3001      	adds	r0, #1
 8006cec:	428c      	cmp	r4, r1
 8006cee:	d1f6      	bne.n	8006cde <memchr+0x6>
 8006cf0:	4618      	mov	r0, r3
 8006cf2:	bd10      	pop	{r4, pc}

08006cf4 <memcpy>:
 8006cf4:	b510      	push	{r4, lr}
 8006cf6:	1e43      	subs	r3, r0, #1
 8006cf8:	440a      	add	r2, r1
 8006cfa:	4291      	cmp	r1, r2
 8006cfc:	d100      	bne.n	8006d00 <memcpy+0xc>
 8006cfe:	bd10      	pop	{r4, pc}
 8006d00:	f811 4b01 	ldrb.w	r4, [r1], #1
 8006d04:	f803 4f01 	strb.w	r4, [r3, #1]!
 8006d08:	e7f7      	b.n	8006cfa <memcpy+0x6>

08006d0a <_Balloc>:
 8006d0a:	b570      	push	{r4, r5, r6, lr}
 8006d0c:	6a45      	ldr	r5, [r0, #36]	; 0x24
 8006d0e:	4604      	mov	r4, r0
 8006d10:	460e      	mov	r6, r1
 8006d12:	b93d      	cbnz	r5, 8006d24 <_Balloc+0x1a>
 8006d14:	2010      	movs	r0, #16
 8006d16:	f7ff ffc5 	bl	8006ca4 <malloc>
 8006d1a:	6260      	str	r0, [r4, #36]	; 0x24
 8006d1c:	e9c0 5501 	strd	r5, r5, [r0, #4]
 8006d20:	6005      	str	r5, [r0, #0]
 8006d22:	60c5      	str	r5, [r0, #12]
 8006d24:	6a65      	ldr	r5, [r4, #36]	; 0x24
 8006d26:	68eb      	ldr	r3, [r5, #12]
 8006d28:	b183      	cbz	r3, 8006d4c <_Balloc+0x42>
 8006d2a:	6a63      	ldr	r3, [r4, #36]	; 0x24
 8006d2c:	68db      	ldr	r3, [r3, #12]
 8006d2e:	f853 0026 	ldr.w	r0, [r3, r6, lsl #2]
 8006d32:	b9b8      	cbnz	r0, 8006d64 <_Balloc+0x5a>
 8006d34:	2101      	movs	r1, #1
 8006d36:	fa01 f506 	lsl.w	r5, r1, r6
 8006d3a:	1d6a      	adds	r2, r5, #5
 8006d3c:	0092      	lsls	r2, r2, #2
 8006d3e:	4620      	mov	r0, r4
 8006d40:	f000 fbdc 	bl	80074fc <_calloc_r>
 8006d44:	b160      	cbz	r0, 8006d60 <_Balloc+0x56>
 8006d46:	e9c0 6501 	strd	r6, r5, [r0, #4]
 8006d4a:	e00e      	b.n	8006d6a <_Balloc+0x60>
 8006d4c:	2221      	movs	r2, #33	; 0x21
 8006d4e:	2104      	movs	r1, #4
 8006d50:	4620      	mov	r0, r4
 8006d52:	f000 fbd3 	bl	80074fc <_calloc_r>
 8006d56:	6a63      	ldr	r3, [r4, #36]	; 0x24
 8006d58:	60e8      	str	r0, [r5, #12]
 8006d5a:	68db      	ldr	r3, [r3, #12]
 8006d5c:	2b00      	cmp	r3, #0
 8006d5e:	d1e4      	bne.n	8006d2a <_Balloc+0x20>
 8006d60:	2000      	movs	r0, #0
 8006d62:	bd70      	pop	{r4, r5, r6, pc}
 8006d64:	6802      	ldr	r2, [r0, #0]
 8006d66:	f843 2026 	str.w	r2, [r3, r6, lsl #2]
 8006d6a:	2300      	movs	r3, #0
 8006d6c:	e9c0 3303 	strd	r3, r3, [r0, #12]
 8006d70:	e7f7      	b.n	8006d62 <_Balloc+0x58>

08006d72 <_Bfree>:
 8006d72:	b570      	push	{r4, r5, r6, lr}
 8006d74:	6a44      	ldr	r4, [r0, #36]	; 0x24
 8006d76:	4606      	mov	r6, r0
 8006d78:	460d      	mov	r5, r1
 8006d7a:	b93c      	cbnz	r4, 8006d8c <_Bfree+0x1a>
 8006d7c:	2010      	movs	r0, #16
 8006d7e:	f7ff ff91 	bl	8006ca4 <malloc>
 8006d82:	6270      	str	r0, [r6, #36]	; 0x24
 8006d84:	e9c0 4401 	strd	r4, r4, [r0, #4]
 8006d88:	6004      	str	r4, [r0, #0]
 8006d8a:	60c4      	str	r4, [r0, #12]
 8006d8c:	b13d      	cbz	r5, 8006d9e <_Bfree+0x2c>
 8006d8e:	6a73      	ldr	r3, [r6, #36]	; 0x24
 8006d90:	686a      	ldr	r2, [r5, #4]
 8006d92:	68db      	ldr	r3, [r3, #12]
 8006d94:	f853 1022 	ldr.w	r1, [r3, r2, lsl #2]
 8006d98:	6029      	str	r1, [r5, #0]
 8006d9a:	f843 5022 	str.w	r5, [r3, r2, lsl #2]
 8006d9e:	bd70      	pop	{r4, r5, r6, pc}

08006da0 <__multadd>:
 8006da0:	e92d 41f0 	stmdb	sp!, {r4, r5, r6, r7, r8, lr}
 8006da4:	461f      	mov	r7, r3
 8006da6:	4606      	mov	r6, r0
 8006da8:	460c      	mov	r4, r1
 8006daa:	2300      	movs	r3, #0
 8006dac:	690d      	ldr	r5, [r1, #16]
 8006dae:	f101 0c14 	add.w	ip, r1, #20
 8006db2:	f8dc 0000 	ldr.w	r0, [ip]
 8006db6:	3301      	adds	r3, #1
 8006db8:	b281      	uxth	r1, r0
 8006dba:	fb02 7101 	mla	r1, r2, r1, r7
 8006dbe:	0c00      	lsrs	r0, r0, #16
 8006dc0:	0c0f      	lsrs	r7, r1, #16
 8006dc2:	fb02 7000 	mla	r0, r2, r0, r7
 8006dc6:	b289      	uxth	r1, r1
 8006dc8:	eb01 4100 	add.w	r1, r1, r0, lsl #16
 8006dcc:	429d      	cmp	r5, r3
 8006dce:	ea4f 4710 	mov.w	r7, r0, lsr #16
 8006dd2:	f84c 1b04 	str.w	r1, [ip], #4
 8006dd6:	dcec      	bgt.n	8006db2 <__multadd+0x12>
 8006dd8:	b1d7      	cbz	r7, 8006e10 <__multadd+0x70>
 8006dda:	68a3      	ldr	r3, [r4, #8]
 8006ddc:	42ab      	cmp	r3, r5
 8006dde:	dc12      	bgt.n	8006e06 <__multadd+0x66>
 8006de0:	6861      	ldr	r1, [r4, #4]
 8006de2:	4630      	mov	r0, r6
 8006de4:	3101      	adds	r1, #1
 8006de6:	f7ff ff90 	bl	8006d0a <_Balloc>
 8006dea:	4680      	mov	r8, r0
 8006dec:	6922      	ldr	r2, [r4, #16]
 8006dee:	f104 010c 	add.w	r1, r4, #12
 8006df2:	3202      	adds	r2, #2
 8006df4:	0092      	lsls	r2, r2, #2
 8006df6:	300c      	adds	r0, #12
 8006df8:	f7ff ff7c 	bl	8006cf4 <memcpy>
 8006dfc:	4621      	mov	r1, r4
 8006dfe:	4630      	mov	r0, r6
 8006e00:	f7ff ffb7 	bl	8006d72 <_Bfree>
 8006e04:	4644      	mov	r4, r8
 8006e06:	eb04 0385 	add.w	r3, r4, r5, lsl #2
 8006e0a:	3501      	adds	r5, #1
 8006e0c:	615f      	str	r7, [r3, #20]
 8006e0e:	6125      	str	r5, [r4, #16]
 8006e10:	4620      	mov	r0, r4
 8006e12:	e8bd 81f0 	ldmia.w	sp!, {r4, r5, r6, r7, r8, pc}

08006e16 <__s2b>:
 8006e16:	e92d 43f8 	stmdb	sp!, {r3, r4, r5, r6, r7, r8, r9, lr}
 8006e1a:	4615      	mov	r5, r2
 8006e1c:	2209      	movs	r2, #9
 8006e1e:	461f      	mov	r7, r3
 8006e20:	3308      	adds	r3, #8
 8006e22:	460c      	mov	r4, r1
 8006e24:	fb93 f3f2 	sdiv	r3, r3, r2
 8006e28:	4606      	mov	r6, r0
 8006e2a:	2201      	movs	r2, #1
 8006e2c:	2100      	movs	r1, #0
 8006e2e:	429a      	cmp	r2, r3
 8006e30:	db20      	blt.n	8006e74 <__s2b+0x5e>
 8006e32:	4630      	mov	r0, r6
 8006e34:	f7ff ff69 	bl	8006d0a <_Balloc>
 8006e38:	9b08      	ldr	r3, [sp, #32]
 8006e3a:	2d09      	cmp	r5, #9
 8006e3c:	6143      	str	r3, [r0, #20]
 8006e3e:	f04f 0301 	mov.w	r3, #1
 8006e42:	6103      	str	r3, [r0, #16]
 8006e44:	dd19      	ble.n	8006e7a <__s2b+0x64>
 8006e46:	f104 0809 	add.w	r8, r4, #9
 8006e4a:	46c1      	mov	r9, r8
 8006e4c:	442c      	add	r4, r5
 8006e4e:	f819 3b01 	ldrb.w	r3, [r9], #1
 8006e52:	4601      	mov	r1, r0
 8006e54:	3b30      	subs	r3, #48	; 0x30
 8006e56:	220a      	movs	r2, #10
 8006e58:	4630      	mov	r0, r6
 8006e5a:	f7ff ffa1 	bl	8006da0 <__multadd>
 8006e5e:	45a1      	cmp	r9, r4
 8006e60:	d1f5      	bne.n	8006e4e <__s2b+0x38>
 8006e62:	eb08 0405 	add.w	r4, r8, r5
 8006e66:	3c08      	subs	r4, #8
 8006e68:	1b2d      	subs	r5, r5, r4
 8006e6a:	1963      	adds	r3, r4, r5
 8006e6c:	42bb      	cmp	r3, r7
 8006e6e:	db07      	blt.n	8006e80 <__s2b+0x6a>
 8006e70:	e8bd 83f8 	ldmia.w	sp!, {r3, r4, r5, r6, r7, r8, r9, pc}
 8006e74:	0052      	lsls	r2, r2, #1
 8006e76:	3101      	adds	r1, #1
 8006e78:	e7d9      	b.n	8006e2e <__s2b+0x18>
 8006e7a:	340a      	adds	r4, #10
 8006e7c:	2509      	movs	r5, #9
 8006e7e:	e7f3      	b.n	8006e68 <__s2b+0x52>
 8006e80:	f814 3b01 	ldrb.w	r3, [r4], #1
 8006e84:	4601      	mov	r1, r0
 8006e86:	3b30      	subs	r3, #48	; 0x30
 8006e88:	220a      	movs	r2, #10
 8006e8a:	4630      	mov	r0, r6
 8006e8c:	f7ff ff88 	bl	8006da0 <__multadd>
 8006e90:	e7eb      	b.n	8006e6a <__s2b+0x54>

08006e92 <__hi0bits>:
 8006e92:	0c02      	lsrs	r2, r0, #16
 8006e94:	0412      	lsls	r2, r2, #16
 8006e96:	4603      	mov	r3, r0
 8006e98:	b9b2      	cbnz	r2, 8006ec8 <__hi0bits+0x36>
 8006e9a:	0403      	lsls	r3, r0, #16
 8006e9c:	2010      	movs	r0, #16
 8006e9e:	f013 4f7f 	tst.w	r3, #4278190080	; 0xff000000
 8006ea2:	bf04      	itt	eq
 8006ea4:	021b      	lsleq	r3, r3, #8
 8006ea6:	3008      	addeq	r0, #8
 8006ea8:	f013 4f70 	tst.w	r3, #4026531840	; 0xf0000000
 8006eac:	bf04      	itt	eq
 8006eae:	011b      	lsleq	r3, r3, #4
 8006eb0:	3004      	addeq	r0, #4
 8006eb2:	f013 4f40 	tst.w	r3, #3221225472	; 0xc0000000
 8006eb6:	bf04      	itt	eq
 8006eb8:	009b      	lsleq	r3, r3, #2
 8006eba:	3002      	addeq	r0, #2
 8006ebc:	2b00      	cmp	r3, #0
 8006ebe:	db06      	blt.n	8006ece <__hi0bits+0x3c>
 8006ec0:	005b      	lsls	r3, r3, #1
 8006ec2:	d503      	bpl.n	8006ecc <__hi0bits+0x3a>
 8006ec4:	3001      	adds	r0, #1
 8006ec6:	4770      	bx	lr
 8006ec8:	2000      	movs	r0, #0
 8006eca:	e7e8      	b.n	8006e9e <__hi0bits+0xc>
 8006ecc:	2020      	movs	r0, #32
 8006ece:	4770      	bx	lr

08006ed0 <__lo0bits>:
 8006ed0:	6803      	ldr	r3, [r0, #0]
 8006ed2:	4601      	mov	r1, r0
 8006ed4:	f013 0207 	ands.w	r2, r3, #7
 8006ed8:	d00b      	beq.n	8006ef2 <__lo0bits+0x22>
 8006eda:	07da      	lsls	r2, r3, #31
 8006edc:	d423      	bmi.n	8006f26 <__lo0bits+0x56>
 8006ede:	0798      	lsls	r0, r3, #30
 8006ee0:	bf49      	itett	mi
 8006ee2:	085b      	lsrmi	r3, r3, #1
 8006ee4:	089b      	lsrpl	r3, r3, #2
 8006ee6:	2001      	movmi	r0, #1
 8006ee8:	600b      	strmi	r3, [r1, #0]
 8006eea:	bf5c      	itt	pl
 8006eec:	600b      	strpl	r3, [r1, #0]
 8006eee:	2002      	movpl	r0, #2
 8006ef0:	4770      	bx	lr
 8006ef2:	b298      	uxth	r0, r3
 8006ef4:	b9a8      	cbnz	r0, 8006f22 <__lo0bits+0x52>
 8006ef6:	2010      	movs	r0, #16
 8006ef8:	0c1b      	lsrs	r3, r3, #16
 8006efa:	f013 0fff 	tst.w	r3, #255	; 0xff
 8006efe:	bf04      	itt	eq
 8006f00:	0a1b      	lsreq	r3, r3, #8
 8006f02:	3008      	addeq	r0, #8
 8006f04:	071a      	lsls	r2, r3, #28
 8006f06:	bf04      	itt	eq
 8006f08:	091b      	lsreq	r3, r3, #4
 8006f0a:	3004      	addeq	r0, #4
 8006f0c:	079a      	lsls	r2, r3, #30
 8006f0e:	bf04      	itt	eq
 8006f10:	089b      	lsreq	r3, r3, #2
 8006f12:	3002      	addeq	r0, #2
 8006f14:	07da      	lsls	r2, r3, #31
 8006f16:	d402      	bmi.n	8006f1e <__lo0bits+0x4e>
 8006f18:	085b      	lsrs	r3, r3, #1
 8006f1a:	d006      	beq.n	8006f2a <__lo0bits+0x5a>
 8006f1c:	3001      	adds	r0, #1
 8006f1e:	600b      	str	r3, [r1, #0]
 8006f20:	4770      	bx	lr
 8006f22:	4610      	mov	r0, r2
 8006f24:	e7e9      	b.n	8006efa <__lo0bits+0x2a>
 8006f26:	2000      	movs	r0, #0
 8006f28:	4770      	bx	lr
 8006f2a:	2020      	movs	r0, #32
 8006f2c:	4770      	bx	lr

08006f2e <__i2b>:
 8006f2e:	b510      	push	{r4, lr}
 8006f30:	460c      	mov	r4, r1
 8006f32:	2101      	movs	r1, #1
 8006f34:	f7ff fee9 	bl	8006d0a <_Balloc>
 8006f38:	2201      	movs	r2, #1
 8006f3a:	6144      	str	r4, [r0, #20]
 8006f3c:	6102      	str	r2, [r0, #16]
 8006f3e:	bd10      	pop	{r4, pc}

08006f40 <__multiply>:
 8006f40:	e92d 4ff7 	stmdb	sp!, {r0, r1, r2, r4, r5, r6, r7, r8, r9, sl, fp, lr}
 8006f44:	4614      	mov	r4, r2
 8006f46:	690a      	ldr	r2, [r1, #16]
 8006f48:	6923      	ldr	r3, [r4, #16]
 8006f4a:	4688      	mov	r8, r1
 8006f4c:	429a      	cmp	r2, r3
 8006f4e:	bfbe      	ittt	lt
 8006f50:	460b      	movlt	r3, r1
 8006f52:	46a0      	movlt	r8, r4
 8006f54:	461c      	movlt	r4, r3
 8006f56:	f8d8 7010 	ldr.w	r7, [r8, #16]
 8006f5a:	f8d4 9010 	ldr.w	r9, [r4, #16]
 8006f5e:	f8d8 3008 	ldr.w	r3, [r8, #8]
 8006f62:	f8d8 1004 	ldr.w	r1, [r8, #4]
 8006f66:	eb07 0609 	add.w	r6, r7, r9
 8006f6a:	42b3      	cmp	r3, r6
 8006f6c:	bfb8      	it	lt
 8006f6e:	3101      	addlt	r1, #1
 8006f70:	f7ff fecb 	bl	8006d0a <_Balloc>
 8006f74:	f100 0514 	add.w	r5, r0, #20
 8006f78:	462b      	mov	r3, r5
 8006f7a:	2200      	movs	r2, #0
 8006f7c:	eb05 0e86 	add.w	lr, r5, r6, lsl #2
 8006f80:	4573      	cmp	r3, lr
 8006f82:	d316      	bcc.n	8006fb2 <__multiply+0x72>
 8006f84:	f104 0214 	add.w	r2, r4, #20
 8006f88:	f108 0114 	add.w	r1, r8, #20
 8006f8c:	eb02 0389 	add.w	r3, r2, r9, lsl #2
 8006f90:	eb01 0787 	add.w	r7, r1, r7, lsl #2
 8006f94:	9300      	str	r3, [sp, #0]
 8006f96:	9b00      	ldr	r3, [sp, #0]
 8006f98:	9201      	str	r2, [sp, #4]
 8006f9a:	4293      	cmp	r3, r2
 8006f9c:	d80c      	bhi.n	8006fb8 <__multiply+0x78>
 8006f9e:	2e00      	cmp	r6, #0
 8006fa0:	dd03      	ble.n	8006faa <__multiply+0x6a>
 8006fa2:	f85e 3d04 	ldr.w	r3, [lr, #-4]!
 8006fa6:	2b00      	cmp	r3, #0
 8006fa8:	d05d      	beq.n	8007066 <__multiply+0x126>
 8006faa:	6106      	str	r6, [r0, #16]
 8006fac:	b003      	add	sp, #12
 8006fae:	e8bd 8ff0 	ldmia.w	sp!, {r4, r5, r6, r7, r8, r9, sl, fp, pc}
 8006fb2:	f843 2b04 	str.w	r2, [r3], #4
 8006fb6:	e7e3      	b.n	8006f80 <__multiply+0x40>
 8006fb8:	f8b2 b000 	ldrh.w	fp, [r2]
 8006fbc:	f1bb 0f00 	cmp.w	fp, #0
 8006fc0:	d023      	beq.n	800700a <__multiply+0xca>
 8006fc2:	4689      	mov	r9, r1
 8006fc4:	46ac      	mov	ip, r5
 8006fc6:	f04f 0800 	mov.w	r8, #0
 8006fca:	f859 4b04 	ldr.w	r4, [r9], #4
 8006fce:	f8dc a000 	ldr.w	sl, [ip]
 8006fd2:	b2a3      	uxth	r3, r4
 8006fd4:	fa1f fa8a 	uxth.w	sl, sl
 8006fd8:	fb0b a303 	mla	r3, fp, r3, sl
 8006fdc:	ea4f 4a14 	mov.w	sl, r4, lsr #16
 8006fe0:	f8dc 4000 	ldr.w	r4, [ip]
 8006fe4:	4443      	add	r3, r8
 8006fe6:	ea4f 4814 	mov.w	r8, r4, lsr #16
 8006fea:	fb0b 840a 	mla	r4, fp, sl, r8
 8006fee:	46e2      	mov	sl, ip
 8006ff0:	eb04 4413 	add.w	r4, r4, r3, lsr #16
 8006ff4:	b29b      	uxth	r3, r3
 8006ff6:	ea43 4304 	orr.w	r3, r3, r4, lsl #16
 8006ffa:	454f      	cmp	r7, r9
 8006ffc:	ea4f 4814 	mov.w	r8, r4, lsr #16
 8007000:	f84a 3b04 	str.w	r3, [sl], #4
 8007004:	d82b      	bhi.n	800705e <__multiply+0x11e>
 8007006:	f8cc 8004 	str.w	r8, [ip, #4]
 800700a:	9b01      	ldr	r3, [sp, #4]
 800700c:	3204      	adds	r2, #4
 800700e:	f8b3 a002 	ldrh.w	sl, [r3, #2]
 8007012:	f1ba 0f00 	cmp.w	sl, #0
 8007016:	d020      	beq.n	800705a <__multiply+0x11a>
 8007018:	4689      	mov	r9, r1
 800701a:	46a8      	mov	r8, r5
 800701c:	f04f 0b00 	mov.w	fp, #0
 8007020:	682b      	ldr	r3, [r5, #0]
 8007022:	f8b9 c000 	ldrh.w	ip, [r9]
 8007026:	f8b8 4002 	ldrh.w	r4, [r8, #2]
 800702a:	b29b      	uxth	r3, r3
 800702c:	fb0a 440c 	mla	r4, sl, ip, r4
 8007030:	46c4      	mov	ip, r8
 8007032:	445c      	add	r4, fp
 8007034:	ea43 4304 	orr.w	r3, r3, r4, lsl #16
 8007038:	f84c 3b04 	str.w	r3, [ip], #4
 800703c:	f859 3b04 	ldr.w	r3, [r9], #4
 8007040:	f8b8 b004 	ldrh.w	fp, [r8, #4]
 8007044:	0c1b      	lsrs	r3, r3, #16
 8007046:	fb0a b303 	mla	r3, sl, r3, fp
 800704a:	454f      	cmp	r7, r9
 800704c:	eb03 4314 	add.w	r3, r3, r4, lsr #16
 8007050:	ea4f 4b13 	mov.w	fp, r3, lsr #16
 8007054:	d805      	bhi.n	8007062 <__multiply+0x122>
 8007056:	f8c8 3004 	str.w	r3, [r8, #4]
 800705a:	3504      	adds	r5, #4
 800705c:	e79b      	b.n	8006f96 <__multiply+0x56>
 800705e:	46d4      	mov	ip, sl
 8007060:	e7b3      	b.n	8006fca <__multiply+0x8a>
 8007062:	46e0      	mov	r8, ip
 8007064:	e7dd      	b.n	8007022 <__multiply+0xe2>
 8007066:	3e01      	subs	r6, #1
 8007068:	e799      	b.n	8006f9e <__multiply+0x5e>
	...

0800706c <__pow5mult>:
 800706c:	e92d 43f8 	stmdb	sp!, {r3, r4, r5, r6, r7, r8, r9, lr}
 8007070:	4615      	mov	r5, r2
 8007072:	f012 0203 	ands.w	r2, r2, #3
 8007076:	4606      	mov	r6, r0
 8007078:	460f      	mov	r7, r1
 800707a:	d007      	beq.n	800708c <__pow5mult+0x20>
 800707c:	4c21      	ldr	r4, [pc, #132]	; (8007104 <__pow5mult+0x98>)
 800707e:	3a01      	subs	r2, #1
 8007080:	2300      	movs	r3, #0
 8007082:	f854 2022 	ldr.w	r2, [r4, r2, lsl #2]
 8007086:	f7ff fe8b 	bl	8006da0 <__multadd>
 800708a:	4607      	mov	r7, r0
 800708c:	10ad      	asrs	r5, r5, #2
 800708e:	d035      	beq.n	80070fc <__pow5mult+0x90>
 8007090:	6a74      	ldr	r4, [r6, #36]	; 0x24
 8007092:	b93c      	cbnz	r4, 80070a4 <__pow5mult+0x38>
 8007094:	2010      	movs	r0, #16
 8007096:	f7ff fe05 	bl	8006ca4 <malloc>
 800709a:	6270      	str	r0, [r6, #36]	; 0x24
 800709c:	e9c0 4401 	strd	r4, r4, [r0, #4]
 80070a0:	6004      	str	r4, [r0, #0]
 80070a2:	60c4      	str	r4, [r0, #12]
 80070a4:	f8d6 8024 	ldr.w	r8, [r6, #36]	; 0x24
 80070a8:	f8d8 4008 	ldr.w	r4, [r8, #8]
 80070ac:	b94c      	cbnz	r4, 80070c2 <__pow5mult+0x56>
 80070ae:	f240 2171 	movw	r1, #625	; 0x271
 80070b2:	4630      	mov	r0, r6
 80070b4:	f7ff ff3b 	bl	8006f2e <__i2b>
 80070b8:	2300      	movs	r3, #0
 80070ba:	4604      	mov	r4, r0
 80070bc:	f8c8 0008 	str.w	r0, [r8, #8]
 80070c0:	6003      	str	r3, [r0, #0]
 80070c2:	f04f 0800 	mov.w	r8, #0
 80070c6:	07eb      	lsls	r3, r5, #31
 80070c8:	d50a      	bpl.n	80070e0 <__pow5mult+0x74>
 80070ca:	4639      	mov	r1, r7
 80070cc:	4622      	mov	r2, r4
 80070ce:	4630      	mov	r0, r6
 80070d0:	f7ff ff36 	bl	8006f40 <__multiply>
 80070d4:	4681      	mov	r9, r0
 80070d6:	4639      	mov	r1, r7
 80070d8:	4630      	mov	r0, r6
 80070da:	f7ff fe4a 	bl	8006d72 <_Bfree>
 80070de:	464f      	mov	r7, r9
 80070e0:	106d      	asrs	r5, r5, #1
 80070e2:	d00b      	beq.n	80070fc <__pow5mult+0x90>
 80070e4:	6820      	ldr	r0, [r4, #0]
 80070e6:	b938      	cbnz	r0, 80070f8 <__pow5mult+0x8c>
 80070e8:	4622      	mov	r2, r4
 80070ea:	4621      	mov	r1, r4
 80070ec:	4630      	mov	r0, r6
 80070ee:	f7ff ff27 	bl	8006f40 <__multiply>
 80070f2:	6020      	str	r0, [r4, #0]
 80070f4:	f8c0 8000 	str.w	r8, [r0]
 80070f8:	4604      	mov	r4, r0
 80070fa:	e7e4      	b.n	80070c6 <__pow5mult+0x5a>
 80070fc:	4638      	mov	r0, r7
 80070fe:	e8bd 83f8 	ldmia.w	sp!, {r3, r4, r5, r6, r7, r8, r9, pc}
 8007102:	bf00      	nop
 8007104:	08008150 	.word	0x08008150

08007108 <__lshift>:
 8007108:	e92d 47f0 	stmdb	sp!, {r4, r5, r6, r7, r8, r9, sl, lr}
 800710c:	460c      	mov	r4, r1
 800710e:	4607      	mov	r7, r0
 8007110:	4616      	mov	r6, r2
 8007112:	6923      	ldr	r3, [r4, #16]
 8007114:	ea4f 1a62 	mov.w	sl, r2, asr #5
 8007118:	eb0a 0903 	add.w	r9, sl, r3
 800711c:	6849      	ldr	r1, [r1, #4]
 800711e:	68a3      	ldr	r3, [r4, #8]
 8007120:	f109 0501 	add.w	r5, r9, #1
 8007124:	42ab      	cmp	r3, r5
 8007126:	db32      	blt.n	800718e <__lshift+0x86>
 8007128:	4638      	mov	r0, r7
 800712a:	f7ff fdee 	bl	8006d0a <_Balloc>
 800712e:	2300      	movs	r3, #0
 8007130:	4680      	mov	r8, r0
 8007132:	461a      	mov	r2, r3
 8007134:	f100 0114 	add.w	r1, r0, #20
 8007138:	4553      	cmp	r3, sl
 800713a:	db2b      	blt.n	8007194 <__lshift+0x8c>
 800713c:	6920      	ldr	r0, [r4, #16]
 800713e:	ea2a 7aea 	bic.w	sl, sl, sl, asr #31
 8007142:	f104 0314 	add.w	r3, r4, #20
 8007146:	f016 021f 	ands.w	r2, r6, #31
 800714a:	eb01 018a 	add.w	r1, r1, sl, lsl #2
 800714e:	eb03 0c80 	add.w	ip, r3, r0, lsl #2
 8007152:	d025      	beq.n	80071a0 <__lshift+0x98>
 8007154:	2000      	movs	r0, #0
 8007156:	f1c2 0e20 	rsb	lr, r2, #32
 800715a:	468a      	mov	sl, r1
 800715c:	681e      	ldr	r6, [r3, #0]
 800715e:	4096      	lsls	r6, r2
 8007160:	4330      	orrs	r0, r6
 8007162:	f84a 0b04 	str.w	r0, [sl], #4
 8007166:	f853 0b04 	ldr.w	r0, [r3], #4
 800716a:	459c      	cmp	ip, r3
 800716c:	fa20 f00e 	lsr.w	r0, r0, lr
 8007170:	d814      	bhi.n	800719c <__lshift+0x94>
 8007172:	6048      	str	r0, [r1, #4]
 8007174:	b108      	cbz	r0, 800717a <__lshift+0x72>
 8007176:	f109 0502 	add.w	r5, r9, #2
 800717a:	3d01      	subs	r5, #1
 800717c:	4638      	mov	r0, r7
 800717e:	f8c8 5010 	str.w	r5, [r8, #16]
 8007182:	4621      	mov	r1, r4
 8007184:	f7ff fdf5 	bl	8006d72 <_Bfree>
 8007188:	4640      	mov	r0, r8
 800718a:	e8bd 87f0 	ldmia.w	sp!, {r4, r5, r6, r7, r8, r9, sl, pc}
 800718e:	3101      	adds	r1, #1
 8007190:	005b      	lsls	r3, r3, #1
 8007192:	e7c7      	b.n	8007124 <__lshift+0x1c>
 8007194:	f841 2023 	str.w	r2, [r1, r3, lsl #2]
 8007198:	3301      	adds	r3, #1
 800719a:	e7cd      	b.n	8007138 <__lshift+0x30>
 800719c:	4651      	mov	r1, sl
 800719e:	e7dc      	b.n	800715a <__lshift+0x52>
 80071a0:	3904      	subs	r1, #4
 80071a2:	f853 2b04 	ldr.w	r2, [r3], #4
 80071a6:	459c      	cmp	ip, r3
 80071a8:	f841 2f04 	str.w	r2, [r1, #4]!
 80071ac:	d8f9      	bhi.n	80071a2 <__lshift+0x9a>
 80071ae:	e7e4      	b.n	800717a <__lshift+0x72>

080071b0 <__mcmp>:
 80071b0:	6903      	ldr	r3, [r0, #16]
 80071b2:	690a      	ldr	r2, [r1, #16]
 80071b4:	b530      	push	{r4, r5, lr}
 80071b6:	1a9b      	subs	r3, r3, r2
 80071b8:	d10c      	bne.n	80071d4 <__mcmp+0x24>
 80071ba:	0092      	lsls	r2, r2, #2
 80071bc:	3014      	adds	r0, #20
 80071be:	3114      	adds	r1, #20
 80071c0:	1884      	adds	r4, r0, r2
 80071c2:	4411      	add	r1, r2
 80071c4:	f854 5d04 	ldr.w	r5, [r4, #-4]!
 80071c8:	f851 2d04 	ldr.w	r2, [r1, #-4]!
 80071cc:	4295      	cmp	r5, r2
 80071ce:	d003      	beq.n	80071d8 <__mcmp+0x28>
 80071d0:	d305      	bcc.n	80071de <__mcmp+0x2e>
 80071d2:	2301      	movs	r3, #1
 80071d4:	4618      	mov	r0, r3
 80071d6:	bd30      	pop	{r4, r5, pc}
 80071d8:	42a0      	cmp	r0, r4
 80071da:	d3f3      	bcc.n	80071c4 <__mcmp+0x14>
 80071dc:	e7fa      	b.n	80071d4 <__mcmp+0x24>
 80071de:	f04f 33ff 	mov.w	r3, #4294967295	; 0xffffffff
 80071e2:	e7f7      	b.n	80071d4 <__mcmp+0x24>

080071e4 <__mdiff>:
 80071e4:	e92d 47f0 	stmdb	sp!, {r4, r5, r6, r7, r8, r9, sl, lr}
 80071e8:	460d      	mov	r5, r1
 80071ea:	4607      	mov	r7, r0
 80071ec:	4611      	mov	r1, r2
 80071ee:	4628      	mov	r0, r5
 80071f0:	4614      	mov	r4, r2
 80071f2:	f7ff ffdd 	bl	80071b0 <__mcmp>
 80071f6:	1e06      	subs	r6, r0, #0
 80071f8:	d108      	bne.n	800720c <__mdiff+0x28>
 80071fa:	4631      	mov	r1, r6
 80071fc:	4638      	mov	r0, r7
 80071fe:	f7ff fd84 	bl	8006d0a <_Balloc>
 8007202:	2301      	movs	r3, #1
 8007204:	e9c0 3604 	strd	r3, r6, [r0, #16]
 8007208:	e8bd 87f0 	ldmia.w	sp!, {r4, r5, r6, r7, r8, r9, sl, pc}
 800720c:	bfa4      	itt	ge
 800720e:	4623      	movge	r3, r4
 8007210:	462c      	movge	r4, r5
 8007212:	4638      	mov	r0, r7
 8007214:	6861      	ldr	r1, [r4, #4]
 8007216:	bfa6      	itte	ge
 8007218:	461d      	movge	r5, r3
 800721a:	2600      	movge	r6, #0
 800721c:	2601      	movlt	r6, #1
 800721e:	f7ff fd74 	bl	8006d0a <_Balloc>
 8007222:	f04f 0e00 	mov.w	lr, #0
 8007226:	60c6      	str	r6, [r0, #12]
 8007228:	692b      	ldr	r3, [r5, #16]
 800722a:	6926      	ldr	r6, [r4, #16]
 800722c:	f104 0214 	add.w	r2, r4, #20
 8007230:	f105 0914 	add.w	r9, r5, #20
 8007234:	eb02 0786 	add.w	r7, r2, r6, lsl #2
 8007238:	eb09 0883 	add.w	r8, r9, r3, lsl #2
 800723c:	f100 0114 	add.w	r1, r0, #20
 8007240:	f852 ab04 	ldr.w	sl, [r2], #4
 8007244:	f859 5b04 	ldr.w	r5, [r9], #4
 8007248:	fa1f f38a 	uxth.w	r3, sl
 800724c:	4473      	add	r3, lr
 800724e:	b2ac      	uxth	r4, r5
 8007250:	1b1b      	subs	r3, r3, r4
 8007252:	0c2c      	lsrs	r4, r5, #16
 8007254:	ebc4 441a 	rsb	r4, r4, sl, lsr #16
 8007258:	eb04 4423 	add.w	r4, r4, r3, asr #16
 800725c:	b29b      	uxth	r3, r3
 800725e:	ea4f 4e24 	mov.w	lr, r4, asr #16
 8007262:	45c8      	cmp	r8, r9
 8007264:	ea43 4404 	orr.w	r4, r3, r4, lsl #16
 8007268:	4694      	mov	ip, r2
 800726a:	f841 4b04 	str.w	r4, [r1], #4
 800726e:	d8e7      	bhi.n	8007240 <__mdiff+0x5c>
 8007270:	45bc      	cmp	ip, r7
 8007272:	d304      	bcc.n	800727e <__mdiff+0x9a>
 8007274:	f851 3d04 	ldr.w	r3, [r1, #-4]!
 8007278:	b183      	cbz	r3, 800729c <__mdiff+0xb8>
 800727a:	6106      	str	r6, [r0, #16]
 800727c:	e7c4      	b.n	8007208 <__mdiff+0x24>
 800727e:	f85c 4b04 	ldr.w	r4, [ip], #4
 8007282:	b2a2      	uxth	r2, r4
 8007284:	4472      	add	r2, lr
 8007286:	1413      	asrs	r3, r2, #16
 8007288:	eb03 4314 	add.w	r3, r3, r4, lsr #16
 800728c:	b292      	uxth	r2, r2
 800728e:	ea42 4203 	orr.w	r2, r2, r3, lsl #16
 8007292:	ea4f 4e23 	mov.w	lr, r3, asr #16
 8007296:	f841 2b04 	str.w	r2, [r1], #4
 800729a:	e7e9      	b.n	8007270 <__mdiff+0x8c>
 800729c:	3e01      	subs	r6, #1
 800729e:	e7e9      	b.n	8007274 <__mdiff+0x90>

080072a0 <__ulp>:
 80072a0:	4b10      	ldr	r3, [pc, #64]	; (80072e4 <__ulp+0x44>)
 80072a2:	400b      	ands	r3, r1
 80072a4:	f1a3 7350 	sub.w	r3, r3, #54525952	; 0x3400000
 80072a8:	2b00      	cmp	r3, #0
 80072aa:	dd02      	ble.n	80072b2 <__ulp+0x12>
 80072ac:	2000      	movs	r0, #0
 80072ae:	4619      	mov	r1, r3
 80072b0:	4770      	bx	lr
 80072b2:	425b      	negs	r3, r3
 80072b4:	151b      	asrs	r3, r3, #20
 80072b6:	2b13      	cmp	r3, #19
 80072b8:	f04f 0000 	mov.w	r0, #0
 80072bc:	f04f 0100 	mov.w	r1, #0
 80072c0:	dc04      	bgt.n	80072cc <__ulp+0x2c>
 80072c2:	f44f 2200 	mov.w	r2, #524288	; 0x80000
 80072c6:	fa42 f103 	asr.w	r1, r2, r3
 80072ca:	4770      	bx	lr
 80072cc:	2201      	movs	r2, #1
 80072ce:	3b14      	subs	r3, #20
 80072d0:	2b1e      	cmp	r3, #30
 80072d2:	bfce      	itee	gt
 80072d4:	4613      	movgt	r3, r2
 80072d6:	f1c3 031f 	rsble	r3, r3, #31
 80072da:	fa02 f303 	lslle.w	r3, r2, r3
 80072de:	4618      	mov	r0, r3
 80072e0:	4770      	bx	lr
 80072e2:	bf00      	nop
 80072e4:	7ff00000 	.word	0x7ff00000

080072e8 <__b2d>:
 80072e8:	e92d 43f8 	stmdb	sp!, {r3, r4, r5, r6, r7, r8, r9, lr}
 80072ec:	6907      	ldr	r7, [r0, #16]
 80072ee:	f100 0914 	add.w	r9, r0, #20
 80072f2:	eb09 0787 	add.w	r7, r9, r7, lsl #2
 80072f6:	f857 6c04 	ldr.w	r6, [r7, #-4]
 80072fa:	f1a7 0804 	sub.w	r8, r7, #4
 80072fe:	4630      	mov	r0, r6
 8007300:	f7ff fdc7 	bl	8006e92 <__hi0bits>
 8007304:	f1c0 0320 	rsb	r3, r0, #32
 8007308:	280a      	cmp	r0, #10
 800730a:	600b      	str	r3, [r1, #0]
 800730c:	491e      	ldr	r1, [pc, #120]	; (8007388 <__b2d+0xa0>)
 800730e:	dc17      	bgt.n	8007340 <__b2d+0x58>
 8007310:	45c1      	cmp	r9, r8
 8007312:	bf28      	it	cs
 8007314:	2200      	movcs	r2, #0
 8007316:	f1c0 0c0b 	rsb	ip, r0, #11
 800731a:	fa26 f30c 	lsr.w	r3, r6, ip
 800731e:	bf38      	it	cc
 8007320:	f857 2c08 	ldrcc.w	r2, [r7, #-8]
 8007324:	ea43 0501 	orr.w	r5, r3, r1
 8007328:	f100 0315 	add.w	r3, r0, #21
 800732c:	fa06 f303 	lsl.w	r3, r6, r3
 8007330:	fa22 f20c 	lsr.w	r2, r2, ip
 8007334:	ea43 0402 	orr.w	r4, r3, r2
 8007338:	4620      	mov	r0, r4
 800733a:	4629      	mov	r1, r5
 800733c:	e8bd 83f8 	ldmia.w	sp!, {r3, r4, r5, r6, r7, r8, r9, pc}
 8007340:	45c1      	cmp	r9, r8
 8007342:	bf3a      	itte	cc
 8007344:	f1a7 0808 	subcc.w	r8, r7, #8
 8007348:	f857 2c08 	ldrcc.w	r2, [r7, #-8]
 800734c:	2200      	movcs	r2, #0
 800734e:	f1b0 030b 	subs.w	r3, r0, #11
 8007352:	d015      	beq.n	8007380 <__b2d+0x98>
 8007354:	409e      	lsls	r6, r3
 8007356:	f1c3 0720 	rsb	r7, r3, #32
 800735a:	f046 567f 	orr.w	r6, r6, #1069547520	; 0x3fc00000
 800735e:	fa22 f107 	lsr.w	r1, r2, r7
 8007362:	45c8      	cmp	r8, r9
 8007364:	f446 1640 	orr.w	r6, r6, #3145728	; 0x300000
 8007368:	ea46 0501 	orr.w	r5, r6, r1
 800736c:	bf94      	ite	ls
 800736e:	2100      	movls	r1, #0
 8007370:	f858 1c04 	ldrhi.w	r1, [r8, #-4]
 8007374:	fa02 f003 	lsl.w	r0, r2, r3
 8007378:	40f9      	lsrs	r1, r7
 800737a:	ea40 0401 	orr.w	r4, r0, r1
 800737e:	e7db      	b.n	8007338 <__b2d+0x50>
 8007380:	ea46 0501 	orr.w	r5, r6, r1
 8007384:	4614      	mov	r4, r2
 8007386:	e7d7      	b.n	8007338 <__b2d+0x50>
 8007388:	3ff00000 	.word	0x3ff00000

0800738c <__d2b>:
 800738c:	e92d 41f3 	stmdb	sp!, {r0, r1, r4, r5, r6, r7, r8, lr}
 8007390:	461c      	mov	r4, r3
 8007392:	e9dd 6508 	ldrd	r6, r5, [sp, #32]
 8007396:	2101      	movs	r1, #1
 8007398:	4690      	mov	r8, r2
 800739a:	f7ff fcb6 	bl	8006d0a <_Balloc>
 800739e:	f3c4 0213 	ubfx	r2, r4, #0, #20
 80073a2:	f3c4 540a 	ubfx	r4, r4, #20, #11
 80073a6:	4607      	mov	r7, r0
 80073a8:	bb34      	cbnz	r4, 80073f8 <__d2b+0x6c>
 80073aa:	9201      	str	r2, [sp, #4]
 80073ac:	f1b8 0200 	subs.w	r2, r8, #0
 80073b0:	d027      	beq.n	8007402 <__d2b+0x76>
 80073b2:	a802      	add	r0, sp, #8
 80073b4:	f840 2d08 	str.w	r2, [r0, #-8]!
 80073b8:	f7ff fd8a 	bl	8006ed0 <__lo0bits>
 80073bc:	9900      	ldr	r1, [sp, #0]
 80073be:	b1f0      	cbz	r0, 80073fe <__d2b+0x72>
 80073c0:	9a01      	ldr	r2, [sp, #4]
 80073c2:	f1c0 0320 	rsb	r3, r0, #32
 80073c6:	fa02 f303 	lsl.w	r3, r2, r3
 80073ca:	430b      	orrs	r3, r1
 80073cc:	40c2      	lsrs	r2, r0
 80073ce:	617b      	str	r3, [r7, #20]
 80073d0:	9201      	str	r2, [sp, #4]
 80073d2:	9b01      	ldr	r3, [sp, #4]
 80073d4:	2b00      	cmp	r3, #0
 80073d6:	bf14      	ite	ne
 80073d8:	2102      	movne	r1, #2
 80073da:	2101      	moveq	r1, #1
 80073dc:	61bb      	str	r3, [r7, #24]
 80073de:	6139      	str	r1, [r7, #16]
 80073e0:	b1c4      	cbz	r4, 8007414 <__d2b+0x88>
 80073e2:	f2a4 4433 	subw	r4, r4, #1075	; 0x433
 80073e6:	4404      	add	r4, r0
 80073e8:	6034      	str	r4, [r6, #0]
 80073ea:	f1c0 0035 	rsb	r0, r0, #53	; 0x35
 80073ee:	6028      	str	r0, [r5, #0]
 80073f0:	4638      	mov	r0, r7
 80073f2:	b002      	add	sp, #8
 80073f4:	e8bd 81f0 	ldmia.w	sp!, {r4, r5, r6, r7, r8, pc}
 80073f8:	f442 1280 	orr.w	r2, r2, #1048576	; 0x100000
 80073fc:	e7d5      	b.n	80073aa <__d2b+0x1e>
 80073fe:	6179      	str	r1, [r7, #20]
 8007400:	e7e7      	b.n	80073d2 <__d2b+0x46>
 8007402:	a801      	add	r0, sp, #4
 8007404:	f7ff fd64 	bl	8006ed0 <__lo0bits>
 8007408:	2101      	movs	r1, #1
 800740a:	9b01      	ldr	r3, [sp, #4]
 800740c:	6139      	str	r1, [r7, #16]
 800740e:	617b      	str	r3, [r7, #20]
 8007410:	3020      	adds	r0, #32
 8007412:	e7e5      	b.n	80073e0 <__d2b+0x54>
 8007414:	f2a0 4032 	subw	r0, r0, #1074	; 0x432
 8007418:	eb07 0381 	add.w	r3, r7, r1, lsl #2
 800741c:	6030      	str	r0, [r6, #0]
 800741e:	6918      	ldr	r0, [r3, #16]
 8007420:	f7ff fd37 	bl	8006e92 <__hi0bits>
 8007424:	ebc0 1041 	rsb	r0, r0, r1, lsl #5
 8007428:	e7e1      	b.n	80073ee <__d2b+0x62>

0800742a <__ratio>:
 800742a:	e92d 4ff7 	stmdb	sp!, {r0, r1, r2, r4, r5, r6, r7, r8, r9, sl, fp, lr}
 800742e:	4688      	mov	r8, r1
 8007430:	4669      	mov	r1, sp
 8007432:	4681      	mov	r9, r0
 8007434:	f7ff ff58 	bl	80072e8 <__b2d>
 8007438:	468b      	mov	fp, r1
 800743a:	4606      	mov	r6, r0
 800743c:	460f      	mov	r7, r1
 800743e:	4640      	mov	r0, r8
 8007440:	a901      	add	r1, sp, #4
 8007442:	f7ff ff51 	bl	80072e8 <__b2d>
 8007446:	f8d9 3010 	ldr.w	r3, [r9, #16]
 800744a:	f8d8 2010 	ldr.w	r2, [r8, #16]
 800744e:	460d      	mov	r5, r1
 8007450:	eba3 0c02 	sub.w	ip, r3, r2
 8007454:	e9dd 3200 	ldrd	r3, r2, [sp]
 8007458:	1a9b      	subs	r3, r3, r2
 800745a:	eb03 134c 	add.w	r3, r3, ip, lsl #5
 800745e:	2b00      	cmp	r3, #0
 8007460:	bfd5      	itete	le
 8007462:	460a      	movle	r2, r1
 8007464:	463a      	movgt	r2, r7
 8007466:	ebc3 3303 	rsble	r3, r3, r3, lsl #12
 800746a:	eb02 5b03 	addgt.w	fp, r2, r3, lsl #20
 800746e:	bfd8      	it	le
 8007470:	eb02 5503 	addle.w	r5, r2, r3, lsl #20
 8007474:	462b      	mov	r3, r5
 8007476:	4602      	mov	r2, r0
 8007478:	4659      	mov	r1, fp
 800747a:	4630      	mov	r0, r6
 800747c:	f7f9 f956 	bl	800072c <__aeabi_ddiv>
 8007480:	b003      	add	sp, #12
 8007482:	e8bd 8ff0 	ldmia.w	sp!, {r4, r5, r6, r7, r8, r9, sl, fp, pc}

08007486 <__copybits>:
 8007486:	3901      	subs	r1, #1
 8007488:	b510      	push	{r4, lr}
 800748a:	1149      	asrs	r1, r1, #5
 800748c:	6914      	ldr	r4, [r2, #16]
 800748e:	3101      	adds	r1, #1
 8007490:	f102 0314 	add.w	r3, r2, #20
 8007494:	eb00 0181 	add.w	r1, r0, r1, lsl #2
 8007498:	eb03 0484 	add.w	r4, r3, r4, lsl #2
 800749c:	42a3      	cmp	r3, r4
 800749e:	4602      	mov	r2, r0
 80074a0:	d303      	bcc.n	80074aa <__copybits+0x24>
 80074a2:	2300      	movs	r3, #0
 80074a4:	428a      	cmp	r2, r1
 80074a6:	d305      	bcc.n	80074b4 <__copybits+0x2e>
 80074a8:	bd10      	pop	{r4, pc}
 80074aa:	f853 2b04 	ldr.w	r2, [r3], #4
 80074ae:	f840 2b04 	str.w	r2, [r0], #4
 80074b2:	e7f3      	b.n	800749c <__copybits+0x16>
 80074b4:	f842 3b04 	str.w	r3, [r2], #4
 80074b8:	e7f4      	b.n	80074a4 <__copybits+0x1e>

080074ba <__any_on>:
 80074ba:	f100 0214 	add.w	r2, r0, #20
 80074be:	6900      	ldr	r0, [r0, #16]
 80074c0:	114b      	asrs	r3, r1, #5
 80074c2:	4298      	cmp	r0, r3
 80074c4:	b510      	push	{r4, lr}
 80074c6:	db11      	blt.n	80074ec <__any_on+0x32>
 80074c8:	dd0a      	ble.n	80074e0 <__any_on+0x26>
 80074ca:	f011 011f 	ands.w	r1, r1, #31
 80074ce:	d007      	beq.n	80074e0 <__any_on+0x26>
 80074d0:	f852 4023 	ldr.w	r4, [r2, r3, lsl #2]
 80074d4:	fa24 f001 	lsr.w	r0, r4, r1
 80074d8:	fa00 f101 	lsl.w	r1, r0, r1
 80074dc:	428c      	cmp	r4, r1
 80074de:	d10b      	bne.n	80074f8 <__any_on+0x3e>
 80074e0:	eb02 0383 	add.w	r3, r2, r3, lsl #2
 80074e4:	4293      	cmp	r3, r2
 80074e6:	d803      	bhi.n	80074f0 <__any_on+0x36>
 80074e8:	2000      	movs	r0, #0
 80074ea:	bd10      	pop	{r4, pc}
 80074ec:	4603      	mov	r3, r0
 80074ee:	e7f7      	b.n	80074e0 <__any_on+0x26>
 80074f0:	f853 1d04 	ldr.w	r1, [r3, #-4]!
 80074f4:	2900      	cmp	r1, #0
 80074f6:	d0f5      	beq.n	80074e4 <__any_on+0x2a>
 80074f8:	2001      	movs	r0, #1
 80074fa:	e7f6      	b.n	80074ea <__any_on+0x30>

080074fc <_calloc_r>:
 80074fc:	b538      	push	{r3, r4, r5, lr}
 80074fe:	fb02 f401 	mul.w	r4, r2, r1
 8007502:	4621      	mov	r1, r4
 8007504:	f000 f854 	bl	80075b0 <_malloc_r>
 8007508:	4605      	mov	r5, r0
 800750a:	b118      	cbz	r0, 8007514 <_calloc_r+0x18>
 800750c:	4622      	mov	r2, r4
 800750e:	2100      	movs	r1, #0
 8007510:	f7fc f952 	bl	80037b8 <memset>
 8007514:	4628      	mov	r0, r5
 8007516:	bd38      	pop	{r3, r4, r5, pc}

08007518 <_free_r>:
 8007518:	b538      	push	{r3, r4, r5, lr}
 800751a:	4605      	mov	r5, r0
 800751c:	2900      	cmp	r1, #0
 800751e:	d043      	beq.n	80075a8 <_free_r+0x90>
 8007520:	f851 3c04 	ldr.w	r3, [r1, #-4]
 8007524:	1f0c      	subs	r4, r1, #4
 8007526:	2b00      	cmp	r3, #0
 8007528:	bfb8      	it	lt
 800752a:	18e4      	addlt	r4, r4, r3
 800752c:	f000 fc0b 	bl	8007d46 <__malloc_lock>
 8007530:	4a1e      	ldr	r2, [pc, #120]	; (80075ac <_free_r+0x94>)
 8007532:	6813      	ldr	r3, [r2, #0]
 8007534:	4610      	mov	r0, r2
 8007536:	b933      	cbnz	r3, 8007546 <_free_r+0x2e>
 8007538:	6063      	str	r3, [r4, #4]
 800753a:	6014      	str	r4, [r2, #0]
 800753c:	4628      	mov	r0, r5
 800753e:	e8bd 4038 	ldmia.w	sp!, {r3, r4, r5, lr}
 8007542:	f000 bc01 	b.w	8007d48 <__malloc_unlock>
 8007546:	42a3      	cmp	r3, r4
 8007548:	d90b      	bls.n	8007562 <_free_r+0x4a>
 800754a:	6821      	ldr	r1, [r4, #0]
 800754c:	1862      	adds	r2, r4, r1
 800754e:	4293      	cmp	r3, r2
 8007550:	bf01      	itttt	eq
 8007552:	681a      	ldreq	r2, [r3, #0]
 8007554:	685b      	ldreq	r3, [r3, #4]
 8007556:	1852      	addeq	r2, r2, r1
 8007558:	6022      	streq	r2, [r4, #0]
 800755a:	6063      	str	r3, [r4, #4]
 800755c:	6004      	str	r4, [r0, #0]
 800755e:	e7ed      	b.n	800753c <_free_r+0x24>
 8007560:	4613      	mov	r3, r2
 8007562:	685a      	ldr	r2, [r3, #4]
 8007564:	b10a      	cbz	r2, 800756a <_free_r+0x52>
 8007566:	42a2      	cmp	r2, r4
 8007568:	d9fa      	bls.n	8007560 <_free_r+0x48>
 800756a:	6819      	ldr	r1, [r3, #0]
 800756c:	1858      	adds	r0, r3, r1
 800756e:	42a0      	cmp	r0, r4
 8007570:	d10b      	bne.n	800758a <_free_r+0x72>
 8007572:	6820      	ldr	r0, [r4, #0]
 8007574:	4401      	add	r1, r0
 8007576:	1858      	adds	r0, r3, r1
 8007578:	4282      	cmp	r2, r0
 800757a:	6019      	str	r1, [r3, #0]
 800757c:	d1de      	bne.n	800753c <_free_r+0x24>
 800757e:	6810      	ldr	r0, [r2, #0]
 8007580:	6852      	ldr	r2, [r2, #4]
 8007582:	4401      	add	r1, r0
 8007584:	6019      	str	r1, [r3, #0]
 8007586:	605a      	str	r2, [r3, #4]
 8007588:	e7d8      	b.n	800753c <_free_r+0x24>
 800758a:	d902      	bls.n	8007592 <_free_r+0x7a>
 800758c:	230c      	movs	r3, #12
 800758e:	602b      	str	r3, [r5, #0]
 8007590:	e7d4      	b.n	800753c <_free_r+0x24>
 8007592:	6820      	ldr	r0, [r4, #0]
 8007594:	1821      	adds	r1, r4, r0
 8007596:	428a      	cmp	r2, r1
 8007598:	bf01      	itttt	eq
 800759a:	6811      	ldreq	r1, [r2, #0]
 800759c:	6852      	ldreq	r2, [r2, #4]
 800759e:	1809      	addeq	r1, r1, r0
 80075a0:	6021      	streq	r1, [r4, #0]
 80075a2:	6062      	str	r2, [r4, #4]
 80075a4:	605c      	str	r4, [r3, #4]
 80075a6:	e7c9      	b.n	800753c <_free_r+0x24>
 80075a8:	bd38      	pop	{r3, r4, r5, pc}
 80075aa:	bf00      	nop
 80075ac:	200002ec 	.word	0x200002ec

080075b0 <_malloc_r>:
 80075b0:	b570      	push	{r4, r5, r6, lr}
 80075b2:	1ccd      	adds	r5, r1, #3
 80075b4:	f025 0503 	bic.w	r5, r5, #3
 80075b8:	3508      	adds	r5, #8
 80075ba:	2d0c      	cmp	r5, #12
 80075bc:	bf38      	it	cc
 80075be:	250c      	movcc	r5, #12
 80075c0:	2d00      	cmp	r5, #0
 80075c2:	4606      	mov	r6, r0
 80075c4:	db01      	blt.n	80075ca <_malloc_r+0x1a>
 80075c6:	42a9      	cmp	r1, r5
 80075c8:	d903      	bls.n	80075d2 <_malloc_r+0x22>
 80075ca:	230c      	movs	r3, #12
 80075cc:	6033      	str	r3, [r6, #0]
 80075ce:	2000      	movs	r0, #0
 80075d0:	bd70      	pop	{r4, r5, r6, pc}
 80075d2:	f000 fbb8 	bl	8007d46 <__malloc_lock>
 80075d6:	4a21      	ldr	r2, [pc, #132]	; (800765c <_malloc_r+0xac>)
 80075d8:	6814      	ldr	r4, [r2, #0]
 80075da:	4621      	mov	r1, r4
 80075dc:	b991      	cbnz	r1, 8007604 <_malloc_r+0x54>
 80075de:	4c20      	ldr	r4, [pc, #128]	; (8007660 <_malloc_r+0xb0>)
 80075e0:	6823      	ldr	r3, [r4, #0]
 80075e2:	b91b      	cbnz	r3, 80075ec <_malloc_r+0x3c>
 80075e4:	4630      	mov	r0, r6
 80075e6:	f000 facd 	bl	8007b84 <_sbrk_r>
 80075ea:	6020      	str	r0, [r4, #0]
 80075ec:	4629      	mov	r1, r5
 80075ee:	4630      	mov	r0, r6
 80075f0:	f000 fac8 	bl	8007b84 <_sbrk_r>
 80075f4:	1c43      	adds	r3, r0, #1
 80075f6:	d124      	bne.n	8007642 <_malloc_r+0x92>
 80075f8:	230c      	movs	r3, #12
 80075fa:	4630      	mov	r0, r6
 80075fc:	6033      	str	r3, [r6, #0]
 80075fe:	f000 fba3 	bl	8007d48 <__malloc_unlock>
 8007602:	e7e4      	b.n	80075ce <_malloc_r+0x1e>
 8007604:	680b      	ldr	r3, [r1, #0]
 8007606:	1b5b      	subs	r3, r3, r5
 8007608:	d418      	bmi.n	800763c <_malloc_r+0x8c>
 800760a:	2b0b      	cmp	r3, #11
 800760c:	d90f      	bls.n	800762e <_malloc_r+0x7e>
 800760e:	600b      	str	r3, [r1, #0]
 8007610:	18cc      	adds	r4, r1, r3
 8007612:	50cd      	str	r5, [r1, r3]
 8007614:	4630      	mov	r0, r6
 8007616:	f000 fb97 	bl	8007d48 <__malloc_unlock>
 800761a:	f104 000b 	add.w	r0, r4, #11
 800761e:	1d23      	adds	r3, r4, #4
 8007620:	f020 0007 	bic.w	r0, r0, #7
 8007624:	1ac3      	subs	r3, r0, r3
 8007626:	d0d3      	beq.n	80075d0 <_malloc_r+0x20>
 8007628:	425a      	negs	r2, r3
 800762a:	50e2      	str	r2, [r4, r3]
 800762c:	e7d0      	b.n	80075d0 <_malloc_r+0x20>
 800762e:	684b      	ldr	r3, [r1, #4]
 8007630:	428c      	cmp	r4, r1
 8007632:	bf16      	itet	ne
 8007634:	6063      	strne	r3, [r4, #4]
 8007636:	6013      	streq	r3, [r2, #0]
 8007638:	460c      	movne	r4, r1
 800763a:	e7eb      	b.n	8007614 <_malloc_r+0x64>
 800763c:	460c      	mov	r4, r1
 800763e:	6849      	ldr	r1, [r1, #4]
 8007640:	e7cc      	b.n	80075dc <_malloc_r+0x2c>
 8007642:	1cc4      	adds	r4, r0, #3
 8007644:	f024 0403 	bic.w	r4, r4, #3
 8007648:	42a0      	cmp	r0, r4
 800764a:	d005      	beq.n	8007658 <_malloc_r+0xa8>
 800764c:	1a21      	subs	r1, r4, r0
 800764e:	4630      	mov	r0, r6
 8007650:	f000 fa98 	bl	8007b84 <_sbrk_r>
 8007654:	3001      	adds	r0, #1
 8007656:	d0cf      	beq.n	80075f8 <_malloc_r+0x48>
 8007658:	6025      	str	r5, [r4, #0]
 800765a:	e7db      	b.n	8007614 <_malloc_r+0x64>
 800765c:	200002ec 	.word	0x200002ec
 8007660:	200002f0 	.word	0x200002f0

08007664 <__ssputs_r>:
 8007664:	e92d 47f0 	stmdb	sp!, {r4, r5, r6, r7, r8, r9, sl, lr}
 8007668:	688e      	ldr	r6, [r1, #8]
 800766a:	4682      	mov	sl, r0
 800766c:	429e      	cmp	r6, r3
 800766e:	460c      	mov	r4, r1
 8007670:	4690      	mov	r8, r2
 8007672:	4699      	mov	r9, r3
 8007674:	d837      	bhi.n	80076e6 <__ssputs_r+0x82>
 8007676:	898a      	ldrh	r2, [r1, #12]
 8007678:	f412 6f90 	tst.w	r2, #1152	; 0x480
 800767c:	d031      	beq.n	80076e2 <__ssputs_r+0x7e>
 800767e:	2302      	movs	r3, #2
 8007680:	6825      	ldr	r5, [r4, #0]
 8007682:	6909      	ldr	r1, [r1, #16]
 8007684:	1a6f      	subs	r7, r5, r1
 8007686:	6965      	ldr	r5, [r4, #20]
 8007688:	eb05 0545 	add.w	r5, r5, r5, lsl #1
 800768c:	fb95 f5f3 	sdiv	r5, r5, r3
 8007690:	f109 0301 	add.w	r3, r9, #1
 8007694:	443b      	add	r3, r7
 8007696:	429d      	cmp	r5, r3
 8007698:	bf38      	it	cc
 800769a:	461d      	movcc	r5, r3
 800769c:	0553      	lsls	r3, r2, #21
 800769e:	d530      	bpl.n	8007702 <__ssputs_r+0x9e>
 80076a0:	4629      	mov	r1, r5
 80076a2:	f7ff ff85 	bl	80075b0 <_malloc_r>
 80076a6:	4606      	mov	r6, r0
 80076a8:	b950      	cbnz	r0, 80076c0 <__ssputs_r+0x5c>
 80076aa:	230c      	movs	r3, #12
 80076ac:	f04f 30ff 	mov.w	r0, #4294967295	; 0xffffffff
 80076b0:	f8ca 3000 	str.w	r3, [sl]
 80076b4:	89a3      	ldrh	r3, [r4, #12]
 80076b6:	f043 0340 	orr.w	r3, r3, #64	; 0x40
 80076ba:	81a3      	strh	r3, [r4, #12]
 80076bc:	e8bd 87f0 	ldmia.w	sp!, {r4, r5, r6, r7, r8, r9, sl, pc}
 80076c0:	463a      	mov	r2, r7
 80076c2:	6921      	ldr	r1, [r4, #16]
 80076c4:	f7ff fb16 	bl	8006cf4 <memcpy>
 80076c8:	89a3      	ldrh	r3, [r4, #12]
 80076ca:	f423 6390 	bic.w	r3, r3, #1152	; 0x480
 80076ce:	f043 0380 	orr.w	r3, r3, #128	; 0x80
 80076d2:	81a3      	strh	r3, [r4, #12]
 80076d4:	6126      	str	r6, [r4, #16]
 80076d6:	443e      	add	r6, r7
 80076d8:	6026      	str	r6, [r4, #0]
 80076da:	464e      	mov	r6, r9
 80076dc:	6165      	str	r5, [r4, #20]
 80076de:	1bed      	subs	r5, r5, r7
 80076e0:	60a5      	str	r5, [r4, #8]
 80076e2:	454e      	cmp	r6, r9
 80076e4:	d900      	bls.n	80076e8 <__ssputs_r+0x84>
 80076e6:	464e      	mov	r6, r9
 80076e8:	4632      	mov	r2, r6
 80076ea:	4641      	mov	r1, r8
 80076ec:	6820      	ldr	r0, [r4, #0]
 80076ee:	f000 fb11 	bl	8007d14 <memmove>
 80076f2:	68a3      	ldr	r3, [r4, #8]
 80076f4:	2000      	movs	r0, #0
 80076f6:	1b9b      	subs	r3, r3, r6
 80076f8:	60a3      	str	r3, [r4, #8]
 80076fa:	6823      	ldr	r3, [r4, #0]
 80076fc:	441e      	add	r6, r3
 80076fe:	6026      	str	r6, [r4, #0]
 8007700:	e7dc      	b.n	80076bc <__ssputs_r+0x58>
 8007702:	462a      	mov	r2, r5
 8007704:	f000 fb21 	bl	8007d4a <_realloc_r>
 8007708:	4606      	mov	r6, r0
 800770a:	2800      	cmp	r0, #0
 800770c:	d1e2      	bne.n	80076d4 <__ssputs_r+0x70>
 800770e:	6921      	ldr	r1, [r4, #16]
 8007710:	4650      	mov	r0, sl
 8007712:	f7ff ff01 	bl	8007518 <_free_r>
 8007716:	e7c8      	b.n	80076aa <__ssputs_r+0x46>

08007718 <_svfiprintf_r>:
 8007718:	e92d 4ff0 	stmdb	sp!, {r4, r5, r6, r7, r8, r9, sl, fp, lr}
 800771c:	461d      	mov	r5, r3
 800771e:	898b      	ldrh	r3, [r1, #12]
 8007720:	b09d      	sub	sp, #116	; 0x74
 8007722:	061f      	lsls	r7, r3, #24
 8007724:	4680      	mov	r8, r0
 8007726:	460c      	mov	r4, r1
 8007728:	4616      	mov	r6, r2
 800772a:	d50f      	bpl.n	800774c <_svfiprintf_r+0x34>
 800772c:	690b      	ldr	r3, [r1, #16]
 800772e:	b96b      	cbnz	r3, 800774c <_svfiprintf_r+0x34>
 8007730:	2140      	movs	r1, #64	; 0x40
 8007732:	f7ff ff3d 	bl	80075b0 <_malloc_r>
 8007736:	6020      	str	r0, [r4, #0]
 8007738:	6120      	str	r0, [r4, #16]
 800773a:	b928      	cbnz	r0, 8007748 <_svfiprintf_r+0x30>
 800773c:	230c      	movs	r3, #12
 800773e:	f8c8 3000 	str.w	r3, [r8]
 8007742:	f04f 30ff 	mov.w	r0, #4294967295	; 0xffffffff
 8007746:	e0c8      	b.n	80078da <_svfiprintf_r+0x1c2>
 8007748:	2340      	movs	r3, #64	; 0x40
 800774a:	6163      	str	r3, [r4, #20]
 800774c:	2300      	movs	r3, #0
 800774e:	9309      	str	r3, [sp, #36]	; 0x24
 8007750:	2320      	movs	r3, #32
 8007752:	f88d 3029 	strb.w	r3, [sp, #41]	; 0x29
 8007756:	2330      	movs	r3, #48	; 0x30
 8007758:	f04f 0b01 	mov.w	fp, #1
 800775c:	f88d 302a 	strb.w	r3, [sp, #42]	; 0x2a
 8007760:	9503      	str	r5, [sp, #12]
 8007762:	4637      	mov	r7, r6
 8007764:	463d      	mov	r5, r7
 8007766:	f815 3b01 	ldrb.w	r3, [r5], #1
 800776a:	b10b      	cbz	r3, 8007770 <_svfiprintf_r+0x58>
 800776c:	2b25      	cmp	r3, #37	; 0x25
 800776e:	d13e      	bne.n	80077ee <_svfiprintf_r+0xd6>
 8007770:	ebb7 0a06 	subs.w	sl, r7, r6
 8007774:	d00b      	beq.n	800778e <_svfiprintf_r+0x76>
 8007776:	4653      	mov	r3, sl
 8007778:	4632      	mov	r2, r6
 800777a:	4621      	mov	r1, r4
 800777c:	4640      	mov	r0, r8
 800777e:	f7ff ff71 	bl	8007664 <__ssputs_r>
 8007782:	3001      	adds	r0, #1
 8007784:	f000 80a4 	beq.w	80078d0 <_svfiprintf_r+0x1b8>
 8007788:	9b09      	ldr	r3, [sp, #36]	; 0x24
 800778a:	4453      	add	r3, sl
 800778c:	9309      	str	r3, [sp, #36]	; 0x24
 800778e:	783b      	ldrb	r3, [r7, #0]
 8007790:	2b00      	cmp	r3, #0
 8007792:	f000 809d 	beq.w	80078d0 <_svfiprintf_r+0x1b8>
 8007796:	2300      	movs	r3, #0
 8007798:	f04f 32ff 	mov.w	r2, #4294967295	; 0xffffffff
 800779c:	e9cd 2305 	strd	r2, r3, [sp, #20]
 80077a0:	9304      	str	r3, [sp, #16]
 80077a2:	9307      	str	r3, [sp, #28]
 80077a4:	f88d 3053 	strb.w	r3, [sp, #83]	; 0x53
 80077a8:	931a      	str	r3, [sp, #104]	; 0x68
 80077aa:	462f      	mov	r7, r5
 80077ac:	2205      	movs	r2, #5
 80077ae:	f817 1b01 	ldrb.w	r1, [r7], #1
 80077b2:	4850      	ldr	r0, [pc, #320]	; (80078f4 <_svfiprintf_r+0x1dc>)
 80077b4:	f7ff fa90 	bl	8006cd8 <memchr>
 80077b8:	9b04      	ldr	r3, [sp, #16]
 80077ba:	b9d0      	cbnz	r0, 80077f2 <_svfiprintf_r+0xda>
 80077bc:	06d9      	lsls	r1, r3, #27
 80077be:	bf44      	itt	mi
 80077c0:	2220      	movmi	r2, #32
 80077c2:	f88d 2053 	strbmi.w	r2, [sp, #83]	; 0x53
 80077c6:	071a      	lsls	r2, r3, #28
 80077c8:	bf44      	itt	mi
 80077ca:	222b      	movmi	r2, #43	; 0x2b
 80077cc:	f88d 2053 	strbmi.w	r2, [sp, #83]	; 0x53
 80077d0:	782a      	ldrb	r2, [r5, #0]
 80077d2:	2a2a      	cmp	r2, #42	; 0x2a
 80077d4:	d015      	beq.n	8007802 <_svfiprintf_r+0xea>
 80077d6:	462f      	mov	r7, r5
 80077d8:	2000      	movs	r0, #0
 80077da:	250a      	movs	r5, #10
 80077dc:	9a07      	ldr	r2, [sp, #28]
 80077de:	4639      	mov	r1, r7
 80077e0:	f811 3b01 	ldrb.w	r3, [r1], #1
 80077e4:	3b30      	subs	r3, #48	; 0x30
 80077e6:	2b09      	cmp	r3, #9
 80077e8:	d94d      	bls.n	8007886 <_svfiprintf_r+0x16e>
 80077ea:	b1b8      	cbz	r0, 800781c <_svfiprintf_r+0x104>
 80077ec:	e00f      	b.n	800780e <_svfiprintf_r+0xf6>
 80077ee:	462f      	mov	r7, r5
 80077f0:	e7b8      	b.n	8007764 <_svfiprintf_r+0x4c>
 80077f2:	4a40      	ldr	r2, [pc, #256]	; (80078f4 <_svfiprintf_r+0x1dc>)
 80077f4:	463d      	mov	r5, r7
 80077f6:	1a80      	subs	r0, r0, r2
 80077f8:	fa0b f000 	lsl.w	r0, fp, r0
 80077fc:	4318      	orrs	r0, r3
 80077fe:	9004      	str	r0, [sp, #16]
 8007800:	e7d3      	b.n	80077aa <_svfiprintf_r+0x92>
 8007802:	9a03      	ldr	r2, [sp, #12]
 8007804:	1d11      	adds	r1, r2, #4
 8007806:	6812      	ldr	r2, [r2, #0]
 8007808:	9103      	str	r1, [sp, #12]
 800780a:	2a00      	cmp	r2, #0
 800780c:	db01      	blt.n	8007812 <_svfiprintf_r+0xfa>
 800780e:	9207      	str	r2, [sp, #28]
 8007810:	e004      	b.n	800781c <_svfiprintf_r+0x104>
 8007812:	4252      	negs	r2, r2
 8007814:	f043 0302 	orr.w	r3, r3, #2
 8007818:	9207      	str	r2, [sp, #28]
 800781a:	9304      	str	r3, [sp, #16]
 800781c:	783b      	ldrb	r3, [r7, #0]
 800781e:	2b2e      	cmp	r3, #46	; 0x2e
 8007820:	d10c      	bne.n	800783c <_svfiprintf_r+0x124>
 8007822:	787b      	ldrb	r3, [r7, #1]
 8007824:	2b2a      	cmp	r3, #42	; 0x2a
 8007826:	d133      	bne.n	8007890 <_svfiprintf_r+0x178>
 8007828:	9b03      	ldr	r3, [sp, #12]
 800782a:	3702      	adds	r7, #2
 800782c:	1d1a      	adds	r2, r3, #4
 800782e:	681b      	ldr	r3, [r3, #0]
 8007830:	9203      	str	r2, [sp, #12]
 8007832:	2b00      	cmp	r3, #0
 8007834:	bfb8      	it	lt
 8007836:	f04f 33ff 	movlt.w	r3, #4294967295	; 0xffffffff
 800783a:	9305      	str	r3, [sp, #20]
 800783c:	4d2e      	ldr	r5, [pc, #184]	; (80078f8 <_svfiprintf_r+0x1e0>)
 800783e:	2203      	movs	r2, #3
 8007840:	7839      	ldrb	r1, [r7, #0]
 8007842:	4628      	mov	r0, r5
 8007844:	f7ff fa48 	bl	8006cd8 <memchr>
 8007848:	b138      	cbz	r0, 800785a <_svfiprintf_r+0x142>
 800784a:	2340      	movs	r3, #64	; 0x40
 800784c:	1b40      	subs	r0, r0, r5
 800784e:	fa03 f000 	lsl.w	r0, r3, r0
 8007852:	9b04      	ldr	r3, [sp, #16]
 8007854:	3701      	adds	r7, #1
 8007856:	4303      	orrs	r3, r0
 8007858:	9304      	str	r3, [sp, #16]
 800785a:	7839      	ldrb	r1, [r7, #0]
 800785c:	2206      	movs	r2, #6
 800785e:	4827      	ldr	r0, [pc, #156]	; (80078fc <_svfiprintf_r+0x1e4>)
 8007860:	1c7e      	adds	r6, r7, #1
 8007862:	f88d 1028 	strb.w	r1, [sp, #40]	; 0x28
 8007866:	f7ff fa37 	bl	8006cd8 <memchr>
 800786a:	2800      	cmp	r0, #0
 800786c:	d038      	beq.n	80078e0 <_svfiprintf_r+0x1c8>
 800786e:	4b24      	ldr	r3, [pc, #144]	; (8007900 <_svfiprintf_r+0x1e8>)
 8007870:	bb13      	cbnz	r3, 80078b8 <_svfiprintf_r+0x1a0>
 8007872:	9b03      	ldr	r3, [sp, #12]
 8007874:	3307      	adds	r3, #7
 8007876:	f023 0307 	bic.w	r3, r3, #7
 800787a:	3308      	adds	r3, #8
 800787c:	9303      	str	r3, [sp, #12]
 800787e:	9b09      	ldr	r3, [sp, #36]	; 0x24
 8007880:	444b      	add	r3, r9
 8007882:	9309      	str	r3, [sp, #36]	; 0x24
 8007884:	e76d      	b.n	8007762 <_svfiprintf_r+0x4a>
 8007886:	fb05 3202 	mla	r2, r5, r2, r3
 800788a:	2001      	movs	r0, #1
 800788c:	460f      	mov	r7, r1
 800788e:	e7a6      	b.n	80077de <_svfiprintf_r+0xc6>
 8007890:	2300      	movs	r3, #0
 8007892:	250a      	movs	r5, #10
 8007894:	4619      	mov	r1, r3
 8007896:	3701      	adds	r7, #1
 8007898:	9305      	str	r3, [sp, #20]
 800789a:	4638      	mov	r0, r7
 800789c:	f810 2b01 	ldrb.w	r2, [r0], #1
 80078a0:	3a30      	subs	r2, #48	; 0x30
 80078a2:	2a09      	cmp	r2, #9
 80078a4:	d903      	bls.n	80078ae <_svfiprintf_r+0x196>
 80078a6:	2b00      	cmp	r3, #0
 80078a8:	d0c8      	beq.n	800783c <_svfiprintf_r+0x124>
 80078aa:	9105      	str	r1, [sp, #20]
 80078ac:	e7c6      	b.n	800783c <_svfiprintf_r+0x124>
 80078ae:	fb05 2101 	mla	r1, r5, r1, r2
 80078b2:	2301      	movs	r3, #1
 80078b4:	4607      	mov	r7, r0
 80078b6:	e7f0      	b.n	800789a <_svfiprintf_r+0x182>
 80078b8:	ab03      	add	r3, sp, #12
 80078ba:	9300      	str	r3, [sp, #0]
 80078bc:	4622      	mov	r2, r4
 80078be:	4b11      	ldr	r3, [pc, #68]	; (8007904 <_svfiprintf_r+0x1ec>)
 80078c0:	a904      	add	r1, sp, #16
 80078c2:	4640      	mov	r0, r8
 80078c4:	f7fc f812 	bl	80038ec <_printf_float>
 80078c8:	f1b0 3fff 	cmp.w	r0, #4294967295	; 0xffffffff
 80078cc:	4681      	mov	r9, r0
 80078ce:	d1d6      	bne.n	800787e <_svfiprintf_r+0x166>
 80078d0:	89a3      	ldrh	r3, [r4, #12]
 80078d2:	065b      	lsls	r3, r3, #25
 80078d4:	f53f af35 	bmi.w	8007742 <_svfiprintf_r+0x2a>
 80078d8:	9809      	ldr	r0, [sp, #36]	; 0x24
 80078da:	b01d      	add	sp, #116	; 0x74
 80078dc:	e8bd 8ff0 	ldmia.w	sp!, {r4, r5, r6, r7, r8, r9, sl, fp, pc}
 80078e0:	ab03      	add	r3, sp, #12
 80078e2:	9300      	str	r3, [sp, #0]
 80078e4:	4622      	mov	r2, r4
 80078e6:	4b07      	ldr	r3, [pc, #28]	; (8007904 <_svfiprintf_r+0x1ec>)
 80078e8:	a904      	add	r1, sp, #16
 80078ea:	4640      	mov	r0, r8
 80078ec:	f7fc faaa 	bl	8003e44 <_printf_i>
 80078f0:	e7ea      	b.n	80078c8 <_svfiprintf_r+0x1b0>
 80078f2:	bf00      	nop
 80078f4:	0800815c 	.word	0x0800815c
 80078f8:	08008162 	.word	0x08008162
 80078fc:	08008166 	.word	0x08008166
 8007900:	080038ed 	.word	0x080038ed
 8007904:	08007665 	.word	0x08007665

08007908 <__sfputc_r>:
 8007908:	6893      	ldr	r3, [r2, #8]
 800790a:	b410      	push	{r4}
 800790c:	3b01      	subs	r3, #1
 800790e:	2b00      	cmp	r3, #0
 8007910:	6093      	str	r3, [r2, #8]
 8007912:	da07      	bge.n	8007924 <__sfputc_r+0x1c>
 8007914:	6994      	ldr	r4, [r2, #24]
 8007916:	42a3      	cmp	r3, r4
 8007918:	db01      	blt.n	800791e <__sfputc_r+0x16>
 800791a:	290a      	cmp	r1, #10
 800791c:	d102      	bne.n	8007924 <__sfputc_r+0x1c>
 800791e:	bc10      	pop	{r4}
 8007920:	f7fd bda2 	b.w	8005468 <__swbuf_r>
 8007924:	6813      	ldr	r3, [r2, #0]
 8007926:	1c58      	adds	r0, r3, #1
 8007928:	6010      	str	r0, [r2, #0]
 800792a:	7019      	strb	r1, [r3, #0]
 800792c:	4608      	mov	r0, r1
 800792e:	bc10      	pop	{r4}
 8007930:	4770      	bx	lr

08007932 <__sfputs_r>:
 8007932:	b5f8      	push	{r3, r4, r5, r6, r7, lr}
 8007934:	4606      	mov	r6, r0
 8007936:	460f      	mov	r7, r1
 8007938:	4614      	mov	r4, r2
 800793a:	18d5      	adds	r5, r2, r3
 800793c:	42ac      	cmp	r4, r5
 800793e:	d101      	bne.n	8007944 <__sfputs_r+0x12>
 8007940:	2000      	movs	r0, #0
 8007942:	e007      	b.n	8007954 <__sfputs_r+0x22>
 8007944:	463a      	mov	r2, r7
 8007946:	f814 1b01 	ldrb.w	r1, [r4], #1
 800794a:	4630      	mov	r0, r6
 800794c:	f7ff ffdc 	bl	8007908 <__sfputc_r>
 8007950:	1c43      	adds	r3, r0, #1
 8007952:	d1f3      	bne.n	800793c <__sfputs_r+0xa>
 8007954:	bdf8      	pop	{r3, r4, r5, r6, r7, pc}
	...

08007958 <_vfiprintf_r>:
 8007958:	e92d 4ff0 	stmdb	sp!, {r4, r5, r6, r7, r8, r9, sl, fp, lr}
 800795c:	460c      	mov	r4, r1
 800795e:	b09d      	sub	sp, #116	; 0x74
 8007960:	4617      	mov	r7, r2
 8007962:	461d      	mov	r5, r3
 8007964:	4606      	mov	r6, r0
 8007966:	b118      	cbz	r0, 8007970 <_vfiprintf_r+0x18>
 8007968:	6983      	ldr	r3, [r0, #24]
 800796a:	b90b      	cbnz	r3, 8007970 <_vfiprintf_r+0x18>
 800796c:	f7fe fd70 	bl	8006450 <__sinit>
 8007970:	4b7c      	ldr	r3, [pc, #496]	; (8007b64 <_vfiprintf_r+0x20c>)
 8007972:	429c      	cmp	r4, r3
 8007974:	d158      	bne.n	8007a28 <_vfiprintf_r+0xd0>
 8007976:	6874      	ldr	r4, [r6, #4]
 8007978:	89a3      	ldrh	r3, [r4, #12]
 800797a:	0718      	lsls	r0, r3, #28
 800797c:	d55e      	bpl.n	8007a3c <_vfiprintf_r+0xe4>
 800797e:	6923      	ldr	r3, [r4, #16]
 8007980:	2b00      	cmp	r3, #0
 8007982:	d05b      	beq.n	8007a3c <_vfiprintf_r+0xe4>
 8007984:	2300      	movs	r3, #0
 8007986:	9309      	str	r3, [sp, #36]	; 0x24
 8007988:	2320      	movs	r3, #32
 800798a:	f88d 3029 	strb.w	r3, [sp, #41]	; 0x29
 800798e:	2330      	movs	r3, #48	; 0x30
 8007990:	f04f 0b01 	mov.w	fp, #1
 8007994:	f88d 302a 	strb.w	r3, [sp, #42]	; 0x2a
 8007998:	9503      	str	r5, [sp, #12]
 800799a:	46b8      	mov	r8, r7
 800799c:	4645      	mov	r5, r8
 800799e:	f815 3b01 	ldrb.w	r3, [r5], #1
 80079a2:	b10b      	cbz	r3, 80079a8 <_vfiprintf_r+0x50>
 80079a4:	2b25      	cmp	r3, #37	; 0x25
 80079a6:	d154      	bne.n	8007a52 <_vfiprintf_r+0xfa>
 80079a8:	ebb8 0a07 	subs.w	sl, r8, r7
 80079ac:	d00b      	beq.n	80079c6 <_vfiprintf_r+0x6e>
 80079ae:	4653      	mov	r3, sl
 80079b0:	463a      	mov	r2, r7
 80079b2:	4621      	mov	r1, r4
 80079b4:	4630      	mov	r0, r6
 80079b6:	f7ff ffbc 	bl	8007932 <__sfputs_r>
 80079ba:	3001      	adds	r0, #1
 80079bc:	f000 80c2 	beq.w	8007b44 <_vfiprintf_r+0x1ec>
 80079c0:	9b09      	ldr	r3, [sp, #36]	; 0x24
 80079c2:	4453      	add	r3, sl
 80079c4:	9309      	str	r3, [sp, #36]	; 0x24
 80079c6:	f898 3000 	ldrb.w	r3, [r8]
 80079ca:	2b00      	cmp	r3, #0
 80079cc:	f000 80ba 	beq.w	8007b44 <_vfiprintf_r+0x1ec>
 80079d0:	2300      	movs	r3, #0
 80079d2:	f04f 32ff 	mov.w	r2, #4294967295	; 0xffffffff
 80079d6:	e9cd 2305 	strd	r2, r3, [sp, #20]
 80079da:	9304      	str	r3, [sp, #16]
 80079dc:	9307      	str	r3, [sp, #28]
 80079de:	f88d 3053 	strb.w	r3, [sp, #83]	; 0x53
 80079e2:	931a      	str	r3, [sp, #104]	; 0x68
 80079e4:	46a8      	mov	r8, r5
 80079e6:	2205      	movs	r2, #5
 80079e8:	f818 1b01 	ldrb.w	r1, [r8], #1
 80079ec:	485e      	ldr	r0, [pc, #376]	; (8007b68 <_vfiprintf_r+0x210>)
 80079ee:	f7ff f973 	bl	8006cd8 <memchr>
 80079f2:	9b04      	ldr	r3, [sp, #16]
 80079f4:	bb78      	cbnz	r0, 8007a56 <_vfiprintf_r+0xfe>
 80079f6:	06d9      	lsls	r1, r3, #27
 80079f8:	bf44      	itt	mi
 80079fa:	2220      	movmi	r2, #32
 80079fc:	f88d 2053 	strbmi.w	r2, [sp, #83]	; 0x53
 8007a00:	071a      	lsls	r2, r3, #28
 8007a02:	bf44      	itt	mi
 8007a04:	222b      	movmi	r2, #43	; 0x2b
 8007a06:	f88d 2053 	strbmi.w	r2, [sp, #83]	; 0x53
 8007a0a:	782a      	ldrb	r2, [r5, #0]
 8007a0c:	2a2a      	cmp	r2, #42	; 0x2a
 8007a0e:	d02a      	beq.n	8007a66 <_vfiprintf_r+0x10e>
 8007a10:	46a8      	mov	r8, r5
 8007a12:	2000      	movs	r0, #0
 8007a14:	250a      	movs	r5, #10
 8007a16:	9a07      	ldr	r2, [sp, #28]
 8007a18:	4641      	mov	r1, r8
 8007a1a:	f811 3b01 	ldrb.w	r3, [r1], #1
 8007a1e:	3b30      	subs	r3, #48	; 0x30
 8007a20:	2b09      	cmp	r3, #9
 8007a22:	d969      	bls.n	8007af8 <_vfiprintf_r+0x1a0>
 8007a24:	b360      	cbz	r0, 8007a80 <_vfiprintf_r+0x128>
 8007a26:	e024      	b.n	8007a72 <_vfiprintf_r+0x11a>
 8007a28:	4b50      	ldr	r3, [pc, #320]	; (8007b6c <_vfiprintf_r+0x214>)
 8007a2a:	429c      	cmp	r4, r3
 8007a2c:	d101      	bne.n	8007a32 <_vfiprintf_r+0xda>
 8007a2e:	68b4      	ldr	r4, [r6, #8]
 8007a30:	e7a2      	b.n	8007978 <_vfiprintf_r+0x20>
 8007a32:	4b4f      	ldr	r3, [pc, #316]	; (8007b70 <_vfiprintf_r+0x218>)
 8007a34:	429c      	cmp	r4, r3
 8007a36:	bf08      	it	eq
 8007a38:	68f4      	ldreq	r4, [r6, #12]
 8007a3a:	e79d      	b.n	8007978 <_vfiprintf_r+0x20>
 8007a3c:	4621      	mov	r1, r4
 8007a3e:	4630      	mov	r0, r6
 8007a40:	f7fd fd64 	bl	800550c <__swsetup_r>
 8007a44:	2800      	cmp	r0, #0
 8007a46:	d09d      	beq.n	8007984 <_vfiprintf_r+0x2c>
 8007a48:	f04f 30ff 	mov.w	r0, #4294967295	; 0xffffffff
 8007a4c:	b01d      	add	sp, #116	; 0x74
 8007a4e:	e8bd 8ff0 	ldmia.w	sp!, {r4, r5, r6, r7, r8, r9, sl, fp, pc}
 8007a52:	46a8      	mov	r8, r5
 8007a54:	e7a2      	b.n	800799c <_vfiprintf_r+0x44>
 8007a56:	4a44      	ldr	r2, [pc, #272]	; (8007b68 <_vfiprintf_r+0x210>)
 8007a58:	4645      	mov	r5, r8
 8007a5a:	1a80      	subs	r0, r0, r2
 8007a5c:	fa0b f000 	lsl.w	r0, fp, r0
 8007a60:	4318      	orrs	r0, r3
 8007a62:	9004      	str	r0, [sp, #16]
 8007a64:	e7be      	b.n	80079e4 <_vfiprintf_r+0x8c>
 8007a66:	9a03      	ldr	r2, [sp, #12]
 8007a68:	1d11      	adds	r1, r2, #4
 8007a6a:	6812      	ldr	r2, [r2, #0]
 8007a6c:	9103      	str	r1, [sp, #12]
 8007a6e:	2a00      	cmp	r2, #0
 8007a70:	db01      	blt.n	8007a76 <_vfiprintf_r+0x11e>
 8007a72:	9207      	str	r2, [sp, #28]
 8007a74:	e004      	b.n	8007a80 <_vfiprintf_r+0x128>
 8007a76:	4252      	negs	r2, r2
 8007a78:	f043 0302 	orr.w	r3, r3, #2
 8007a7c:	9207      	str	r2, [sp, #28]
 8007a7e:	9304      	str	r3, [sp, #16]
 8007a80:	f898 3000 	ldrb.w	r3, [r8]
 8007a84:	2b2e      	cmp	r3, #46	; 0x2e
 8007a86:	d10e      	bne.n	8007aa6 <_vfiprintf_r+0x14e>
 8007a88:	f898 3001 	ldrb.w	r3, [r8, #1]
 8007a8c:	2b2a      	cmp	r3, #42	; 0x2a
 8007a8e:	d138      	bne.n	8007b02 <_vfiprintf_r+0x1aa>
 8007a90:	9b03      	ldr	r3, [sp, #12]
 8007a92:	f108 0802 	add.w	r8, r8, #2
 8007a96:	1d1a      	adds	r2, r3, #4
 8007a98:	681b      	ldr	r3, [r3, #0]
 8007a9a:	9203      	str	r2, [sp, #12]
 8007a9c:	2b00      	cmp	r3, #0
 8007a9e:	bfb8      	it	lt
 8007aa0:	f04f 33ff 	movlt.w	r3, #4294967295	; 0xffffffff
 8007aa4:	9305      	str	r3, [sp, #20]
 8007aa6:	4d33      	ldr	r5, [pc, #204]	; (8007b74 <_vfiprintf_r+0x21c>)
 8007aa8:	2203      	movs	r2, #3
 8007aaa:	f898 1000 	ldrb.w	r1, [r8]
 8007aae:	4628      	mov	r0, r5
 8007ab0:	f7ff f912 	bl	8006cd8 <memchr>
 8007ab4:	b140      	cbz	r0, 8007ac8 <_vfiprintf_r+0x170>
 8007ab6:	2340      	movs	r3, #64	; 0x40
 8007ab8:	1b40      	subs	r0, r0, r5
 8007aba:	fa03 f000 	lsl.w	r0, r3, r0
 8007abe:	9b04      	ldr	r3, [sp, #16]
 8007ac0:	f108 0801 	add.w	r8, r8, #1
 8007ac4:	4303      	orrs	r3, r0
 8007ac6:	9304      	str	r3, [sp, #16]
 8007ac8:	f898 1000 	ldrb.w	r1, [r8]
 8007acc:	2206      	movs	r2, #6
 8007ace:	482a      	ldr	r0, [pc, #168]	; (8007b78 <_vfiprintf_r+0x220>)
 8007ad0:	f108 0701 	add.w	r7, r8, #1
 8007ad4:	f88d 1028 	strb.w	r1, [sp, #40]	; 0x28
 8007ad8:	f7ff f8fe 	bl	8006cd8 <memchr>
 8007adc:	2800      	cmp	r0, #0
 8007ade:	d037      	beq.n	8007b50 <_vfiprintf_r+0x1f8>
 8007ae0:	4b26      	ldr	r3, [pc, #152]	; (8007b7c <_vfiprintf_r+0x224>)
 8007ae2:	bb1b      	cbnz	r3, 8007b2c <_vfiprintf_r+0x1d4>
 8007ae4:	9b03      	ldr	r3, [sp, #12]
 8007ae6:	3307      	adds	r3, #7
 8007ae8:	f023 0307 	bic.w	r3, r3, #7
 8007aec:	3308      	adds	r3, #8
 8007aee:	9303      	str	r3, [sp, #12]
 8007af0:	9b09      	ldr	r3, [sp, #36]	; 0x24
 8007af2:	444b      	add	r3, r9
 8007af4:	9309      	str	r3, [sp, #36]	; 0x24
 8007af6:	e750      	b.n	800799a <_vfiprintf_r+0x42>
 8007af8:	fb05 3202 	mla	r2, r5, r2, r3
 8007afc:	2001      	movs	r0, #1
 8007afe:	4688      	mov	r8, r1
 8007b00:	e78a      	b.n	8007a18 <_vfiprintf_r+0xc0>
 8007b02:	2300      	movs	r3, #0
 8007b04:	250a      	movs	r5, #10
 8007b06:	4619      	mov	r1, r3
 8007b08:	f108 0801 	add.w	r8, r8, #1
 8007b0c:	9305      	str	r3, [sp, #20]
 8007b0e:	4640      	mov	r0, r8
 8007b10:	f810 2b01 	ldrb.w	r2, [r0], #1
 8007b14:	3a30      	subs	r2, #48	; 0x30
 8007b16:	2a09      	cmp	r2, #9
 8007b18:	d903      	bls.n	8007b22 <_vfiprintf_r+0x1ca>
 8007b1a:	2b00      	cmp	r3, #0
 8007b1c:	d0c3      	beq.n	8007aa6 <_vfiprintf_r+0x14e>
 8007b1e:	9105      	str	r1, [sp, #20]
 8007b20:	e7c1      	b.n	8007aa6 <_vfiprintf_r+0x14e>
 8007b22:	fb05 2101 	mla	r1, r5, r1, r2
 8007b26:	2301      	movs	r3, #1
 8007b28:	4680      	mov	r8, r0
 8007b2a:	e7f0      	b.n	8007b0e <_vfiprintf_r+0x1b6>
 8007b2c:	ab03      	add	r3, sp, #12
 8007b2e:	9300      	str	r3, [sp, #0]
 8007b30:	4622      	mov	r2, r4
 8007b32:	4b13      	ldr	r3, [pc, #76]	; (8007b80 <_vfiprintf_r+0x228>)
 8007b34:	a904      	add	r1, sp, #16
 8007b36:	4630      	mov	r0, r6
 8007b38:	f7fb fed8 	bl	80038ec <_printf_float>
 8007b3c:	f1b0 3fff 	cmp.w	r0, #4294967295	; 0xffffffff
 8007b40:	4681      	mov	r9, r0
 8007b42:	d1d5      	bne.n	8007af0 <_vfiprintf_r+0x198>
 8007b44:	89a3      	ldrh	r3, [r4, #12]
 8007b46:	065b      	lsls	r3, r3, #25
 8007b48:	f53f af7e 	bmi.w	8007a48 <_vfiprintf_r+0xf0>
 8007b4c:	9809      	ldr	r0, [sp, #36]	; 0x24
 8007b4e:	e77d      	b.n	8007a4c <_vfiprintf_r+0xf4>
 8007b50:	ab03      	add	r3, sp, #12
 8007b52:	9300      	str	r3, [sp, #0]
 8007b54:	4622      	mov	r2, r4
 8007b56:	4b0a      	ldr	r3, [pc, #40]	; (8007b80 <_vfiprintf_r+0x228>)
 8007b58:	a904      	add	r1, sp, #16
 8007b5a:	4630      	mov	r0, r6
 8007b5c:	f7fc f972 	bl	8003e44 <_printf_i>
 8007b60:	e7ec      	b.n	8007b3c <_vfiprintf_r+0x1e4>
 8007b62:	bf00      	nop
 8007b64:	08008010 	.word	0x08008010
 8007b68:	0800815c 	.word	0x0800815c
 8007b6c:	08008030 	.word	0x08008030
 8007b70:	08007ff0 	.word	0x08007ff0
 8007b74:	08008162 	.word	0x08008162
 8007b78:	08008166 	.word	0x08008166
 8007b7c:	080038ed 	.word	0x080038ed
 8007b80:	08007933 	.word	0x08007933

08007b84 <_sbrk_r>:
 8007b84:	b538      	push	{r3, r4, r5, lr}
 8007b86:	2300      	movs	r3, #0
 8007b88:	4c05      	ldr	r4, [pc, #20]	; (8007ba0 <_sbrk_r+0x1c>)
 8007b8a:	4605      	mov	r5, r0
 8007b8c:	4608      	mov	r0, r1
 8007b8e:	6023      	str	r3, [r4, #0]
 8007b90:	f7fa f800 	bl	8001b94 <_sbrk>
 8007b94:	1c43      	adds	r3, r0, #1
 8007b96:	d102      	bne.n	8007b9e <_sbrk_r+0x1a>
 8007b98:	6823      	ldr	r3, [r4, #0]
 8007b9a:	b103      	cbz	r3, 8007b9e <_sbrk_r+0x1a>
 8007b9c:	602b      	str	r3, [r5, #0]
 8007b9e:	bd38      	pop	{r3, r4, r5, pc}
 8007ba0:	2000046c 	.word	0x2000046c

08007ba4 <__sread>:
 8007ba4:	b510      	push	{r4, lr}
 8007ba6:	460c      	mov	r4, r1
 8007ba8:	f9b1 100e 	ldrsh.w	r1, [r1, #14]
 8007bac:	f000 f8f4 	bl	8007d98 <_read_r>
 8007bb0:	2800      	cmp	r0, #0
 8007bb2:	bfab      	itete	ge
 8007bb4:	6d63      	ldrge	r3, [r4, #84]	; 0x54
 8007bb6:	89a3      	ldrhlt	r3, [r4, #12]
 8007bb8:	181b      	addge	r3, r3, r0
 8007bba:	f423 5380 	biclt.w	r3, r3, #4096	; 0x1000
 8007bbe:	bfac      	ite	ge
 8007bc0:	6563      	strge	r3, [r4, #84]	; 0x54
 8007bc2:	81a3      	strhlt	r3, [r4, #12]
 8007bc4:	bd10      	pop	{r4, pc}

08007bc6 <__swrite>:
 8007bc6:	e92d 41f0 	stmdb	sp!, {r4, r5, r6, r7, r8, lr}
 8007bca:	461f      	mov	r7, r3
 8007bcc:	898b      	ldrh	r3, [r1, #12]
 8007bce:	4605      	mov	r5, r0
 8007bd0:	05db      	lsls	r3, r3, #23
 8007bd2:	460c      	mov	r4, r1
 8007bd4:	4616      	mov	r6, r2
 8007bd6:	d505      	bpl.n	8007be4 <__swrite+0x1e>
 8007bd8:	2302      	movs	r3, #2
 8007bda:	2200      	movs	r2, #0
 8007bdc:	f9b1 100e 	ldrsh.w	r1, [r1, #14]
 8007be0:	f000 f886 	bl	8007cf0 <_lseek_r>
 8007be4:	89a3      	ldrh	r3, [r4, #12]
 8007be6:	4632      	mov	r2, r6
 8007be8:	f423 5380 	bic.w	r3, r3, #4096	; 0x1000
 8007bec:	81a3      	strh	r3, [r4, #12]
 8007bee:	f9b4 100e 	ldrsh.w	r1, [r4, #14]
 8007bf2:	463b      	mov	r3, r7
 8007bf4:	4628      	mov	r0, r5
 8007bf6:	e8bd 41f0 	ldmia.w	sp!, {r4, r5, r6, r7, r8, lr}
 8007bfa:	f000 b835 	b.w	8007c68 <_write_r>

08007bfe <__sseek>:
 8007bfe:	b510      	push	{r4, lr}
 8007c00:	460c      	mov	r4, r1
 8007c02:	f9b1 100e 	ldrsh.w	r1, [r1, #14]
 8007c06:	f000 f873 	bl	8007cf0 <_lseek_r>
 8007c0a:	1c43      	adds	r3, r0, #1
 8007c0c:	89a3      	ldrh	r3, [r4, #12]
 8007c0e:	bf15      	itete	ne
 8007c10:	6560      	strne	r0, [r4, #84]	; 0x54
 8007c12:	f423 5380 	biceq.w	r3, r3, #4096	; 0x1000
 8007c16:	f443 5380 	orrne.w	r3, r3, #4096	; 0x1000
 8007c1a:	81a3      	strheq	r3, [r4, #12]
 8007c1c:	bf18      	it	ne
 8007c1e:	81a3      	strhne	r3, [r4, #12]
 8007c20:	bd10      	pop	{r4, pc}

08007c22 <__sclose>:
 8007c22:	f9b1 100e 	ldrsh.w	r1, [r1, #14]
 8007c26:	f000 b831 	b.w	8007c8c <_close_r>

08007c2a <strncmp>:
 8007c2a:	b510      	push	{r4, lr}
 8007c2c:	b16a      	cbz	r2, 8007c4a <strncmp+0x20>
 8007c2e:	3901      	subs	r1, #1
 8007c30:	1884      	adds	r4, r0, r2
 8007c32:	f810 3b01 	ldrb.w	r3, [r0], #1
 8007c36:	f811 2f01 	ldrb.w	r2, [r1, #1]!
 8007c3a:	4293      	cmp	r3, r2
 8007c3c:	d103      	bne.n	8007c46 <strncmp+0x1c>
 8007c3e:	42a0      	cmp	r0, r4
 8007c40:	d001      	beq.n	8007c46 <strncmp+0x1c>
 8007c42:	2b00      	cmp	r3, #0
 8007c44:	d1f5      	bne.n	8007c32 <strncmp+0x8>
 8007c46:	1a98      	subs	r0, r3, r2
 8007c48:	bd10      	pop	{r4, pc}
 8007c4a:	4610      	mov	r0, r2
 8007c4c:	e7fc      	b.n	8007c48 <strncmp+0x1e>

08007c4e <__ascii_wctomb>:
 8007c4e:	b149      	cbz	r1, 8007c64 <__ascii_wctomb+0x16>
 8007c50:	2aff      	cmp	r2, #255	; 0xff
 8007c52:	bf8b      	itete	hi
 8007c54:	238a      	movhi	r3, #138	; 0x8a
 8007c56:	700a      	strbls	r2, [r1, #0]
 8007c58:	6003      	strhi	r3, [r0, #0]
 8007c5a:	2001      	movls	r0, #1
 8007c5c:	bf88      	it	hi
 8007c5e:	f04f 30ff 	movhi.w	r0, #4294967295	; 0xffffffff
 8007c62:	4770      	bx	lr
 8007c64:	4608      	mov	r0, r1
 8007c66:	4770      	bx	lr

08007c68 <_write_r>:
 8007c68:	b538      	push	{r3, r4, r5, lr}
 8007c6a:	4605      	mov	r5, r0
 8007c6c:	4608      	mov	r0, r1
 8007c6e:	4611      	mov	r1, r2
 8007c70:	2200      	movs	r2, #0
 8007c72:	4c05      	ldr	r4, [pc, #20]	; (8007c88 <_write_r+0x20>)
 8007c74:	6022      	str	r2, [r4, #0]
 8007c76:	461a      	mov	r2, r3
 8007c78:	f7f9 fdaa 	bl	80017d0 <_write>
 8007c7c:	1c43      	adds	r3, r0, #1
 8007c7e:	d102      	bne.n	8007c86 <_write_r+0x1e>
 8007c80:	6823      	ldr	r3, [r4, #0]
 8007c82:	b103      	cbz	r3, 8007c86 <_write_r+0x1e>
 8007c84:	602b      	str	r3, [r5, #0]
 8007c86:	bd38      	pop	{r3, r4, r5, pc}
 8007c88:	2000046c 	.word	0x2000046c

08007c8c <_close_r>:
 8007c8c:	b538      	push	{r3, r4, r5, lr}
 8007c8e:	2300      	movs	r3, #0
 8007c90:	4c05      	ldr	r4, [pc, #20]	; (8007ca8 <_close_r+0x1c>)
 8007c92:	4605      	mov	r5, r0
 8007c94:	4608      	mov	r0, r1
 8007c96:	6023      	str	r3, [r4, #0]
 8007c98:	f7f9 fdb4 	bl	8001804 <_close>
 8007c9c:	1c43      	adds	r3, r0, #1
 8007c9e:	d102      	bne.n	8007ca6 <_close_r+0x1a>
 8007ca0:	6823      	ldr	r3, [r4, #0]
 8007ca2:	b103      	cbz	r3, 8007ca6 <_close_r+0x1a>
 8007ca4:	602b      	str	r3, [r5, #0]
 8007ca6:	bd38      	pop	{r3, r4, r5, pc}
 8007ca8:	2000046c 	.word	0x2000046c

08007cac <_fstat_r>:
 8007cac:	b538      	push	{r3, r4, r5, lr}
 8007cae:	2300      	movs	r3, #0
 8007cb0:	4c06      	ldr	r4, [pc, #24]	; (8007ccc <_fstat_r+0x20>)
 8007cb2:	4605      	mov	r5, r0
 8007cb4:	4608      	mov	r0, r1
 8007cb6:	4611      	mov	r1, r2
 8007cb8:	6023      	str	r3, [r4, #0]
 8007cba:	f7f9 fdd1 	bl	8001860 <_fstat>
 8007cbe:	1c43      	adds	r3, r0, #1
 8007cc0:	d102      	bne.n	8007cc8 <_fstat_r+0x1c>
 8007cc2:	6823      	ldr	r3, [r4, #0]
 8007cc4:	b103      	cbz	r3, 8007cc8 <_fstat_r+0x1c>
 8007cc6:	602b      	str	r3, [r5, #0]
 8007cc8:	bd38      	pop	{r3, r4, r5, pc}
 8007cca:	bf00      	nop
 8007ccc:	2000046c 	.word	0x2000046c

08007cd0 <_isatty_r>:
 8007cd0:	b538      	push	{r3, r4, r5, lr}
 8007cd2:	2300      	movs	r3, #0
 8007cd4:	4c05      	ldr	r4, [pc, #20]	; (8007cec <_isatty_r+0x1c>)
 8007cd6:	4605      	mov	r5, r0
 8007cd8:	4608      	mov	r0, r1
 8007cda:	6023      	str	r3, [r4, #0]
 8007cdc:	f7f9 fd6a 	bl	80017b4 <_isatty>
 8007ce0:	1c43      	adds	r3, r0, #1
 8007ce2:	d102      	bne.n	8007cea <_isatty_r+0x1a>
 8007ce4:	6823      	ldr	r3, [r4, #0]
 8007ce6:	b103      	cbz	r3, 8007cea <_isatty_r+0x1a>
 8007ce8:	602b      	str	r3, [r5, #0]
 8007cea:	bd38      	pop	{r3, r4, r5, pc}
 8007cec:	2000046c 	.word	0x2000046c

08007cf0 <_lseek_r>:
 8007cf0:	b538      	push	{r3, r4, r5, lr}
 8007cf2:	4605      	mov	r5, r0
 8007cf4:	4608      	mov	r0, r1
 8007cf6:	4611      	mov	r1, r2
 8007cf8:	2200      	movs	r2, #0
 8007cfa:	4c05      	ldr	r4, [pc, #20]	; (8007d10 <_lseek_r+0x20>)
 8007cfc:	6022      	str	r2, [r4, #0]
 8007cfe:	461a      	mov	r2, r3
 8007d00:	f7f9 fd8e 	bl	8001820 <_lseek>
 8007d04:	1c43      	adds	r3, r0, #1
 8007d06:	d102      	bne.n	8007d0e <_lseek_r+0x1e>
 8007d08:	6823      	ldr	r3, [r4, #0]
 8007d0a:	b103      	cbz	r3, 8007d0e <_lseek_r+0x1e>
 8007d0c:	602b      	str	r3, [r5, #0]
 8007d0e:	bd38      	pop	{r3, r4, r5, pc}
 8007d10:	2000046c 	.word	0x2000046c

08007d14 <memmove>:
 8007d14:	4288      	cmp	r0, r1
 8007d16:	b510      	push	{r4, lr}
 8007d18:	eb01 0302 	add.w	r3, r1, r2
 8007d1c:	d807      	bhi.n	8007d2e <memmove+0x1a>
 8007d1e:	1e42      	subs	r2, r0, #1
 8007d20:	4299      	cmp	r1, r3
 8007d22:	d00a      	beq.n	8007d3a <memmove+0x26>
 8007d24:	f811 4b01 	ldrb.w	r4, [r1], #1
 8007d28:	f802 4f01 	strb.w	r4, [r2, #1]!
 8007d2c:	e7f8      	b.n	8007d20 <memmove+0xc>
 8007d2e:	4283      	cmp	r3, r0
 8007d30:	d9f5      	bls.n	8007d1e <memmove+0xa>
 8007d32:	1881      	adds	r1, r0, r2
 8007d34:	1ad2      	subs	r2, r2, r3
 8007d36:	42d3      	cmn	r3, r2
 8007d38:	d100      	bne.n	8007d3c <memmove+0x28>
 8007d3a:	bd10      	pop	{r4, pc}
 8007d3c:	f813 4d01 	ldrb.w	r4, [r3, #-1]!
 8007d40:	f801 4d01 	strb.w	r4, [r1, #-1]!
 8007d44:	e7f7      	b.n	8007d36 <memmove+0x22>

08007d46 <__malloc_lock>:
 8007d46:	4770      	bx	lr

08007d48 <__malloc_unlock>:
 8007d48:	4770      	bx	lr

08007d4a <_realloc_r>:
 8007d4a:	b5f8      	push	{r3, r4, r5, r6, r7, lr}
 8007d4c:	4607      	mov	r7, r0
 8007d4e:	4614      	mov	r4, r2
 8007d50:	460e      	mov	r6, r1
 8007d52:	b921      	cbnz	r1, 8007d5e <_realloc_r+0x14>
 8007d54:	e8bd 40f8 	ldmia.w	sp!, {r3, r4, r5, r6, r7, lr}
 8007d58:	4611      	mov	r1, r2
 8007d5a:	f7ff bc29 	b.w	80075b0 <_malloc_r>
 8007d5e:	b922      	cbnz	r2, 8007d6a <_realloc_r+0x20>
 8007d60:	f7ff fbda 	bl	8007518 <_free_r>
 8007d64:	4625      	mov	r5, r4
 8007d66:	4628      	mov	r0, r5
 8007d68:	bdf8      	pop	{r3, r4, r5, r6, r7, pc}
 8007d6a:	f000 f827 	bl	8007dbc <_malloc_usable_size_r>
 8007d6e:	42a0      	cmp	r0, r4
 8007d70:	d20f      	bcs.n	8007d92 <_realloc_r+0x48>
 8007d72:	4621      	mov	r1, r4
 8007d74:	4638      	mov	r0, r7
 8007d76:	f7ff fc1b 	bl	80075b0 <_malloc_r>
 8007d7a:	4605      	mov	r5, r0
 8007d7c:	2800      	cmp	r0, #0
 8007d7e:	d0f2      	beq.n	8007d66 <_realloc_r+0x1c>
 8007d80:	4631      	mov	r1, r6
 8007d82:	4622      	mov	r2, r4
 8007d84:	f7fe ffb6 	bl	8006cf4 <memcpy>
 8007d88:	4631      	mov	r1, r6
 8007d8a:	4638      	mov	r0, r7
 8007d8c:	f7ff fbc4 	bl	8007518 <_free_r>
 8007d90:	e7e9      	b.n	8007d66 <_realloc_r+0x1c>
 8007d92:	4635      	mov	r5, r6
 8007d94:	e7e7      	b.n	8007d66 <_realloc_r+0x1c>
	...

08007d98 <_read_r>:
 8007d98:	b538      	push	{r3, r4, r5, lr}
 8007d9a:	4605      	mov	r5, r0
 8007d9c:	4608      	mov	r0, r1
 8007d9e:	4611      	mov	r1, r2
 8007da0:	2200      	movs	r2, #0
 8007da2:	4c05      	ldr	r4, [pc, #20]	; (8007db8 <_read_r+0x20>)
 8007da4:	6022      	str	r2, [r4, #0]
 8007da6:	461a      	mov	r2, r3
 8007da8:	f7f9 fd42 	bl	8001830 <_read>
 8007dac:	1c43      	adds	r3, r0, #1
 8007dae:	d102      	bne.n	8007db6 <_read_r+0x1e>
 8007db0:	6823      	ldr	r3, [r4, #0]
 8007db2:	b103      	cbz	r3, 8007db6 <_read_r+0x1e>
 8007db4:	602b      	str	r3, [r5, #0]
 8007db6:	bd38      	pop	{r3, r4, r5, pc}
 8007db8:	2000046c 	.word	0x2000046c

08007dbc <_malloc_usable_size_r>:
 8007dbc:	f851 3c04 	ldr.w	r3, [r1, #-4]
 8007dc0:	1f18      	subs	r0, r3, #4
 8007dc2:	2b00      	cmp	r3, #0
 8007dc4:	bfbc      	itt	lt
 8007dc6:	580b      	ldrlt	r3, [r1, r0]
 8007dc8:	18c0      	addlt	r0, r0, r3
 8007dca:	4770      	bx	lr

08007dcc <_init>:
 8007dcc:	b5f8      	push	{r3, r4, r5, r6, r7, lr}
 8007dce:	bf00      	nop
 8007dd0:	bcf8      	pop	{r3, r4, r5, r6, r7}
 8007dd2:	bc08      	pop	{r3}
 8007dd4:	469e      	mov	lr, r3
 8007dd6:	4770      	bx	lr

08007dd8 <_fini>:
 8007dd8:	b5f8      	push	{r3, r4, r5, r6, r7, lr}
 8007dda:	bf00      	nop
 8007ddc:	bcf8      	pop	{r3, r4, r5, r6, r7}
 8007dde:	bc08      	pop	{r3}
 8007de0:	469e      	mov	lr, r3
 8007de2:	4770      	bx	lr
